
IOUFirmware.elf:     file format elf32-avr

Sections:
Idx Name          Size      VMA       LMA       File off  Algn
  0 .data         00000a62  00800100  00006a70  00006b04  2**0
                  CONTENTS, ALLOC, LOAD, DATA
  1 .text         00006a70  00000000  00000000  00000094  2**1
                  CONTENTS, ALLOC, LOAD, READONLY, CODE
  2 .bss          000003ef  00800b62  00800b62  00007566  2**0
                  ALLOC
  3 .comment      0000005c  00000000  00000000  00007566  2**0
                  CONTENTS, READONLY
  4 .note.gnu.avr.deviceinfo 0000003c  00000000  00000000  000075c4  2**2
                  CONTENTS, READONLY
  5 .debug_aranges 000008f8  00000000  00000000  00007600  2**0
                  CONTENTS, READONLY, DEBUGGING
  6 .debug_info   000069bf  00000000  00000000  00007ef8  2**0
                  CONTENTS, READONLY, DEBUGGING
  7 .debug_abbrev 000022c1  00000000  00000000  0000e8b7  2**0
                  CONTENTS, READONLY, DEBUGGING
  8 .debug_line   00008c44  00000000  00000000  00010b78  2**0
                  CONTENTS, READONLY, DEBUGGING
  9 .debug_frame  00002044  00000000  00000000  000197bc  2**2
                  CONTENTS, READONLY, DEBUGGING
 10 .debug_str    0000e134  00000000  00000000  0001b800  2**0
                  CONTENTS, READONLY, DEBUGGING
 11 .debug_loc    0000416d  00000000  00000000  00029934  2**0
                  CONTENTS, READONLY, DEBUGGING
 12 .debug_ranges 00000770  00000000  00000000  0002daa1  2**0
                  CONTENTS, READONLY, DEBUGGING
 13 .debug_macro  00005f64  00000000  00000000  0002e211  2**0
                  CONTENTS, READONLY, DEBUGGING

Disassembly of section .text:

00000000 <__vectors>:
       0:	0c 94 a2 05 	jmp	0xb44	; 0xb44 <__ctors_end>
       4:	0c 94 bf 05 	jmp	0xb7e	; 0xb7e <__bad_interrupt>
       8:	0c 94 bf 05 	jmp	0xb7e	; 0xb7e <__bad_interrupt>
       c:	0c 94 bf 05 	jmp	0xb7e	; 0xb7e <__bad_interrupt>
      10:	0c 94 bf 05 	jmp	0xb7e	; 0xb7e <__bad_interrupt>
      14:	0c 94 bf 05 	jmp	0xb7e	; 0xb7e <__bad_interrupt>
      18:	0c 94 bf 05 	jmp	0xb7e	; 0xb7e <__bad_interrupt>
      1c:	0c 94 bf 05 	jmp	0xb7e	; 0xb7e <__bad_interrupt>
      20:	0c 94 bf 05 	jmp	0xb7e	; 0xb7e <__bad_interrupt>
      24:	0c 94 bf 05 	jmp	0xb7e	; 0xb7e <__bad_interrupt>
      28:	0c 94 bf 05 	jmp	0xb7e	; 0xb7e <__bad_interrupt>
      2c:	0c 94 bf 05 	jmp	0xb7e	; 0xb7e <__bad_interrupt>
      30:	0c 94 bf 05 	jmp	0xb7e	; 0xb7e <__bad_interrupt>
      34:	0c 94 bf 05 	jmp	0xb7e	; 0xb7e <__bad_interrupt>
      38:	0c 94 bf 05 	jmp	0xb7e	; 0xb7e <__bad_interrupt>
      3c:	0c 94 dc 2c 	jmp	0x59b8	; 0x59b8 <__vector_15>
      40:	0c 94 bf 05 	jmp	0xb7e	; 0xb7e <__bad_interrupt>
      44:	0c 94 bf 05 	jmp	0xb7e	; 0xb7e <__bad_interrupt>
      48:	0c 94 68 1c 	jmp	0x38d0	; 0x38d0 <__vector_18>
      4c:	0c 94 d1 1c 	jmp	0x39a2	; 0x39a2 <__vector_19>
      50:	0c 94 bf 05 	jmp	0xb7e	; 0xb7e <__bad_interrupt>
      54:	0c 94 bf 05 	jmp	0xb7e	; 0xb7e <__bad_interrupt>
      58:	0c 94 bf 05 	jmp	0xb7e	; 0xb7e <__bad_interrupt>
      5c:	0c 94 bf 05 	jmp	0xb7e	; 0xb7e <__bad_interrupt>
      60:	0c 94 bf 05 	jmp	0xb7e	; 0xb7e <__bad_interrupt>
      64:	0c 94 bf 05 	jmp	0xb7e	; 0xb7e <__bad_interrupt>
      68:	0c 94 bf 05 	jmp	0xb7e	; 0xb7e <__bad_interrupt>
      6c:	0c 94 bf 05 	jmp	0xb7e	; 0xb7e <__bad_interrupt>
      70:	0c 94 bf 05 	jmp	0xb7e	; 0xb7e <__bad_interrupt>
      74:	0c 94 bf 05 	jmp	0xb7e	; 0xb7e <__bad_interrupt>
      78:	0c 94 23 1d 	jmp	0x3a46	; 0x3a46 <__vector_30>
      7c:	0c 94 8c 1d 	jmp	0x3b18	; 0x3b18 <__vector_31>
      80:	0c 94 bf 05 	jmp	0xb7e	; 0xb7e <__bad_interrupt>
      84:	0c 94 15 19 	jmp	0x322a	; 0x322a <__vector_33>
      88:	0c 94 bf 05 	jmp	0xb7e	; 0xb7e <__bad_interrupt>
      8c:	54 1a       	sub	r5, r20
      8e:	5a 1a       	sub	r5, r26
      90:	5a 1a       	sub	r5, r26
      92:	5a 1a       	sub	r5, r26
      94:	5a 1a       	sub	r5, r26
      96:	5a 1a       	sub	r5, r26
      98:	5a 1a       	sub	r5, r26
      9a:	5a 1a       	sub	r5, r26
      9c:	46 19       	sub	r20, r6
      9e:	5a 1a       	sub	r5, r26
      a0:	5a 1a       	sub	r5, r26
      a2:	5a 1a       	sub	r5, r26
      a4:	5a 1a       	sub	r5, r26
      a6:	5a 1a       	sub	r5, r26
      a8:	5a 1a       	sub	r5, r26
      aa:	5a 1a       	sub	r5, r26
      ac:	46 19       	sub	r20, r6
      ae:	5a 1a       	sub	r5, r26
      b0:	5a 1a       	sub	r5, r26
      b2:	5a 1a       	sub	r5, r26
      b4:	5a 1a       	sub	r5, r26
      b6:	5a 1a       	sub	r5, r26
      b8:	5a 1a       	sub	r5, r26
      ba:	5a 1a       	sub	r5, r26
      bc:	52 19       	sub	r21, r2
      be:	5a 1a       	sub	r5, r26
      c0:	5a 1a       	sub	r5, r26
      c2:	5a 1a       	sub	r5, r26
      c4:	5a 1a       	sub	r5, r26
      c6:	5a 1a       	sub	r5, r26
      c8:	5a 1a       	sub	r5, r26
      ca:	5a 1a       	sub	r5, r26
      cc:	7e 19       	sub	r23, r14
      ce:	5a 1a       	sub	r5, r26
      d0:	5a 1a       	sub	r5, r26
      d2:	5a 1a       	sub	r5, r26
      d4:	5a 1a       	sub	r5, r26
      d6:	5a 1a       	sub	r5, r26
      d8:	5a 1a       	sub	r5, r26
      da:	5a 1a       	sub	r5, r26
      dc:	52 19       	sub	r21, r2
      de:	5a 1a       	sub	r5, r26
      e0:	5a 1a       	sub	r5, r26
      e2:	5a 1a       	sub	r5, r26
      e4:	5a 1a       	sub	r5, r26
      e6:	5a 1a       	sub	r5, r26
      e8:	5a 1a       	sub	r5, r26
      ea:	5a 1a       	sub	r5, r26
      ec:	84 19       	sub	r24, r4
      ee:	5a 1a       	sub	r5, r26
      f0:	5a 1a       	sub	r5, r26
      f2:	5a 1a       	sub	r5, r26
      f4:	5a 1a       	sub	r5, r26
      f6:	5a 1a       	sub	r5, r26
      f8:	5a 1a       	sub	r5, r26
      fa:	5a 1a       	sub	r5, r26
      fc:	8a 19       	sub	r24, r10
      fe:	5a 1a       	sub	r5, r26
     100:	5a 1a       	sub	r5, r26
     102:	5a 1a       	sub	r5, r26
     104:	5a 1a       	sub	r5, r26
     106:	5a 1a       	sub	r5, r26
     108:	5a 1a       	sub	r5, r26
     10a:	5a 1a       	sub	r5, r26
     10c:	a0 19       	sub	r26, r0
     10e:	5a 1a       	sub	r5, r26
     110:	5a 1a       	sub	r5, r26
     112:	5a 1a       	sub	r5, r26
     114:	5a 1a       	sub	r5, r26
     116:	5a 1a       	sub	r5, r26
     118:	5a 1a       	sub	r5, r26
     11a:	5a 1a       	sub	r5, r26
     11c:	d0 19       	sub	r29, r0
     11e:	5a 1a       	sub	r5, r26
     120:	5a 1a       	sub	r5, r26
     122:	5a 1a       	sub	r5, r26
     124:	5a 1a       	sub	r5, r26
     126:	5a 1a       	sub	r5, r26
     128:	5a 1a       	sub	r5, r26
     12a:	5a 1a       	sub	r5, r26
     12c:	90 19       	sub	r25, r0
     12e:	5a 1a       	sub	r5, r26
     130:	5a 1a       	sub	r5, r26
     132:	5a 1a       	sub	r5, r26
     134:	5a 1a       	sub	r5, r26
     136:	5a 1a       	sub	r5, r26
     138:	5a 1a       	sub	r5, r26
     13a:	5a 1a       	sub	r5, r26
     13c:	ae 19       	sub	r26, r14
     13e:	5a 1a       	sub	r5, r26
     140:	5a 1a       	sub	r5, r26
     142:	5a 1a       	sub	r5, r26
     144:	5a 1a       	sub	r5, r26
     146:	5a 1a       	sub	r5, r26
     148:	5a 1a       	sub	r5, r26
     14a:	5a 1a       	sub	r5, r26
     14c:	d3 19       	sub	r29, r3
     14e:	5a 1a       	sub	r5, r26
     150:	5a 1a       	sub	r5, r26
     152:	5a 1a       	sub	r5, r26
     154:	5a 1a       	sub	r5, r26
     156:	5a 1a       	sub	r5, r26
     158:	5a 1a       	sub	r5, r26
     15a:	5a 1a       	sub	r5, r26
     15c:	d3 19       	sub	r29, r3
     15e:	5a 1a       	sub	r5, r26
     160:	5a 1a       	sub	r5, r26
     162:	5a 1a       	sub	r5, r26
     164:	5a 1a       	sub	r5, r26
     166:	5a 1a       	sub	r5, r26
     168:	5a 1a       	sub	r5, r26
     16a:	5a 1a       	sub	r5, r26
     16c:	d3 19       	sub	r29, r3
     16e:	5a 1a       	sub	r5, r26
     170:	5a 1a       	sub	r5, r26
     172:	5a 1a       	sub	r5, r26
     174:	5a 1a       	sub	r5, r26
     176:	5a 1a       	sub	r5, r26
     178:	5a 1a       	sub	r5, r26
     17a:	5a 1a       	sub	r5, r26
     17c:	d3 19       	sub	r29, r3
     17e:	5a 1a       	sub	r5, r26
     180:	5a 1a       	sub	r5, r26
     182:	5a 1a       	sub	r5, r26
     184:	5a 1a       	sub	r5, r26
     186:	5a 1a       	sub	r5, r26
     188:	5a 1a       	sub	r5, r26
     18a:	5a 1a       	sub	r5, r26
     18c:	dc 19       	sub	r29, r12
     18e:	5a 1a       	sub	r5, r26
     190:	5a 1a       	sub	r5, r26
     192:	5a 1a       	sub	r5, r26
     194:	5a 1a       	sub	r5, r26
     196:	5a 1a       	sub	r5, r26
     198:	5a 1a       	sub	r5, r26
     19a:	5a 1a       	sub	r5, r26
     19c:	16 1a       	sub	r1, r22
     19e:	5a 1a       	sub	r5, r26
     1a0:	5a 1a       	sub	r5, r26
     1a2:	5a 1a       	sub	r5, r26
     1a4:	5a 1a       	sub	r5, r26
     1a6:	5a 1a       	sub	r5, r26
     1a8:	5a 1a       	sub	r5, r26
     1aa:	5a 1a       	sub	r5, r26
     1ac:	dc 19       	sub	r29, r12
     1ae:	5a 1a       	sub	r5, r26
     1b0:	5a 1a       	sub	r5, r26
     1b2:	5a 1a       	sub	r5, r26
     1b4:	5a 1a       	sub	r5, r26
     1b6:	5a 1a       	sub	r5, r26
     1b8:	5a 1a       	sub	r5, r26
     1ba:	5a 1a       	sub	r5, r26
     1bc:	16 1a       	sub	r1, r22
     1be:	5a 1a       	sub	r5, r26
     1c0:	5a 1a       	sub	r5, r26
     1c2:	5a 1a       	sub	r5, r26
     1c4:	5a 1a       	sub	r5, r26
     1c6:	5a 1a       	sub	r5, r26
     1c8:	5a 1a       	sub	r5, r26
     1ca:	5a 1a       	sub	r5, r26
     1cc:	f8 19       	sub	r31, r8
     1ce:	5a 1a       	sub	r5, r26
     1d0:	5a 1a       	sub	r5, r26
     1d2:	5a 1a       	sub	r5, r26
     1d4:	5a 1a       	sub	r5, r26
     1d6:	5a 1a       	sub	r5, r26
     1d8:	5a 1a       	sub	r5, r26
     1da:	5a 1a       	sub	r5, r26
     1dc:	1a 1a       	sub	r1, r26
     1de:	5a 1a       	sub	r5, r26
     1e0:	5a 1a       	sub	r5, r26
     1e2:	5a 1a       	sub	r5, r26
     1e4:	5a 1a       	sub	r5, r26
     1e6:	5a 1a       	sub	r5, r26
     1e8:	5a 1a       	sub	r5, r26
     1ea:	5a 1a       	sub	r5, r26
     1ec:	1a 1a       	sub	r1, r26
     1ee:	5a 1a       	sub	r5, r26
     1f0:	5a 1a       	sub	r5, r26
     1f2:	5a 1a       	sub	r5, r26
     1f4:	5a 1a       	sub	r5, r26
     1f6:	5a 1a       	sub	r5, r26
     1f8:	5a 1a       	sub	r5, r26
     1fa:	5a 1a       	sub	r5, r26
     1fc:	30 1a       	sub	r3, r16
     1fe:	5a 1a       	sub	r5, r26
     200:	5a 1a       	sub	r5, r26
     202:	5a 1a       	sub	r5, r26
     204:	5a 1a       	sub	r5, r26
     206:	5a 1a       	sub	r5, r26
     208:	5a 1a       	sub	r5, r26
     20a:	5a 1a       	sub	r5, r26
     20c:	4e 1a       	sub	r4, r30
     20e:	5a 1a       	sub	r5, r26
     210:	5a 1a       	sub	r5, r26
     212:	5a 1a       	sub	r5, r26
     214:	5a 1a       	sub	r5, r26
     216:	5a 1a       	sub	r5, r26
     218:	5a 1a       	sub	r5, r26
     21a:	5a 1a       	sub	r5, r26
     21c:	4e 1a       	sub	r4, r30
     21e:	5a 1a       	sub	r5, r26
     220:	5a 1a       	sub	r5, r26
     222:	5a 1a       	sub	r5, r26
     224:	5a 1a       	sub	r5, r26
     226:	5a 1a       	sub	r5, r26
     228:	5a 1a       	sub	r5, r26
     22a:	5a 1a       	sub	r5, r26
     22c:	5a 1a       	sub	r5, r26
     22e:	5a 1a       	sub	r5, r26
     230:	5a 1a       	sub	r5, r26
     232:	5a 1a       	sub	r5, r26
     234:	5a 1a       	sub	r5, r26
     236:	5a 1a       	sub	r5, r26
     238:	5a 1a       	sub	r5, r26
     23a:	5a 1a       	sub	r5, r26
     23c:	5a 1a       	sub	r5, r26
     23e:	5a 1a       	sub	r5, r26
     240:	5a 1a       	sub	r5, r26
     242:	5a 1a       	sub	r5, r26
     244:	5a 1a       	sub	r5, r26
     246:	5a 1a       	sub	r5, r26
     248:	5a 1a       	sub	r5, r26
     24a:	5a 1a       	sub	r5, r26
     24c:	5a 1a       	sub	r5, r26
     24e:	5a 1a       	sub	r5, r26
     250:	5a 1a       	sub	r5, r26
     252:	5a 1a       	sub	r5, r26
     254:	5a 1a       	sub	r5, r26
     256:	5a 1a       	sub	r5, r26
     258:	5a 1a       	sub	r5, r26
     25a:	5a 1a       	sub	r5, r26
     25c:	5a 1a       	sub	r5, r26
     25e:	5a 1a       	sub	r5, r26
     260:	5a 1a       	sub	r5, r26
     262:	5a 1a       	sub	r5, r26
     264:	5a 1a       	sub	r5, r26
     266:	5a 1a       	sub	r5, r26
     268:	5a 1a       	sub	r5, r26
     26a:	5a 1a       	sub	r5, r26
     26c:	5a 1a       	sub	r5, r26
     26e:	5a 1a       	sub	r5, r26
     270:	5a 1a       	sub	r5, r26
     272:	5a 1a       	sub	r5, r26
     274:	5a 1a       	sub	r5, r26
     276:	5a 1a       	sub	r5, r26
     278:	5a 1a       	sub	r5, r26
     27a:	5a 1a       	sub	r5, r26
     27c:	59 1a       	sub	r5, r25
     27e:	08 21       	and	r16, r8
     280:	0f 21       	and	r16, r15
     282:	0f 21       	and	r16, r15
     284:	0f 21       	and	r16, r15
     286:	0f 21       	and	r16, r15
     288:	0f 21       	and	r16, r15
     28a:	0f 21       	and	r16, r15
     28c:	0f 21       	and	r16, r15
     28e:	0f 21       	and	r16, r15
     290:	0f 21       	and	r16, r15
     292:	0f 21       	and	r16, r15
     294:	63 1e       	adc	r6, r19
     296:	63 1e       	adc	r6, r19
     298:	63 1e       	adc	r6, r19
     29a:	63 1e       	adc	r6, r19
     29c:	63 1e       	adc	r6, r19
     29e:	63 1e       	adc	r6, r19
     2a0:	63 1e       	adc	r6, r19
     2a2:	63 1e       	adc	r6, r19
     2a4:	63 1e       	adc	r6, r19
     2a6:	63 1e       	adc	r6, r19
     2a8:	0f 21       	and	r16, r15
     2aa:	0f 21       	and	r16, r15
     2ac:	0f 21       	and	r16, r15
     2ae:	0f 21       	and	r16, r15
     2b0:	0f 21       	and	r16, r15
     2b2:	0f 21       	and	r16, r15
     2b4:	0f 21       	and	r16, r15
     2b6:	0f 21       	and	r16, r15
     2b8:	0f 21       	and	r16, r15
     2ba:	0f 21       	and	r16, r15
     2bc:	0f 21       	and	r16, r15
     2be:	0f 21       	and	r16, r15
     2c0:	0f 21       	and	r16, r15
     2c2:	0f 21       	and	r16, r15
     2c4:	0f 21       	and	r16, r15
     2c6:	0f 21       	and	r16, r15
     2c8:	0f 21       	and	r16, r15
     2ca:	0f 21       	and	r16, r15
     2cc:	0f 21       	and	r16, r15
     2ce:	0f 21       	and	r16, r15
     2d0:	0f 21       	and	r16, r15
     2d2:	0f 21       	and	r16, r15
     2d4:	0f 21       	and	r16, r15
     2d6:	0f 21       	and	r16, r15
     2d8:	0f 21       	and	r16, r15
     2da:	0f 21       	and	r16, r15
     2dc:	0f 21       	and	r16, r15
     2de:	0f 21       	and	r16, r15
     2e0:	0f 21       	and	r16, r15
     2e2:	0f 21       	and	r16, r15
     2e4:	8e 1f       	adc	r24, r30
     2e6:	0f 21       	and	r16, r15
     2e8:	0f 21       	and	r16, r15
     2ea:	0f 21       	and	r16, r15
     2ec:	0f 21       	and	r16, r15
     2ee:	0f 21       	and	r16, r15
     2f0:	0f 21       	and	r16, r15
     2f2:	0f 21       	and	r16, r15
     2f4:	0f 21       	and	r16, r15
     2f6:	0f 21       	and	r16, r15
     2f8:	0f 21       	and	r16, r15
     2fa:	a8 1e       	adc	r10, r24
     2fc:	be 1e       	adc	r11, r30
     2fe:	0f 21       	and	r16, r15
     300:	0f 21       	and	r16, r15
     302:	0f 21       	and	r16, r15
     304:	0f 21       	and	r16, r15
     306:	be 1e       	adc	r11, r30
     308:	0f 21       	and	r16, r15
     30a:	0f 21       	and	r16, r15
     30c:	0f 21       	and	r16, r15
     30e:	0f 21       	and	r16, r15
     310:	0f 21       	and	r16, r15
     312:	0f 21       	and	r16, r15
     314:	8e 1f       	adc	r24, r30
     316:	0f 21       	and	r16, r15
     318:	0f 21       	and	r16, r15
     31a:	fe 1e       	adc	r15, r30
     31c:	0f 21       	and	r16, r15
     31e:	6c 1f       	adc	r22, r28
     320:	0f 21       	and	r16, r15
     322:	0f 21       	and	r16, r15
     324:	8e 1f       	adc	r24, r30

00000326 <__trampolines_end>:
     326:	6e 61       	ori	r22, 0x1E	; 30
     328:	6e 00       	.word	0x006e	; ????

0000032a <__c.2332>:
     32a:	69 6e 66 00 00 40 7a 10 f3 5a 00 a0 72 4e 18 09     inf..@z..Z..rN..
     33a:	00 10 a5 d4 e8 00 00 e8 76 48 17 00 00 e4 0b 54     ........vH.....T
     34a:	02 00 00 ca 9a 3b 00 00 00 e1 f5 05 00 00 80 96     .....;..........
     35a:	98 00 00 00 40 42 0f 00 00 00 a0 86 01 00 00 00     ....@B..........
     36a:	10 27 00 00 00 00 e8 03 00 00 00 00 64 00 00 00     .'..........d...
     37a:	00 00 0a 00 00 00 00 00 01 00 00 00 00 00 2c 76     ..............,v
     38a:	d8 88 dc 67 4f 08 23 df c1 df ae 59 e1 b1 b7 96     ...gO.#....Y....
     39a:	e5 e3 e4 53 c6 3a e6 51 99 76 96 e8 e6 c2 84 26     ...S.:.Q.v.....&
     3aa:	eb 89 8c 9b 62 ed 40 7c 6f fc ef bc 9c 9f 40 f2     ....b.@|o.....@.
     3ba:	ba a5 6f a5 f4 90 05 5a 2a f7 5c 93 6b 6c f9 67     ..o....Z*.\.kl.g
     3ca:	6d c1 1b fc e0 e4 0d 47 fe f5 20 e6 b5 00 d0 ed     m......G.. .....
     3da:	90 2e 03 00 94 35 77 05 00 80 84 1e 08 00 00 20     .....5w........ 
     3ea:	4e 0a 00 00 00 c8 0c 33 33 33 33 0f 98 6e 12 83     N......3333..n..
     3fa:	11 41 ef 8d 21 14 89 3b e6 55 16 cf fe e6 db 18     .A..!..;.U......
     40a:	d1 84 4b 38 1b f7 7c 1d 90 1d a4 bb e4 24 20 32     ..K8..|......$ 2
     41a:	84 72 5e 22 81 00 c9 f1 24 ec a1 e5 3d 27           .r^"....$...='

00000428 <SPLASH>:
     428:	2e 2e 2e 2e 2e 2e 2e 2e 2e 2e 2e 2e 2e 2e 2e 2e     ................
     438:	2e 2e 2e 2e 2e 2e 2e 2e 2e 2e 2e 2e 2e 2e 2e 2e     ................
     448:	2e 2e 2e 2e 2e 2e 2e 2e 2e 2e 2e 2e 2e 2e 2e 2e     ................
     458:	2e 2e 2e 2e 2e 2e 2e 0d 0a 00 00 00 00 00 00 00     ................
     468:	00 2e 2e 2e 2e 2e 2e 2e 2e 2e 2e 2e 2e 2e 2e 2e     ................
     478:	2e 2e 2e 2e 2e 2e 2e 2e 2e 2e 2e 2e 2e 2e 2e 2e     ................
     488:	2e 2e 2e 2e 2e 2e 2e 2e 2e 2e 2e 2e 2e 2e 2e 2e     ................
     498:	2e 2e 2e 2e 2e 2e 2e 2e 0d 0a 00 00 00 00 00 00     ................
     4a8:	00 00 2e 2e 20 20 20 20 20 20 20 20 20 20 20 20     ....            
     4b8:	20 20 20 20 20 20 20 20 20 20 20 20 20 20 20 20                     
     4c8:	20 20 20 20 20 20 20 20 20 20 20 20 20 20 20 20                     
     4d8:	20 20 20 20 20 20 20 2e 2e 0d 0a 00 00 00 00 00            .........
     4e8:	00 00 00 2e 2e 20 20 20 20 20 20 20 20 20 20 20     .....           
     4f8:	20 20 20 20 20 20 20 20 20 20 20 20 20 20 20 20                     
     508:	20 20 20 20 20 20 20 20 20 20 20 20 20 20 20 20                     
     518:	20 20 20 20 20 20 20 20 2e 2e 0d 0a 00 00 00 00             ........
     528:	00 00 00 00 2e 2e 20 20 20 20 20 20 20 20 20 20     ......          
     538:	20 20 20 20 5f 5f 5f 5f 5f 20 20 20 20 20 20 20         _____       
     548:	20 20 20 20 20 20 20 20 20 20 20 20 20 20 20 20                     
     558:	20 20 20 20 20 20 20 20 20 2e 2e 0d 0a 00 00 00              .......
     568:	00 00 00 00 00 2e 2e 20 20 20 20 20 20 20 20 20     .......         
     578:	20 20 20 20 2f 20 5f 5f 5f 5f 7c 20 20 20 20 20         / ____|     
     588:	20 20 20 20 20 20 20 20 20 20 20 20 20 20 20 20                     
     598:	20 20 20 20 20 20 20 20 20 20 2e 2e 0d 0a 00 00               ......
     5a8:	00 00 00 00 00 00 2e 2e 20 20 20 20 20 20 20 20     ........        
     5b8:	20 20 20 20 7c 20 28 5f 5f 5f 20 20 5f 20 5f 5f         | (___  _ __
     5c8:	20 20 20 5f 5f 20 5f 20 20 5f 5f 5f 20 5f 5f 5f        __ _  ___ ___
     5d8:	20 20 20 20 20 20 20 20 20 20 20 2e 2e 0d 0a 00                .....
     5e8:	00 00 00 00 00 00 00 2e 2e 20 20 20 20 20 20 20     .........       
     5f8:	20 20 20 20 20 20 5c 5f 5f 5f 20 5c 7c 20 27 5f           \___ \| '_
     608:	20 5c 20 2f 20 5f 60 20 7c 2f 20 5f 5f 2f 20 5f      \ / _` |/ __/ _
     618:	20 5c 20 20 20 20 20 20 20 20 20 20 2e 2e 0d 0a      \          ....
	...
     630:	2e 2e 20 20 20 20 20 20 20 20 20 20 20 20 20 5f     ..             _
     640:	5f 5f 5f 29 20 7c 20 7c 5f 29 20 7c 20 28 5f 7c     ___) | |_) | (_|
     650:	20 7c 20 28 5f 7c 20 20 5f 5f 2f 20 20 20 20 20      | (_|  __/     
     660:	20 20 20 20 20 2e 2e 0d 0a 00 00 00 00 00 00 00          ...........
     670:	00 2e 2e 20 20 20 20 20 20 20 20 20 20 20 20 7c     ...            |
     680:	5f 5f 5f 5f 5f 2f 7c 20 2e 5f 5f 2f 20 5c 5f 5f     _____/| .__/ \__
     690:	2c 5f 7c 5c 5f 5f 5f 5c 5f 5f 5f 7c 20 20 20 20     ,_|\___\___|    
     6a0:	20 20 20 20 20 20 2e 2e 0d 0a 00 00 00 00 00 00           ..........
     6b0:	00 00 2e 2e 20 20 20 20 20 20 20 20 20 5f 20 20     ....         _  
     6c0:	20 20 20 20 5f 20 5f 7c 20 7c 20 5f 5f 5f 5f 5f         _ _| | _____
     6d0:	5f 5f 20 20 20 20 20 20 20 20 5f 20 20 20 20 20     __        _     
     6e0:	20 20 20 20 20 20 20 2e 2e 0d 0a 00 00 00 00 00            .........
     6f0:	00 00 00 2e 2e 20 20 20 20 20 20 20 20 7c 20 7c     .....        | |
     700:	20 20 20 20 28 5f 7c 5f 29 5f 7c 7c 5f 5f 20 20         (_|_)_||__  
     710:	20 5f 5f 7c 20 20 20 20 20 20 7c 20 7c 20 20 20      __|      | |   
     720:	20 20 20 20 20 20 20 20 2e 2e 0d 0a 00 00 00 00             ........
     730:	00 00 00 00 2e 2e 20 20 20 20 20 20 20 20 7c 20     ......        | 
     740:	7c 20 20 20 20 20 5f 20 5f 20 5f 20 5f 5f 20 7c     |     _ _ _ __ |
     750:	20 7c 20 5f 5f 5f 20 20 5f 5f 5f 7c 20 7c 5f 5f      | ___  ___| |__
     760:	20 20 20 20 20 20 20 20 20 2e 2e 0d 0a 00 00 00              .......
     770:	00 00 00 00 00 2e 2e 20 20 20 20 20 20 20 20 7c     .......        |
     780:	20 7c 20 20 20 20 7c 20 7c 20 7c 20 27 5f 20 5c      |    | | | '_ \
     790:	7c 20 7c 2f 20 5f 20 5c 2f 20 5f 5f 7c 20 27 5f     | |/ _ \/ __| '_
     7a0:	20 5c 20 20 20 20 20 20 20 20 2e 2e 0d 0a 00 00      \        ......
     7b0:	00 00 00 00 00 00 2e 2e 20 20 20 20 20 20 20 20     ........        
     7c0:	7c 20 7c 5f 5f 5f 5f 7c 20 7c 20 7c 20 7c 20 7c     | |____| | | | |
     7d0:	20 7c 20 7c 20 20 5f 5f 2f 20 28 5f 5f 7c 20 7c      | |  __/ (__| |
     7e0:	20 7c 20 7c 20 20 20 20 20 20 20 2e 2e 0d 0a 00      | |       .....
     7f0:	00 00 00 00 00 00 00 2e 2e 20 20 20 20 20 20 20     .........       
     800:	20 7c 5f 5f 5f 5f 5f 5f 7c 5f 7c 5f 7c 5f 7c 20      |______|_|_|_| 
     810:	7c 5f 7c 5f 7c 5c 5f 5f 5f 7c 5c 5f 5f 5f 7c 5f     |_|_|\___|\___|_
     820:	7c 20 7c 5f 7c 20 20 20 20 20 20 20 2e 2e 0d 0a     | |_|       ....
	...
     838:	2e 2e 20 20 20 20 20 20 20 20 20 20 20 20 20 20     ..              
     848:	20 20 20 20 20 20 20 20 20 20 20 20 20 20 20 20                     
     858:	20 20 20 20 20 20 20 20 20 20 20 20 20 20 20 20                     
     868:	20 20 20 20 20 2e 2e 0d 0a 00 00 00 00 00 00 00          ...........
     878:	00 2e 2e 20 20 20 20 20 20 20 20 20 20 20 20 20     ...             
     888:	20 20 20 20 20 20 20 20 20 20 20 20 20 20 20 20                     
     898:	20 20 20 20 20 20 20 20 20 20 20 20 20 20 20 20                     
     8a8:	20 20 20 20 20 20 2e 2e 0d 0a 00 00 00 00 00 00           ..........
     8b8:	00 00 2e 2e 20 20 20 20 5f 5f 5f 5f 5f 20 5f 5f     ....    _____ __
     8c8:	5f 5f 20 20 5f 20 20 20 20 5f 20 20 5f 5f 20 20     __  _    _  __  
     8d8:	20 20 5f 5f 5f 5f 20 20 20 5f 5f 5f 20 20 20 5f       ____   ___   _
     8e8:	5f 5f 20 20 20 20 20 2e 2e 0d 0a 00 00 00 00 00     __     .........
     8f8:	00 00 00 2e 2e 20 20 20 7c 5f 20 20 20 5f 2f 20     .....   |_   _/ 
     908:	5f 5f 20 5c 7c 20 7c 20 20 7c 20 7c 20 5c 20 5c     __ \| |  | | \ \
     918:	20 20 2f 20 2f 5f 20 7c 20 2f 20 5f 20 5c 20 2f       / /_ | / _ \ /
     928:	20 5f 20 5c 20 20 20 20 2e 2e 0d 0a 00 00 00 00      _ \    ........
     938:	00 00 00 00 2e 2e 20 20 20 20 20 7c 20 7c 7c 20     ......     | || 
     948:	7c 20 20 7c 20 7c 20 7c 20 20 7c 20 7c 20 20 5c     |  | | |  | |  \
     958:	20 5c 2f 20 2f 20 7c 20 7c 7c 20 7c 20 7c 20 7c      \/ / | || | | |
     968:	20 7c 20 7c 20 7c 20 20 20 2e 2e 0d 0a 00 00 00      | | |   .......
     978:	00 00 00 00 00 2e 2e 20 20 20 20 5f 7c 20 7c 7c     .......    _| ||
     988:	20 7c 5f 5f 7c 20 7c 20 7c 5f 5f 7c 20 7c 20 20      |__| | |__| |  
     998:	20 5c 20 20 2f 20 20 7c 20 7c 7c 20 7c 5f 7c 20      \  /  | || |_| 
     9a8:	7c 20 7c 5f 7c 20 7c 20 20 20 2e 2e 0d 0a 00 00     | |_| |   ......
     9b8:	00 00 00 00 00 00 2e 2e 20 20 20 7c 5f 5f 5f 5f     ........   |____
     9c8:	5f 5c 5f 5f 5f 5f 2f 20 5c 5f 5f 5f 5f 2f 20 20     _\____/ \____/  
     9d8:	20 20 20 5c 2f 20 20 20 7c 5f 28 5f 29 5f 5f 5f        \/   |_(_)___
     9e8:	28 5f 29 5f 5f 5f 2f 20 20 20 20 2e 2e 0d 0a 00     (_)___/    .....
     9f8:	00 00 00 00 00 00 00 2e 2e 20 20 20 20 20 20 20     .........       
     a08:	20 20 20 20 20 20 20 20 20 20 20 20 20 20 20 20                     
     a18:	20 20 20 20 20 20 20 20 20 20 20 20 20 20 20 20                     
     a28:	20 20 20 20 20 20 20 20 20 20 20 20 2e 2e 0d 0a                 ....
	...
     a40:	2e 2e 20 20 20 20 20 20 20 20 20 20 20 20 20 20     ..              
     a50:	20 20 20 20 20 20 20 20 20 20 20 20 20 20 20 20                     
     a60:	20 20 20 20 20 20 20 20 20 20 20 20 20 20 20 20                     
     a70:	20 20 20 20 20 2e 2e 0d 0a 00 00 00 00 00 00 00          ...........
     a80:	00 2e 2e 2e 2e 2e 2e 2e 2e 2e 2e 2e 2e 2e 2e 2e     ................
     a90:	2e 2e 2e 2e 2e 2e 2e 2e 2e 2e 2e 2e 2e 2e 2e 2e     ................
     aa0:	2e 2e 2e 2e 2e 2e 2e 2e 2e 2e 2e 2e 2e 2e 2e 2e     ................
     ab0:	2e 2e 2e 2e 2e 2e 2e 2e 0d 0a 00 00 00 00 00 00     ................
     ac0:	00 00 2e 2e 2e 2e 2e 2e 2e 2e 2e 2e 2e 2e 2e 2e     ................
     ad0:	2e 2e 2e 2e 2e 2e 2e 2e 2e 2e 2e 2e 2e 2e 2e 2e     ................
     ae0:	2e 2e 2e 2e 2e 2e 2e 2e 2e 2e 2e 2e 2e 2e 2e 2e     ................
     af0:	2e 2e 2e 2e 2e 2e 2e 2e 2e 0d 0a 00 00 00 00 00     ................
     b00:	00 00 00 0d 0a 00 00 00 00 00 00 00 00 00 00 00     ................
	...

00000b44 <__ctors_end>:
     b44:	11 24       	eor	r1, r1
     b46:	1f be       	out	0x3f, r1	; 63
     b48:	cf ef       	ldi	r28, 0xFF	; 255
     b4a:	d0 e1       	ldi	r29, 0x10	; 16
     b4c:	de bf       	out	0x3e, r29	; 62
     b4e:	cd bf       	out	0x3d, r28	; 61

00000b50 <__do_copy_data>:
     b50:	1b e0       	ldi	r17, 0x0B	; 11
     b52:	a0 e0       	ldi	r26, 0x00	; 0
     b54:	b1 e0       	ldi	r27, 0x01	; 1
     b56:	e0 e7       	ldi	r30, 0x70	; 112
     b58:	fa e6       	ldi	r31, 0x6A	; 106
     b5a:	02 c0       	rjmp	.+4      	; 0xb60 <__do_copy_data+0x10>
     b5c:	05 90       	lpm	r0, Z+
     b5e:	0d 92       	st	X+, r0
     b60:	a2 36       	cpi	r26, 0x62	; 98
     b62:	b1 07       	cpc	r27, r17
     b64:	d9 f7       	brne	.-10     	; 0xb5c <__do_copy_data+0xc>

00000b66 <__do_clear_bss>:
     b66:	2f e0       	ldi	r18, 0x0F	; 15
     b68:	a2 e6       	ldi	r26, 0x62	; 98
     b6a:	bb e0       	ldi	r27, 0x0B	; 11
     b6c:	01 c0       	rjmp	.+2      	; 0xb70 <.do_clear_bss_start>

00000b6e <.do_clear_bss_loop>:
     b6e:	1d 92       	st	X+, r1

00000b70 <.do_clear_bss_start>:
     b70:	a1 35       	cpi	r26, 0x51	; 81
     b72:	b2 07       	cpc	r27, r18
     b74:	e1 f7       	brne	.-8      	; 0xb6e <.do_clear_bss_loop>
     b76:	0e 94 50 12 	call	0x24a0	; 0x24a0 <main>
     b7a:	0c 94 36 35 	jmp	0x6a6c	; 0x6a6c <_exit>

00000b7e <__bad_interrupt>:
     b7e:	0c 94 00 00 	jmp	0	; 0x0 <__vectors>

00000b82 <get_acceleration>:
{
	SCH_TASK_CreateTask(&s_accel_gyro_task_context.taskHandle, &s_accel_gyro_task_context.taskProperty);
}

Accel_Gyro_DataTypedef get_acceleration(void)
{
     b82:	af 92       	push	r10
     b84:	bf 92       	push	r11
     b86:	cf 92       	push	r12
     b88:	df 92       	push	r13
     b8a:	ef 92       	push	r14
     b8c:	ff 92       	push	r15
     b8e:	0f 93       	push	r16
     b90:	1f 93       	push	r17
     b92:	cf 93       	push	r28
     b94:	df 93       	push	r29
     b96:	00 d0       	rcall	.+0      	; 0xb98 <get_acceleration+0x16>
     b98:	00 d0       	rcall	.+0      	; 0xb9a <get_acceleration+0x18>
     b9a:	00 d0       	rcall	.+0      	; 0xb9c <get_acceleration+0x1a>
     b9c:	cd b7       	in	r28, 0x3d	; 61
     b9e:	de b7       	in	r29, 0x3e	; 62
	return (Accel_Gyro_DataTypedef)Accel_Status;
     ba0:	16 e0       	ldi	r17, 0x06	; 6
     ba2:	e2 e6       	ldi	r30, 0x62	; 98
     ba4:	fb e0       	ldi	r31, 0x0B	; 11
     ba6:	de 01       	movw	r26, r28
     ba8:	11 96       	adiw	r26, 0x01	; 1
     baa:	01 90       	ld	r0, Z+
     bac:	0d 92       	st	X+, r0
     bae:	1a 95       	dec	r17
     bb0:	e1 f7       	brne	.-8      	; 0xbaa <get_acceleration+0x28>
     bb2:	00 e0       	ldi	r16, 0x00	; 0
     bb4:	09 81       	ldd	r16, Y+1	; 0x01
     bb6:	10 e0       	ldi	r17, 0x00	; 0
     bb8:	1a 81       	ldd	r17, Y+2	; 0x02
     bba:	b0 e0       	ldi	r27, 0x00	; 0
     bbc:	bb 81       	ldd	r27, Y+3	; 0x03
     bbe:	a0 e0       	ldi	r26, 0x00	; 0
     bc0:	ac 81       	ldd	r26, Y+4	; 0x04
     bc2:	f0 e0       	ldi	r31, 0x00	; 0
     bc4:	fd 81       	ldd	r31, Y+5	; 0x05
     bc6:	e0 e0       	ldi	r30, 0x00	; 0
     bc8:	ee 81       	ldd	r30, Y+6	; 0x06
     bca:	20 2f       	mov	r18, r16
     bcc:	31 2f       	mov	r19, r17
     bce:	4b 2f       	mov	r20, r27
     bd0:	5a 2f       	mov	r21, r26
     bd2:	6f 2f       	mov	r22, r31
     bd4:	7e 2f       	mov	r23, r30
     bd6:	a2 2e       	mov	r10, r18
     bd8:	b3 2e       	mov	r11, r19
     bda:	c4 2e       	mov	r12, r20
     bdc:	d5 2e       	mov	r13, r21
     bde:	e6 2e       	mov	r14, r22
     be0:	f7 2e       	mov	r15, r23
     be2:	08 2f       	mov	r16, r24
     be4:	19 2f       	mov	r17, r25
}
     be6:	2a 2d       	mov	r18, r10
     be8:	3b 2d       	mov	r19, r11
     bea:	4c 2d       	mov	r20, r12
     bec:	5d 2d       	mov	r21, r13
     bee:	6e 2d       	mov	r22, r14
     bf0:	7f 2d       	mov	r23, r15
     bf2:	80 2f       	mov	r24, r16
     bf4:	91 2f       	mov	r25, r17
     bf6:	26 96       	adiw	r28, 0x06	; 6
     bf8:	0f b6       	in	r0, 0x3f	; 63
     bfa:	f8 94       	cli
     bfc:	de bf       	out	0x3e, r29	; 62
     bfe:	0f be       	out	0x3f, r0	; 63
     c00:	cd bf       	out	0x3d, r28	; 61
     c02:	df 91       	pop	r29
     c04:	cf 91       	pop	r28
     c06:	1f 91       	pop	r17
     c08:	0f 91       	pop	r16
     c0a:	ff 90       	pop	r15
     c0c:	ef 90       	pop	r14
     c0e:	df 90       	pop	r13
     c10:	cf 90       	pop	r12
     c12:	bf 90       	pop	r11
     c14:	af 90       	pop	r10
     c16:	08 95       	ret

00000c18 <get_gyroscope>:

Accel_Gyro_DataTypedef get_gyroscope(void)
{
     c18:	af 92       	push	r10
     c1a:	bf 92       	push	r11
     c1c:	cf 92       	push	r12
     c1e:	df 92       	push	r13
     c20:	ef 92       	push	r14
     c22:	ff 92       	push	r15
     c24:	0f 93       	push	r16
     c26:	1f 93       	push	r17
     c28:	cf 93       	push	r28
     c2a:	df 93       	push	r29
     c2c:	00 d0       	rcall	.+0      	; 0xc2e <get_gyroscope+0x16>
     c2e:	00 d0       	rcall	.+0      	; 0xc30 <get_gyroscope+0x18>
     c30:	00 d0       	rcall	.+0      	; 0xc32 <get_gyroscope+0x1a>
     c32:	cd b7       	in	r28, 0x3d	; 61
     c34:	de b7       	in	r29, 0x3e	; 62
	return (Accel_Gyro_DataTypedef)Gyro_Status;
     c36:	16 e0       	ldi	r17, 0x06	; 6
     c38:	e8 e6       	ldi	r30, 0x68	; 104
     c3a:	fb e0       	ldi	r31, 0x0B	; 11
     c3c:	de 01       	movw	r26, r28
     c3e:	11 96       	adiw	r26, 0x01	; 1
     c40:	01 90       	ld	r0, Z+
     c42:	0d 92       	st	X+, r0
     c44:	1a 95       	dec	r17
     c46:	e1 f7       	brne	.-8      	; 0xc40 <get_gyroscope+0x28>
     c48:	00 e0       	ldi	r16, 0x00	; 0
     c4a:	09 81       	ldd	r16, Y+1	; 0x01
     c4c:	10 e0       	ldi	r17, 0x00	; 0
     c4e:	1a 81       	ldd	r17, Y+2	; 0x02
     c50:	b0 e0       	ldi	r27, 0x00	; 0
     c52:	bb 81       	ldd	r27, Y+3	; 0x03
     c54:	a0 e0       	ldi	r26, 0x00	; 0
     c56:	ac 81       	ldd	r26, Y+4	; 0x04
     c58:	f0 e0       	ldi	r31, 0x00	; 0
     c5a:	fd 81       	ldd	r31, Y+5	; 0x05
     c5c:	e0 e0       	ldi	r30, 0x00	; 0
     c5e:	ee 81       	ldd	r30, Y+6	; 0x06
     c60:	20 2f       	mov	r18, r16
     c62:	31 2f       	mov	r19, r17
     c64:	4b 2f       	mov	r20, r27
     c66:	5a 2f       	mov	r21, r26
     c68:	6f 2f       	mov	r22, r31
     c6a:	7e 2f       	mov	r23, r30
     c6c:	a2 2e       	mov	r10, r18
     c6e:	b3 2e       	mov	r11, r19
     c70:	c4 2e       	mov	r12, r20
     c72:	d5 2e       	mov	r13, r21
     c74:	e6 2e       	mov	r14, r22
     c76:	f7 2e       	mov	r15, r23
     c78:	08 2f       	mov	r16, r24
     c7a:	19 2f       	mov	r17, r25
     c7c:	2a 2d       	mov	r18, r10
     c7e:	3b 2d       	mov	r19, r11
     c80:	4c 2d       	mov	r20, r12
     c82:	5d 2d       	mov	r21, r13
     c84:	6e 2d       	mov	r22, r14
     c86:	7f 2d       	mov	r23, r15
     c88:	80 2f       	mov	r24, r16
     c8a:	91 2f       	mov	r25, r17
     c8c:	26 96       	adiw	r28, 0x06	; 6
     c8e:	0f b6       	in	r0, 0x3f	; 63
     c90:	f8 94       	cli
     c92:	de bf       	out	0x3e, r29	; 62
     c94:	0f be       	out	0x3f, r0	; 63
     c96:	cd bf       	out	0x3d, r28	; 61
     c98:	df 91       	pop	r29
     c9a:	cf 91       	pop	r28
     c9c:	1f 91       	pop	r17
     c9e:	0f 91       	pop	r16
     ca0:	ff 90       	pop	r15
     ca2:	ef 90       	pop	r14
     ca4:	df 90       	pop	r13
     ca6:	cf 90       	pop	r12
     ca8:	bf 90       	pop	r11
     caa:	af 90       	pop	r10
     cac:	08 95       	ret

00000cae <CAN_Protocol_Init>:
		CAN_task_update					// taskFunction;
	}
};

void CAN_Protocol_Init(void)
{
     cae:	cf 93       	push	r28
     cb0:	df 93       	push	r29
     cb2:	cd b7       	in	r28, 0x3d	; 61
     cb4:	de b7       	in	r29, 0x3e	; 62
	CAN_Init();
     cb6:	0e 94 57 21 	call	0x42ae	; 0x42ae <CAN_Init>
}
     cba:	00 00       	nop
     cbc:	df 91       	pop	r29
     cbe:	cf 91       	pop	r28
     cc0:	08 95       	ret

00000cc2 <CAN_task_update>:

static void CAN_task_update(void)
{
     cc2:	cf 93       	push	r28
     cc4:	df 93       	push	r29
     cc6:	cd b7       	in	r28, 0x3d	; 61
     cc8:	de b7       	in	r29, 0x3e	; 62
	CANSPI_Receive(&rxMessage);
     cca:	8c e7       	ldi	r24, 0x7C	; 124
     ccc:	9c e0       	ldi	r25, 0x0C	; 12
     cce:	0e 94 10 23 	call	0x4620	; 0x4620 <CANSPI_Receive>
	Control_LED();
     cd2:	0e 94 7d 07 	call	0xefa	; 0xefa <Control_LED>
}
     cd6:	00 00       	nop
     cd8:	df 91       	pop	r29
     cda:	cf 91       	pop	r28
     cdc:	08 95       	ret

00000cde <CAN_create_task>:

void CAN_create_task(void)
{
     cde:	cf 93       	push	r28
     ce0:	df 93       	push	r29
     ce2:	cd b7       	in	r28, 0x3d	; 61
     ce4:	de b7       	in	r29, 0x3e	; 62
	SCH_TASK_CreateTask(&CAN_task_context .taskHandle, &CAN_task_context .taskProperty);
     ce6:	61 e0       	ldi	r22, 0x01	; 1
     ce8:	71 e0       	ldi	r23, 0x01	; 1
     cea:	80 e0       	ldi	r24, 0x00	; 0
     cec:	91 e0       	ldi	r25, 0x01	; 1
     cee:	0e 94 8e 2a 	call	0x551c	; 0x551c <SCH_TASK_CreateTask>
}
     cf2:	00 00       	nop
     cf4:	df 91       	pop	r29
     cf6:	cf 91       	pop	r28
     cf8:	08 95       	ret

00000cfa <CAN_report>:

void	CAN_report(void)
{
     cfa:	cf 93       	push	r28
     cfc:	df 93       	push	r29
     cfe:	cd b7       	in	r28, 0x3d	; 61
     d00:	de b7       	in	r29, 0x3e	; 62
		UARTprintf("%d", rxMessage.frame.data0);
     d02:	80 91 82 0c 	lds	r24, 0x0C82	; 0x800c82 <rxMessage+0x6>
     d06:	88 2f       	mov	r24, r24
     d08:	90 e0       	ldi	r25, 0x00	; 0
     d0a:	29 2f       	mov	r18, r25
     d0c:	2f 93       	push	r18
     d0e:	8f 93       	push	r24
     d10:	87 ee       	ldi	r24, 0xE7	; 231
     d12:	91 e0       	ldi	r25, 0x01	; 1
     d14:	89 2f       	mov	r24, r25
     d16:	8f 93       	push	r24
     d18:	87 ee       	ldi	r24, 0xE7	; 231
     d1a:	91 e0       	ldi	r25, 0x01	; 1
     d1c:	8f 93       	push	r24
     d1e:	0e 94 2c 21 	call	0x4258	; 0x4258 <UARTprintf>
     d22:	0f 90       	pop	r0
     d24:	0f 90       	pop	r0
     d26:	0f 90       	pop	r0
     d28:	0f 90       	pop	r0
		UARTprintf("\r\n");
     d2a:	8a ee       	ldi	r24, 0xEA	; 234
     d2c:	91 e0       	ldi	r25, 0x01	; 1
     d2e:	89 2f       	mov	r24, r25
     d30:	8f 93       	push	r24
     d32:	8a ee       	ldi	r24, 0xEA	; 234
     d34:	91 e0       	ldi	r25, 0x01	; 1
     d36:	8f 93       	push	r24
     d38:	0e 94 2c 21 	call	0x4258	; 0x4258 <UARTprintf>
     d3c:	0f 90       	pop	r0
     d3e:	0f 90       	pop	r0
		UARTprintf("%d", rxMessage.frame.data1);
     d40:	80 91 83 0c 	lds	r24, 0x0C83	; 0x800c83 <rxMessage+0x7>
     d44:	88 2f       	mov	r24, r24
     d46:	90 e0       	ldi	r25, 0x00	; 0
     d48:	29 2f       	mov	r18, r25
     d4a:	2f 93       	push	r18
     d4c:	8f 93       	push	r24
     d4e:	87 ee       	ldi	r24, 0xE7	; 231
     d50:	91 e0       	ldi	r25, 0x01	; 1
     d52:	89 2f       	mov	r24, r25
     d54:	8f 93       	push	r24
     d56:	87 ee       	ldi	r24, 0xE7	; 231
     d58:	91 e0       	ldi	r25, 0x01	; 1
     d5a:	8f 93       	push	r24
     d5c:	0e 94 2c 21 	call	0x4258	; 0x4258 <UARTprintf>
     d60:	0f 90       	pop	r0
     d62:	0f 90       	pop	r0
     d64:	0f 90       	pop	r0
     d66:	0f 90       	pop	r0
		UARTprintf("\r\n");
     d68:	8a ee       	ldi	r24, 0xEA	; 234
     d6a:	91 e0       	ldi	r25, 0x01	; 1
     d6c:	89 2f       	mov	r24, r25
     d6e:	8f 93       	push	r24
     d70:	8a ee       	ldi	r24, 0xEA	; 234
     d72:	91 e0       	ldi	r25, 0x01	; 1
     d74:	8f 93       	push	r24
     d76:	0e 94 2c 21 	call	0x4258	; 0x4258 <UARTprintf>
     d7a:	0f 90       	pop	r0
     d7c:	0f 90       	pop	r0
		UARTprintf("%d", rxMessage.frame.data2);
     d7e:	80 91 84 0c 	lds	r24, 0x0C84	; 0x800c84 <rxMessage+0x8>
     d82:	88 2f       	mov	r24, r24
     d84:	90 e0       	ldi	r25, 0x00	; 0
     d86:	29 2f       	mov	r18, r25
     d88:	2f 93       	push	r18
     d8a:	8f 93       	push	r24
     d8c:	87 ee       	ldi	r24, 0xE7	; 231
     d8e:	91 e0       	ldi	r25, 0x01	; 1
     d90:	89 2f       	mov	r24, r25
     d92:	8f 93       	push	r24
     d94:	87 ee       	ldi	r24, 0xE7	; 231
     d96:	91 e0       	ldi	r25, 0x01	; 1
     d98:	8f 93       	push	r24
     d9a:	0e 94 2c 21 	call	0x4258	; 0x4258 <UARTprintf>
     d9e:	0f 90       	pop	r0
     da0:	0f 90       	pop	r0
     da2:	0f 90       	pop	r0
     da4:	0f 90       	pop	r0
		UARTprintf("\r\n");
     da6:	8a ee       	ldi	r24, 0xEA	; 234
     da8:	91 e0       	ldi	r25, 0x01	; 1
     daa:	89 2f       	mov	r24, r25
     dac:	8f 93       	push	r24
     dae:	8a ee       	ldi	r24, 0xEA	; 234
     db0:	91 e0       	ldi	r25, 0x01	; 1
     db2:	8f 93       	push	r24
     db4:	0e 94 2c 21 	call	0x4258	; 0x4258 <UARTprintf>
     db8:	0f 90       	pop	r0
     dba:	0f 90       	pop	r0
		UARTprintf("%d", rxMessage.frame.data3);
     dbc:	80 91 85 0c 	lds	r24, 0x0C85	; 0x800c85 <rxMessage+0x9>
     dc0:	88 2f       	mov	r24, r24
     dc2:	90 e0       	ldi	r25, 0x00	; 0
     dc4:	29 2f       	mov	r18, r25
     dc6:	2f 93       	push	r18
     dc8:	8f 93       	push	r24
     dca:	87 ee       	ldi	r24, 0xE7	; 231
     dcc:	91 e0       	ldi	r25, 0x01	; 1
     dce:	89 2f       	mov	r24, r25
     dd0:	8f 93       	push	r24
     dd2:	87 ee       	ldi	r24, 0xE7	; 231
     dd4:	91 e0       	ldi	r25, 0x01	; 1
     dd6:	8f 93       	push	r24
     dd8:	0e 94 2c 21 	call	0x4258	; 0x4258 <UARTprintf>
     ddc:	0f 90       	pop	r0
     dde:	0f 90       	pop	r0
     de0:	0f 90       	pop	r0
     de2:	0f 90       	pop	r0
		UARTprintf("\r\n");
     de4:	8a ee       	ldi	r24, 0xEA	; 234
     de6:	91 e0       	ldi	r25, 0x01	; 1
     de8:	89 2f       	mov	r24, r25
     dea:	8f 93       	push	r24
     dec:	8a ee       	ldi	r24, 0xEA	; 234
     dee:	91 e0       	ldi	r25, 0x01	; 1
     df0:	8f 93       	push	r24
     df2:	0e 94 2c 21 	call	0x4258	; 0x4258 <UARTprintf>
     df6:	0f 90       	pop	r0
     df8:	0f 90       	pop	r0
		UARTprintf("%d", rxMessage.frame.data4);
     dfa:	80 91 86 0c 	lds	r24, 0x0C86	; 0x800c86 <rxMessage+0xa>
     dfe:	88 2f       	mov	r24, r24
     e00:	90 e0       	ldi	r25, 0x00	; 0
     e02:	29 2f       	mov	r18, r25
     e04:	2f 93       	push	r18
     e06:	8f 93       	push	r24
     e08:	87 ee       	ldi	r24, 0xE7	; 231
     e0a:	91 e0       	ldi	r25, 0x01	; 1
     e0c:	89 2f       	mov	r24, r25
     e0e:	8f 93       	push	r24
     e10:	87 ee       	ldi	r24, 0xE7	; 231
     e12:	91 e0       	ldi	r25, 0x01	; 1
     e14:	8f 93       	push	r24
     e16:	0e 94 2c 21 	call	0x4258	; 0x4258 <UARTprintf>
     e1a:	0f 90       	pop	r0
     e1c:	0f 90       	pop	r0
     e1e:	0f 90       	pop	r0
     e20:	0f 90       	pop	r0
		UARTprintf("\r\n");
     e22:	8a ee       	ldi	r24, 0xEA	; 234
     e24:	91 e0       	ldi	r25, 0x01	; 1
     e26:	89 2f       	mov	r24, r25
     e28:	8f 93       	push	r24
     e2a:	8a ee       	ldi	r24, 0xEA	; 234
     e2c:	91 e0       	ldi	r25, 0x01	; 1
     e2e:	8f 93       	push	r24
     e30:	0e 94 2c 21 	call	0x4258	; 0x4258 <UARTprintf>
     e34:	0f 90       	pop	r0
     e36:	0f 90       	pop	r0
		UARTprintf("%d", rxMessage.frame.data5);
     e38:	80 91 87 0c 	lds	r24, 0x0C87	; 0x800c87 <rxMessage+0xb>
     e3c:	88 2f       	mov	r24, r24
     e3e:	90 e0       	ldi	r25, 0x00	; 0
     e40:	29 2f       	mov	r18, r25
     e42:	2f 93       	push	r18
     e44:	8f 93       	push	r24
     e46:	87 ee       	ldi	r24, 0xE7	; 231
     e48:	91 e0       	ldi	r25, 0x01	; 1
     e4a:	89 2f       	mov	r24, r25
     e4c:	8f 93       	push	r24
     e4e:	87 ee       	ldi	r24, 0xE7	; 231
     e50:	91 e0       	ldi	r25, 0x01	; 1
     e52:	8f 93       	push	r24
     e54:	0e 94 2c 21 	call	0x4258	; 0x4258 <UARTprintf>
     e58:	0f 90       	pop	r0
     e5a:	0f 90       	pop	r0
     e5c:	0f 90       	pop	r0
     e5e:	0f 90       	pop	r0
		UARTprintf("\r\n");
     e60:	8a ee       	ldi	r24, 0xEA	; 234
     e62:	91 e0       	ldi	r25, 0x01	; 1
     e64:	89 2f       	mov	r24, r25
     e66:	8f 93       	push	r24
     e68:	8a ee       	ldi	r24, 0xEA	; 234
     e6a:	91 e0       	ldi	r25, 0x01	; 1
     e6c:	8f 93       	push	r24
     e6e:	0e 94 2c 21 	call	0x4258	; 0x4258 <UARTprintf>
     e72:	0f 90       	pop	r0
     e74:	0f 90       	pop	r0
		UARTprintf("%d", rxMessage.frame.data6);
     e76:	80 91 88 0c 	lds	r24, 0x0C88	; 0x800c88 <rxMessage+0xc>
     e7a:	88 2f       	mov	r24, r24
     e7c:	90 e0       	ldi	r25, 0x00	; 0
     e7e:	29 2f       	mov	r18, r25
     e80:	2f 93       	push	r18
     e82:	8f 93       	push	r24
     e84:	87 ee       	ldi	r24, 0xE7	; 231
     e86:	91 e0       	ldi	r25, 0x01	; 1
     e88:	89 2f       	mov	r24, r25
     e8a:	8f 93       	push	r24
     e8c:	87 ee       	ldi	r24, 0xE7	; 231
     e8e:	91 e0       	ldi	r25, 0x01	; 1
     e90:	8f 93       	push	r24
     e92:	0e 94 2c 21 	call	0x4258	; 0x4258 <UARTprintf>
     e96:	0f 90       	pop	r0
     e98:	0f 90       	pop	r0
     e9a:	0f 90       	pop	r0
     e9c:	0f 90       	pop	r0
		UARTprintf("\r\n");
     e9e:	8a ee       	ldi	r24, 0xEA	; 234
     ea0:	91 e0       	ldi	r25, 0x01	; 1
     ea2:	89 2f       	mov	r24, r25
     ea4:	8f 93       	push	r24
     ea6:	8a ee       	ldi	r24, 0xEA	; 234
     ea8:	91 e0       	ldi	r25, 0x01	; 1
     eaa:	8f 93       	push	r24
     eac:	0e 94 2c 21 	call	0x4258	; 0x4258 <UARTprintf>
     eb0:	0f 90       	pop	r0
     eb2:	0f 90       	pop	r0
		UARTprintf("%d", rxMessage.frame.data7);
     eb4:	80 91 89 0c 	lds	r24, 0x0C89	; 0x800c89 <rxMessage+0xd>
     eb8:	88 2f       	mov	r24, r24
     eba:	90 e0       	ldi	r25, 0x00	; 0
     ebc:	29 2f       	mov	r18, r25
     ebe:	2f 93       	push	r18
     ec0:	8f 93       	push	r24
     ec2:	87 ee       	ldi	r24, 0xE7	; 231
     ec4:	91 e0       	ldi	r25, 0x01	; 1
     ec6:	89 2f       	mov	r24, r25
     ec8:	8f 93       	push	r24
     eca:	87 ee       	ldi	r24, 0xE7	; 231
     ecc:	91 e0       	ldi	r25, 0x01	; 1
     ece:	8f 93       	push	r24
     ed0:	0e 94 2c 21 	call	0x4258	; 0x4258 <UARTprintf>
     ed4:	0f 90       	pop	r0
     ed6:	0f 90       	pop	r0
     ed8:	0f 90       	pop	r0
     eda:	0f 90       	pop	r0
		UARTprintf("\r\n");
     edc:	8a ee       	ldi	r24, 0xEA	; 234
     ede:	91 e0       	ldi	r25, 0x01	; 1
     ee0:	89 2f       	mov	r24, r25
     ee2:	8f 93       	push	r24
     ee4:	8a ee       	ldi	r24, 0xEA	; 234
     ee6:	91 e0       	ldi	r25, 0x01	; 1
     ee8:	8f 93       	push	r24
     eea:	0e 94 2c 21 	call	0x4258	; 0x4258 <UARTprintf>
     eee:	0f 90       	pop	r0
     ef0:	0f 90       	pop	r0
}
     ef2:	00 00       	nop
     ef4:	df 91       	pop	r29
     ef6:	cf 91       	pop	r28
     ef8:	08 95       	ret

00000efa <Control_LED>:

void Control_LED(void)
{
     efa:	cf 93       	push	r28
     efc:	df 93       	push	r29
     efe:	00 d0       	rcall	.+0      	; 0xf00 <Control_LED+0x6>
     f00:	00 d0       	rcall	.+0      	; 0xf02 <Control_LED+0x8>
     f02:	1f 92       	push	r1
     f04:	cd b7       	in	r28, 0x3d	; 61
     f06:	de b7       	in	r29, 0x3e	; 62
	if(rxMessage.frame.id == 0x005)
     f08:	80 91 7d 0c 	lds	r24, 0x0C7D	; 0x800c7d <rxMessage+0x1>
     f0c:	90 91 7e 0c 	lds	r25, 0x0C7E	; 0x800c7e <rxMessage+0x2>
     f10:	a0 91 7f 0c 	lds	r26, 0x0C7F	; 0x800c7f <rxMessage+0x3>
     f14:	b0 91 80 0c 	lds	r27, 0x0C80	; 0x800c80 <rxMessage+0x4>
     f18:	05 97       	sbiw	r24, 0x05	; 5
     f1a:	a1 05       	cpc	r26, r1
     f1c:	b1 05       	cpc	r27, r1
     f1e:	09 f0       	breq	.+2      	; 0xf22 <Control_LED+0x28>
     f20:	5d c0       	rjmp	.+186    	; 0xfdc <Control_LED+0xe2>
	{
		if(rxMessage.frame.data0 == SET_BRIGHTNESS_CMD)
     f22:	80 91 82 0c 	lds	r24, 0x0C82	; 0x800c82 <rxMessage+0x6>
     f26:	8d 30       	cpi	r24, 0x0D	; 13
     f28:	d1 f4       	brne	.+52     	; 0xf5e <Control_LED+0x64>
		{
			uint8_t duty = rxMessage.frame.data1;
     f2a:	80 91 83 0c 	lds	r24, 0x0C83	; 0x800c83 <rxMessage+0x7>
     f2e:	89 83       	std	Y+1, r24	; 0x01
			IR_led_set_DutyCyclesPercent(duty);
     f30:	89 81       	ldd	r24, Y+1	; 0x01
     f32:	0e 94 e3 10 	call	0x21c6	; 0x21c6 <IR_led_set_DutyCyclesPercent>
			UARTprintf("duty: %d", duty);
     f36:	89 81       	ldd	r24, Y+1	; 0x01
     f38:	88 2f       	mov	r24, r24
     f3a:	90 e0       	ldi	r25, 0x00	; 0
     f3c:	29 2f       	mov	r18, r25
     f3e:	2f 93       	push	r18
     f40:	8f 93       	push	r24
     f42:	8d ee       	ldi	r24, 0xED	; 237
     f44:	91 e0       	ldi	r25, 0x01	; 1
     f46:	89 2f       	mov	r24, r25
     f48:	8f 93       	push	r24
     f4a:	8d ee       	ldi	r24, 0xED	; 237
     f4c:	91 e0       	ldi	r25, 0x01	; 1
     f4e:	8f 93       	push	r24
     f50:	0e 94 2c 21 	call	0x4258	; 0x4258 <UARTprintf>
     f54:	0f 90       	pop	r0
     f56:	0f 90       	pop	r0
     f58:	0f 90       	pop	r0
     f5a:	0f 90       	pop	r0
			uint8_t white = rxMessage.frame.data4;
			ringled_set_RGBW(red, green, blue, white);
			UARTprintf("%d %d %d %d", red, green, blue, white);
		}
	} 
}
     f5c:	3f c0       	rjmp	.+126    	; 0xfdc <Control_LED+0xe2>
		{
			uint8_t duty = rxMessage.frame.data1;
			IR_led_set_DutyCyclesPercent(duty);
			UARTprintf("duty: %d", duty);
		}
		else if(rxMessage.frame.data0 == SET_RGBW_CMD)
     f5e:	80 91 82 0c 	lds	r24, 0x0C82	; 0x800c82 <rxMessage+0x6>
     f62:	8f 30       	cpi	r24, 0x0F	; 15
     f64:	d9 f5       	brne	.+118    	; 0xfdc <Control_LED+0xe2>
		{
			uint8_t red = rxMessage.frame.data1;
     f66:	80 91 83 0c 	lds	r24, 0x0C83	; 0x800c83 <rxMessage+0x7>
     f6a:	8a 83       	std	Y+2, r24	; 0x02
			uint8_t green = rxMessage.frame.data2;
     f6c:	80 91 84 0c 	lds	r24, 0x0C84	; 0x800c84 <rxMessage+0x8>
     f70:	8b 83       	std	Y+3, r24	; 0x03
			uint8_t blue = rxMessage.frame.data3;
     f72:	80 91 85 0c 	lds	r24, 0x0C85	; 0x800c85 <rxMessage+0x9>
     f76:	8c 83       	std	Y+4, r24	; 0x04
			uint8_t white = rxMessage.frame.data4;
     f78:	80 91 86 0c 	lds	r24, 0x0C86	; 0x800c86 <rxMessage+0xa>
     f7c:	8d 83       	std	Y+5, r24	; 0x05
			ringled_set_RGBW(red, green, blue, white);
     f7e:	2d 81       	ldd	r18, Y+5	; 0x05
     f80:	4c 81       	ldd	r20, Y+4	; 0x04
     f82:	6b 81       	ldd	r22, Y+3	; 0x03
     f84:	8a 81       	ldd	r24, Y+2	; 0x02
     f86:	0e 94 e7 28 	call	0x51ce	; 0x51ce <ringled_set_RGBW>
			UARTprintf("%d %d %d %d", red, green, blue, white);
     f8a:	8d 81       	ldd	r24, Y+5	; 0x05
     f8c:	68 2f       	mov	r22, r24
     f8e:	70 e0       	ldi	r23, 0x00	; 0
     f90:	8c 81       	ldd	r24, Y+4	; 0x04
     f92:	48 2f       	mov	r20, r24
     f94:	50 e0       	ldi	r21, 0x00	; 0
     f96:	8b 81       	ldd	r24, Y+3	; 0x03
     f98:	28 2f       	mov	r18, r24
     f9a:	30 e0       	ldi	r19, 0x00	; 0
     f9c:	8a 81       	ldd	r24, Y+2	; 0x02
     f9e:	88 2f       	mov	r24, r24
     fa0:	90 e0       	ldi	r25, 0x00	; 0
     fa2:	e7 2f       	mov	r30, r23
     fa4:	ef 93       	push	r30
     fa6:	6f 93       	push	r22
     fa8:	65 2f       	mov	r22, r21
     faa:	6f 93       	push	r22
     fac:	4f 93       	push	r20
     fae:	43 2f       	mov	r20, r19
     fb0:	4f 93       	push	r20
     fb2:	2f 93       	push	r18
     fb4:	29 2f       	mov	r18, r25
     fb6:	2f 93       	push	r18
     fb8:	8f 93       	push	r24
     fba:	86 ef       	ldi	r24, 0xF6	; 246
     fbc:	91 e0       	ldi	r25, 0x01	; 1
     fbe:	89 2f       	mov	r24, r25
     fc0:	8f 93       	push	r24
     fc2:	86 ef       	ldi	r24, 0xF6	; 246
     fc4:	91 e0       	ldi	r25, 0x01	; 1
     fc6:	8f 93       	push	r24
     fc8:	0e 94 2c 21 	call	0x4258	; 0x4258 <UARTprintf>
     fcc:	8d b7       	in	r24, 0x3d	; 61
     fce:	9e b7       	in	r25, 0x3e	; 62
     fd0:	0a 96       	adiw	r24, 0x0a	; 10
     fd2:	0f b6       	in	r0, 0x3f	; 63
     fd4:	f8 94       	cli
     fd6:	de bf       	out	0x3e, r29	; 62
     fd8:	0f be       	out	0x3f, r0	; 63
     fda:	cd bf       	out	0x3d, r28	; 61
		}
	} 
}
     fdc:	00 00       	nop
     fde:	0f 90       	pop	r0
     fe0:	0f 90       	pop	r0
     fe2:	0f 90       	pop	r0
     fe4:	0f 90       	pop	r0
     fe6:	0f 90       	pop	r0
     fe8:	df 91       	pop	r29
     fea:	cf 91       	pop	r28
     fec:	08 95       	ret

00000fee <CmdLineProcess>:
//! Otherwise it returns the code that was returned by the command function.
//
//*****************************************************************************
uint8_t
CmdLineProcess(char *pcCmdLine)
{
     fee:	cf 93       	push	r28
     ff0:	df 93       	push	r29
     ff2:	cd b7       	in	r28, 0x3d	; 61
     ff4:	de b7       	in	r29, 0x3e	; 62
     ff6:	28 97       	sbiw	r28, 0x08	; 8
     ff8:	0f b6       	in	r0, 0x3f	; 63
     ffa:	f8 94       	cli
     ffc:	de bf       	out	0x3e, r29	; 62
     ffe:	0f be       	out	0x3f, r0	; 63
    1000:	cd bf       	out	0x3d, r28	; 61
    1002:	98 87       	std	Y+8, r25	; 0x08
    1004:	8f 83       	std	Y+7, r24	; 0x07
    char *pcChar;
    uint_fast8_t ui8Argc;
    bool bFindArg = true;
    1006:	81 e0       	ldi	r24, 0x01	; 1
    1008:	8c 83       	std	Y+4, r24	; 0x04

    //
    // Initialize the argument counter, and point to the beginning of the
    // command line string.
    //
    ui8Argc = 0;
    100a:	1b 82       	std	Y+3, r1	; 0x03
    pcChar = pcCmdLine;
    100c:	8f 81       	ldd	r24, Y+7	; 0x07
    100e:	98 85       	ldd	r25, Y+8	; 0x08
    1010:	9a 83       	std	Y+2, r25	; 0x02
    1012:	89 83       	std	Y+1, r24	; 0x01

    //
    // Advance through the command line until a zero character is found.
    //
    while(*pcChar)
    1014:	2b c0       	rjmp	.+86     	; 0x106c <__DATA_REGION_LENGTH__+0x6c>
    {
        //
        // If there is a space, then replace it with a zero, and set the flag
        // to search for the next argument.
        //
        if(*pcChar == ' ')
    1016:	89 81       	ldd	r24, Y+1	; 0x01
    1018:	9a 81       	ldd	r25, Y+2	; 0x02
    101a:	fc 01       	movw	r30, r24
    101c:	80 81       	ld	r24, Z
    101e:	80 32       	cpi	r24, 0x20	; 32
    1020:	39 f4       	brne	.+14     	; 0x1030 <__DATA_REGION_LENGTH__+0x30>
        {
            *pcChar = 0;
    1022:	89 81       	ldd	r24, Y+1	; 0x01
    1024:	9a 81       	ldd	r25, Y+2	; 0x02
    1026:	fc 01       	movw	r30, r24
    1028:	10 82       	st	Z, r1
            bFindArg = true;
    102a:	81 e0       	ldi	r24, 0x01	; 1
    102c:	8c 83       	std	Y+4, r24	; 0x04
    102e:	19 c0       	rjmp	.+50     	; 0x1062 <__DATA_REGION_LENGTH__+0x62>
        {
            //
            // If bFindArg is set, then that means we are looking for the start
            // of the next argument.
            //
            if(bFindArg)
    1030:	8c 81       	ldd	r24, Y+4	; 0x04
    1032:	88 23       	and	r24, r24
    1034:	b1 f0       	breq	.+44     	; 0x1062 <__DATA_REGION_LENGTH__+0x62>
                //
                // As long as the maximum number of arguments has not been
                // reached, then save the pointer to the start of this new arg
                // in the argv array, and increment the count of args, argc.
                //
                if(ui8Argc < CMDLINE_MAX_ARGS)
    1036:	8b 81       	ldd	r24, Y+3	; 0x03
    1038:	88 30       	cpi	r24, 0x08	; 8
    103a:	88 f4       	brcc	.+34     	; 0x105e <__DATA_REGION_LENGTH__+0x5e>
                {
                    g_ppcArgv[ui8Argc] = pcChar;
    103c:	8b 81       	ldd	r24, Y+3	; 0x03
    103e:	88 2f       	mov	r24, r24
    1040:	90 e0       	ldi	r25, 0x00	; 0
    1042:	88 0f       	add	r24, r24
    1044:	99 1f       	adc	r25, r25
    1046:	82 59       	subi	r24, 0x92	; 146
    1048:	94 4f       	sbci	r25, 0xF4	; 244
    104a:	29 81       	ldd	r18, Y+1	; 0x01
    104c:	3a 81       	ldd	r19, Y+2	; 0x02
    104e:	fc 01       	movw	r30, r24
    1050:	31 83       	std	Z+1, r19	; 0x01
    1052:	20 83       	st	Z, r18
                    ui8Argc++;
    1054:	8b 81       	ldd	r24, Y+3	; 0x03
    1056:	8f 5f       	subi	r24, 0xFF	; 255
    1058:	8b 83       	std	Y+3, r24	; 0x03
                    bFindArg = false;
    105a:	1c 82       	std	Y+4, r1	; 0x04
    105c:	02 c0       	rjmp	.+4      	; 0x1062 <__DATA_REGION_LENGTH__+0x62>
                // The maximum number of arguments has been reached so return
                // the error.
                //
                else
                {
                    return(CMDLINE_TOO_MANY_ARGS);
    105e:	82 e0       	ldi	r24, 0x02	; 2
    1060:	3b c0       	rjmp	.+118    	; 0x10d8 <__DATA_REGION_LENGTH__+0xd8>
        }

        //
        // Advance to the next character in the command line.
        //
        pcChar++;
    1062:	89 81       	ldd	r24, Y+1	; 0x01
    1064:	9a 81       	ldd	r25, Y+2	; 0x02
    1066:	01 96       	adiw	r24, 0x01	; 1
    1068:	9a 83       	std	Y+2, r25	; 0x02
    106a:	89 83       	std	Y+1, r24	; 0x01
    pcChar = pcCmdLine;

    //
    // Advance through the command line until a zero character is found.
    //
    while(*pcChar)
    106c:	89 81       	ldd	r24, Y+1	; 0x01
    106e:	9a 81       	ldd	r25, Y+2	; 0x02
    1070:	fc 01       	movw	r30, r24
    1072:	80 81       	ld	r24, Z
    1074:	88 23       	and	r24, r24
    1076:	79 f6       	brne	.-98     	; 0x1016 <__DATA_REGION_LENGTH__+0x16>
    }

    //
    // If one or more arguments was found, then process the command.
    //
    if(ui8Argc)
    1078:	8b 81       	ldd	r24, Y+3	; 0x03
    107a:	88 23       	and	r24, r24
    107c:	61 f1       	breq	.+88     	; 0x10d6 <__DATA_REGION_LENGTH__+0xd6>
    {
        //
        // Start at the beginning of the command table, to look for a matching
        // command.
        //
        psCmdEntry = &g_psCmdTable[0];
    107e:	81 e1       	ldi	r24, 0x11	; 17
    1080:	91 e0       	ldi	r25, 0x01	; 1
    1082:	9e 83       	std	Y+6, r25	; 0x06
    1084:	8d 83       	std	Y+5, r24	; 0x05

        //
        // Search through the command table until a null command string is
        // found, which marks the end of the table.
        //
        while(psCmdEntry->pcCmd)
    1086:	20 c0       	rjmp	.+64     	; 0x10c8 <__DATA_REGION_LENGTH__+0xc8>
            //
            // If this command entry command string matches argv[0], then call
            // the function for this command, passing the command line
            // arguments.
            //
            if(!strcmp(g_ppcArgv[0], psCmdEntry->pcCmd))
    1088:	8d 81       	ldd	r24, Y+5	; 0x05
    108a:	9e 81       	ldd	r25, Y+6	; 0x06
    108c:	fc 01       	movw	r30, r24
    108e:	20 81       	ld	r18, Z
    1090:	31 81       	ldd	r19, Z+1	; 0x01
    1092:	80 91 6e 0b 	lds	r24, 0x0B6E	; 0x800b6e <g_ppcArgv>
    1096:	90 91 6f 0b 	lds	r25, 0x0B6F	; 0x800b6f <g_ppcArgv+0x1>
    109a:	b9 01       	movw	r22, r18
    109c:	0e 94 55 34 	call	0x68aa	; 0x68aa <strcmp>
    10a0:	89 2b       	or	r24, r25
    10a2:	69 f4       	brne	.+26     	; 0x10be <__DATA_REGION_LENGTH__+0xbe>
            {

                return(psCmdEntry->pfnCmd(ui8Argc, g_ppcArgv));
    10a4:	8d 81       	ldd	r24, Y+5	; 0x05
    10a6:	9e 81       	ldd	r25, Y+6	; 0x06
    10a8:	fc 01       	movw	r30, r24
    10aa:	22 81       	ldd	r18, Z+2	; 0x02
    10ac:	33 81       	ldd	r19, Z+3	; 0x03
    10ae:	8b 81       	ldd	r24, Y+3	; 0x03
    10b0:	88 2f       	mov	r24, r24
    10b2:	90 e0       	ldi	r25, 0x00	; 0
    10b4:	6e e6       	ldi	r22, 0x6E	; 110
    10b6:	7b e0       	ldi	r23, 0x0B	; 11
    10b8:	f9 01       	movw	r30, r18
    10ba:	09 95       	icall
    10bc:	0d c0       	rjmp	.+26     	; 0x10d8 <__DATA_REGION_LENGTH__+0xd8>
            }

            //
            // Not found, so advance to the next entry.
            //
            psCmdEntry++;
    10be:	8d 81       	ldd	r24, Y+5	; 0x05
    10c0:	9e 81       	ldd	r25, Y+6	; 0x06
    10c2:	06 96       	adiw	r24, 0x06	; 6
    10c4:	9e 83       	std	Y+6, r25	; 0x06
    10c6:	8d 83       	std	Y+5, r24	; 0x05

        //
        // Search through the command table until a null command string is
        // found, which marks the end of the table.
        //
        while(psCmdEntry->pcCmd)
    10c8:	8d 81       	ldd	r24, Y+5	; 0x05
    10ca:	9e 81       	ldd	r25, Y+6	; 0x06
    10cc:	fc 01       	movw	r30, r24
    10ce:	80 81       	ld	r24, Z
    10d0:	91 81       	ldd	r25, Z+1	; 0x01
    10d2:	89 2b       	or	r24, r25
    10d4:	c9 f6       	brne	.-78     	; 0x1088 <__DATA_REGION_LENGTH__+0x88>

    //
    // Fall through to here means that no matching command was found, so return
    // an error.
    //
    return(CMDLINE_BAD_CMD);
    10d6:	81 e0       	ldi	r24, 0x01	; 1
}
    10d8:	28 96       	adiw	r28, 0x08	; 8
    10da:	0f b6       	in	r0, 0x3f	; 63
    10dc:	f8 94       	cli
    10de:	de bf       	out	0x3e, r29	; 62
    10e0:	0f be       	out	0x3f, r0	; 63
    10e2:	cd bf       	out	0x3d, r28	; 61
    10e4:	df 91       	pop	r29
    10e6:	cf 91       	pop	r28
    10e8:	08 95       	ret

000010ea <command_task_update>:
		command_task_update                // taskFunction;
	}
};

static	void	command_task_update(void)
{
    10ea:	cf 93       	push	r28
    10ec:	df 93       	push	r29
    10ee:	00 d0       	rcall	.+0      	; 0x10f0 <command_task_update+0x6>
    10f0:	cd b7       	in	r28, 0x3d	; 61
    10f2:	de b7       	in	r29, 0x3e	; 62
	char rxData;
	int8_t	ret_val;
	while (! rbuffer_empty(p_CommandRingBuffer))
    10f4:	63 c0       	rjmp	.+198    	; 0x11bc <__stack+0xbd>
	{
		rxData = rbuffer_remove(p_CommandRingBuffer);
    10f6:	80 91 80 0b 	lds	r24, 0x0B80	; 0x800b80 <p_CommandRingBuffer>
    10fa:	90 91 81 0b 	lds	r25, 0x0B81	; 0x800b81 <p_CommandRingBuffer+0x1>
    10fe:	0e 94 3c 1b 	call	0x3678	; 0x3678 <rbuffer_remove>
    1102:	89 83       	std	Y+1, r24	; 0x01
		usart0_send_char(rxData);
    1104:	89 81       	ldd	r24, Y+1	; 0x01
    1106:	0e 94 c6 1b 	call	0x378c	; 0x378c <usart0_send_char>
		if ((rxData == '\r') || (rxData == '\n'))		//got a return or new line
    110a:	89 81       	ldd	r24, Y+1	; 0x01
    110c:	8d 30       	cpi	r24, 0x0D	; 13
    110e:	19 f0       	breq	.+6      	; 0x1116 <__stack+0x17>
    1110:	89 81       	ldd	r24, Y+1	; 0x01
    1112:	8a 30       	cpi	r24, 0x0A	; 10
    1114:	79 f5       	brne	.+94     	; 0x1174 <__stack+0x75>
		{
			if (s_commandBufferIndex > 0)		//if we got the CR or LF at the begining, discard	
    1116:	80 91 c2 0b 	lds	r24, 0x0BC2	; 0x800bc2 <s_commandBufferIndex>
    111a:	88 23       	and	r24, r24
    111c:	31 f1       	breq	.+76     	; 0x116a <__stack+0x6b>
			{
				s_commandBuffer[s_commandBufferIndex] = 0;
    111e:	80 91 c2 0b 	lds	r24, 0x0BC2	; 0x800bc2 <s_commandBufferIndex>
    1122:	88 2f       	mov	r24, r24
    1124:	90 e0       	ldi	r25, 0x00	; 0
    1126:	8e 57       	subi	r24, 0x7E	; 126
    1128:	94 4f       	sbci	r25, 0xF4	; 244
    112a:	fc 01       	movw	r30, r24
    112c:	10 82       	st	Z, r1
				s_commandBufferIndex++;
    112e:	80 91 c2 0b 	lds	r24, 0x0BC2	; 0x800bc2 <s_commandBufferIndex>
    1132:	8f 5f       	subi	r24, 0xFF	; 255
    1134:	80 93 c2 0b 	sts	0x0BC2, r24	; 0x800bc2 <s_commandBufferIndex>
				ret_val = CmdLineProcess(s_commandBuffer);		
    1138:	82 e8       	ldi	r24, 0x82	; 130
    113a:	9b e0       	ldi	r25, 0x0B	; 11
    113c:	0e 94 f7 07 	call	0xfee	; 0xfee <CmdLineProcess>
    1140:	8a 83       	std	Y+2, r24	; 0x02
				s_commandBufferIndex = 0;		
    1142:	10 92 c2 0b 	sts	0x0BC2, r1	; 0x800bc2 <s_commandBufferIndex>
				usart0_send_string(ErrorCode[ret_val]);
    1146:	8a 81       	ldd	r24, Y+2	; 0x02
    1148:	08 2e       	mov	r0, r24
    114a:	00 0c       	add	r0, r0
    114c:	99 0b       	sbc	r25, r25
    114e:	88 0f       	add	r24, r24
    1150:	99 1f       	adc	r25, r25
    1152:	89 5f       	subi	r24, 0xF9	; 249
    1154:	9e 4f       	sbci	r25, 0xFE	; 254
    1156:	fc 01       	movw	r30, r24
    1158:	80 81       	ld	r24, Z
    115a:	91 81       	ldd	r25, Z+1	; 0x01
    115c:	0e 94 ef 1b 	call	0x37de	; 0x37de <usart0_send_string>
				usart0_send_string("> ");
    1160:	82 ea       	ldi	r24, 0xA2	; 162
    1162:	98 e0       	ldi	r25, 0x08	; 8
    1164:	0e 94 ef 1b 	call	0x37de	; 0x37de <usart0_send_string>
    1168:	29 c0       	rjmp	.+82     	; 0x11bc <__stack+0xbd>
			}	
			else usart0_send_string("\r\n> ");
    116a:	85 ea       	ldi	r24, 0xA5	; 165
    116c:	98 e0       	ldi	r25, 0x08	; 8
    116e:	0e 94 ef 1b 	call	0x37de	; 0x37de <usart0_send_string>
	{
		rxData = rbuffer_remove(p_CommandRingBuffer);
		usart0_send_char(rxData);
		if ((rxData == '\r') || (rxData == '\n'))		//got a return or new line
		{
			if (s_commandBufferIndex > 0)		//if we got the CR or LF at the begining, discard	
    1172:	24 c0       	rjmp	.+72     	; 0x11bc <__stack+0xbd>
				usart0_send_string(ErrorCode[ret_val]);
				usart0_send_string("> ");
			}	
			else usart0_send_string("\r\n> ");
		}
		else if ((rxData == 8) || (rxData == 127))	
    1174:	89 81       	ldd	r24, Y+1	; 0x01
    1176:	88 30       	cpi	r24, 0x08	; 8
    1178:	19 f0       	breq	.+6      	; 0x1180 <__stack+0x81>
    117a:	89 81       	ldd	r24, Y+1	; 0x01
    117c:	8f 37       	cpi	r24, 0x7F	; 127
    117e:	51 f4       	brne	.+20     	; 0x1194 <__stack+0x95>
		{
			if (s_commandBufferIndex > 0) s_commandBufferIndex--;
    1180:	80 91 c2 0b 	lds	r24, 0x0BC2	; 0x800bc2 <s_commandBufferIndex>
    1184:	88 23       	and	r24, r24
    1186:	d1 f0       	breq	.+52     	; 0x11bc <__stack+0xbd>
    1188:	80 91 c2 0b 	lds	r24, 0x0BC2	; 0x800bc2 <s_commandBufferIndex>
    118c:	81 50       	subi	r24, 0x01	; 1
    118e:	80 93 c2 0b 	sts	0x0BC2, r24	; 0x800bc2 <s_commandBufferIndex>
    1192:	14 c0       	rjmp	.+40     	; 0x11bc <__stack+0xbd>
		}
		else
		{
			s_commandBuffer[s_commandBufferIndex] = rxData;
    1194:	80 91 c2 0b 	lds	r24, 0x0BC2	; 0x800bc2 <s_commandBufferIndex>
    1198:	88 2f       	mov	r24, r24
    119a:	90 e0       	ldi	r25, 0x00	; 0
    119c:	8e 57       	subi	r24, 0x7E	; 126
    119e:	94 4f       	sbci	r25, 0xF4	; 244
    11a0:	29 81       	ldd	r18, Y+1	; 0x01
    11a2:	fc 01       	movw	r30, r24
    11a4:	20 83       	st	Z, r18
			s_commandBufferIndex ++;
    11a6:	80 91 c2 0b 	lds	r24, 0x0BC2	; 0x800bc2 <s_commandBufferIndex>
    11aa:	8f 5f       	subi	r24, 0xFF	; 255
    11ac:	80 93 c2 0b 	sts	0x0BC2, r24	; 0x800bc2 <s_commandBufferIndex>
			if (s_commandBufferIndex > COMMAND_MAX_LENGTH) s_commandBufferIndex= 0;
    11b0:	80 91 c2 0b 	lds	r24, 0x0BC2	; 0x800bc2 <s_commandBufferIndex>
    11b4:	81 34       	cpi	r24, 0x41	; 65
    11b6:	10 f0       	brcs	.+4      	; 0x11bc <__stack+0xbd>
    11b8:	10 92 c2 0b 	sts	0x0BC2, r1	; 0x800bc2 <s_commandBufferIndex>

static	void	command_task_update(void)
{
	char rxData;
	int8_t	ret_val;
	while (! rbuffer_empty(p_CommandRingBuffer))
    11bc:	80 91 80 0b 	lds	r24, 0x0B80	; 0x800b80 <p_CommandRingBuffer>
    11c0:	90 91 81 0b 	lds	r25, 0x0B81	; 0x800b81 <p_CommandRingBuffer+0x1>
    11c4:	0e 94 d6 1a 	call	0x35ac	; 0x35ac <rbuffer_empty>
    11c8:	98 2f       	mov	r25, r24
    11ca:	81 e0       	ldi	r24, 0x01	; 1
    11cc:	89 27       	eor	r24, r25
    11ce:	88 23       	and	r24, r24
    11d0:	09 f0       	breq	.+2      	; 0x11d4 <__stack+0xd5>
    11d2:	91 cf       	rjmp	.-222    	; 0x10f6 <command_task_update+0xc>
			s_commandBuffer[s_commandBufferIndex] = rxData;
			s_commandBufferIndex ++;
			if (s_commandBufferIndex > COMMAND_MAX_LENGTH) s_commandBufferIndex= 0;
		}
	}	
}
    11d4:	00 00       	nop
    11d6:	0f 90       	pop	r0
    11d8:	0f 90       	pop	r0
    11da:	df 91       	pop	r29
    11dc:	cf 91       	pop	r28
    11de:	08 95       	ret

000011e0 <command_init>:

void	command_init(void)
{
    11e0:	cf 93       	push	r28
    11e2:	df 93       	push	r29
    11e4:	cd b7       	in	r28, 0x3d	; 61
    11e6:	de b7       	in	r29, 0x3e	; 62
	usart0_init();
    11e8:	0e 94 8b 1b 	call	0x3716	; 0x3716 <usart0_init>
	p_CommandRingBuffer = uart_get_uart0_rx_buffer_address();
    11ec:	0e 94 5d 1c 	call	0x38ba	; 0x38ba <uart_get_uart0_rx_buffer_address>
    11f0:	90 93 81 0b 	sts	0x0B81, r25	; 0x800b81 <p_CommandRingBuffer+0x1>
    11f4:	80 93 80 0b 	sts	0x0B80, r24	; 0x800b80 <p_CommandRingBuffer>
	memset((void *)s_commandBuffer, 0, sizeof(s_commandBuffer));
    11f8:	40 e4       	ldi	r20, 0x40	; 64
    11fa:	50 e0       	ldi	r21, 0x00	; 0
    11fc:	60 e0       	ldi	r22, 0x00	; 0
    11fe:	70 e0       	ldi	r23, 0x00	; 0
    1200:	82 e8       	ldi	r24, 0x82	; 130
    1202:	9b e0       	ldi	r25, 0x0B	; 11
    1204:	0e 94 4e 34 	call	0x689c	; 0x689c <memset>
	s_commandBufferIndex = 0;
    1208:	10 92 c2 0b 	sts	0x0BC2, r1	; 0x800bc2 <s_commandBufferIndex>
	usart0_send_string("IOU FIRMWARE V1.0.0 \r\n");
    120c:	8a ea       	ldi	r24, 0xAA	; 170
    120e:	98 e0       	ldi	r25, 0x08	; 8
    1210:	0e 94 ef 1b 	call	0x37de	; 0x37de <usart0_send_string>
	usart0_send_string("> ");
    1214:	82 ea       	ldi	r24, 0xA2	; 162
    1216:	98 e0       	ldi	r25, 0x08	; 8
    1218:	0e 94 ef 1b 	call	0x37de	; 0x37de <usart0_send_string>
	command_send_splash();
    121c:	0e 94 c0 10 	call	0x2180	; 0x2180 <command_send_splash>
}
    1220:	00 00       	nop
    1222:	df 91       	pop	r29
    1224:	cf 91       	pop	r28
    1226:	08 95       	ret

00001228 <command_create_task>:

void	command_create_task(void)
{
    1228:	cf 93       	push	r28
    122a:	df 93       	push	r29
    122c:	cd b7       	in	r28, 0x3d	; 61
    122e:	de b7       	in	r29, 0x3e	; 62
	SCH_TASK_CreateTask(&s_CommandTaskContext.taskHandle, &s_CommandTaskContext.taskProperty);
    1230:	6c e9       	ldi	r22, 0x9C	; 156
    1232:	71 e0       	ldi	r23, 0x01	; 1
    1234:	8b e9       	ldi	r24, 0x9B	; 155
    1236:	91 e0       	ldi	r25, 0x01	; 1
    1238:	0e 94 8e 2a 	call	0x551c	; 0x551c <SCH_TASK_CreateTask>
}
    123c:	00 00       	nop
    123e:	df 91       	pop	r29
    1240:	cf 91       	pop	r28
    1242:	08 95       	ret

00001244 <Cmd_help>:

int Cmd_help(int argc, char *argv[]) {
    1244:	cf 93       	push	r28
    1246:	df 93       	push	r29
    1248:	00 d0       	rcall	.+0      	; 0x124a <Cmd_help+0x6>
    124a:	00 d0       	rcall	.+0      	; 0x124c <Cmd_help+0x8>
    124c:	00 d0       	rcall	.+0      	; 0x124e <Cmd_help+0xa>
    124e:	cd b7       	in	r28, 0x3d	; 61
    1250:	de b7       	in	r29, 0x3e	; 62
    1252:	9c 83       	std	Y+4, r25	; 0x04
    1254:	8b 83       	std	Y+3, r24	; 0x03
    1256:	7e 83       	std	Y+6, r23	; 0x06
    1258:	6d 83       	std	Y+5, r22	; 0x05
	tCmdLineEntry *pEntry;

	usart0_send_string("\nAvailable commands\r\n");
    125a:	81 ec       	ldi	r24, 0xC1	; 193
    125c:	98 e0       	ldi	r25, 0x08	; 8
    125e:	0e 94 ef 1b 	call	0x37de	; 0x37de <usart0_send_string>
	usart0_send_string("------------------\r\n");
    1262:	87 ed       	ldi	r24, 0xD7	; 215
    1264:	98 e0       	ldi	r25, 0x08	; 8
    1266:	0e 94 ef 1b 	call	0x37de	; 0x37de <usart0_send_string>

	// Point at the beginning of the command table.
	pEntry = &g_psCmdTable[0];
    126a:	81 e1       	ldi	r24, 0x11	; 17
    126c:	91 e0       	ldi	r25, 0x01	; 1
    126e:	9a 83       	std	Y+2, r25	; 0x02
    1270:	89 83       	std	Y+1, r24	; 0x01

	// Enter a loop to read each entry from the command table.  The
	// end of the table has been reached when the command name is NULL.
	while (pEntry->pcCmd) {
    1272:	17 c0       	rjmp	.+46     	; 0x12a2 <Cmd_help+0x5e>
		// Print the command name and the brief description.
		usart0_send_string(pEntry->pcCmd);
    1274:	89 81       	ldd	r24, Y+1	; 0x01
    1276:	9a 81       	ldd	r25, Y+2	; 0x02
    1278:	fc 01       	movw	r30, r24
    127a:	80 81       	ld	r24, Z
    127c:	91 81       	ldd	r25, Z+1	; 0x01
    127e:	0e 94 ef 1b 	call	0x37de	; 0x37de <usart0_send_string>
		usart0_send_string(pEntry->pcHelp);
    1282:	89 81       	ldd	r24, Y+1	; 0x01
    1284:	9a 81       	ldd	r25, Y+2	; 0x02
    1286:	fc 01       	movw	r30, r24
    1288:	84 81       	ldd	r24, Z+4	; 0x04
    128a:	95 81       	ldd	r25, Z+5	; 0x05
    128c:	0e 94 ef 1b 	call	0x37de	; 0x37de <usart0_send_string>
		usart0_send_string("\r\n");
    1290:	8c ee       	ldi	r24, 0xEC	; 236
    1292:	98 e0       	ldi	r25, 0x08	; 8
    1294:	0e 94 ef 1b 	call	0x37de	; 0x37de <usart0_send_string>

		// Advance to the next entry in the table.
		pEntry++;
    1298:	89 81       	ldd	r24, Y+1	; 0x01
    129a:	9a 81       	ldd	r25, Y+2	; 0x02
    129c:	06 96       	adiw	r24, 0x06	; 6
    129e:	9a 83       	std	Y+2, r25	; 0x02
    12a0:	89 83       	std	Y+1, r24	; 0x01
	// Point at the beginning of the command table.
	pEntry = &g_psCmdTable[0];

	// Enter a loop to read each entry from the command table.  The
	// end of the table has been reached when the command name is NULL.
	while (pEntry->pcCmd) {
    12a2:	89 81       	ldd	r24, Y+1	; 0x01
    12a4:	9a 81       	ldd	r25, Y+2	; 0x02
    12a6:	fc 01       	movw	r30, r24
    12a8:	80 81       	ld	r24, Z
    12aa:	91 81       	ldd	r25, Z+1	; 0x01
    12ac:	89 2b       	or	r24, r25
    12ae:	11 f7       	brne	.-60     	; 0x1274 <Cmd_help+0x30>
		// Advance to the next entry in the table.
		pEntry++;

	}
	// Return success.
	return (CMDLINE_OK);
    12b0:	80 e0       	ldi	r24, 0x00	; 0
    12b2:	90 e0       	ldi	r25, 0x00	; 0
}
    12b4:	26 96       	adiw	r28, 0x06	; 6
    12b6:	0f b6       	in	r0, 0x3f	; 63
    12b8:	f8 94       	cli
    12ba:	de bf       	out	0x3e, r29	; 62
    12bc:	0f be       	out	0x3f, r0	; 63
    12be:	cd bf       	out	0x3d, r28	; 61
    12c0:	df 91       	pop	r29
    12c2:	cf 91       	pop	r28
    12c4:	08 95       	ret

000012c6 <Cmd_set_temp>:
// Format: set_temp channel value
//
//*****************************************************************************
int
Cmd_set_temp(int argc, char *argv[]) 
{
    12c6:	cf 93       	push	r28
    12c8:	df 93       	push	r29
    12ca:	cd b7       	in	r28, 0x3d	; 61
    12cc:	de b7       	in	r29, 0x3e	; 62
    12ce:	27 97       	sbiw	r28, 0x07	; 7
    12d0:	0f b6       	in	r0, 0x3f	; 63
    12d2:	f8 94       	cli
    12d4:	de bf       	out	0x3e, r29	; 62
    12d6:	0f be       	out	0x3f, r0	; 63
    12d8:	cd bf       	out	0x3d, r28	; 61
    12da:	9d 83       	std	Y+5, r25	; 0x05
    12dc:	8c 83       	std	Y+4, r24	; 0x04
    12de:	7f 83       	std	Y+7, r23	; 0x07
    12e0:	6e 83       	std	Y+6, r22	; 0x06
	if (argc < 3) return CMDLINE_TOO_FEW_ARGS;
    12e2:	8c 81       	ldd	r24, Y+4	; 0x04
    12e4:	9d 81       	ldd	r25, Y+5	; 0x05
    12e6:	03 97       	sbiw	r24, 0x03	; 3
    12e8:	1c f4       	brge	.+6      	; 0x12f0 <Cmd_set_temp+0x2a>
    12ea:	83 e0       	ldi	r24, 0x03	; 3
    12ec:	90 e0       	ldi	r25, 0x00	; 0
    12ee:	40 c0       	rjmp	.+128    	; 0x1370 <Cmd_set_temp+0xaa>
	if (argc >3) return CMDLINE_TOO_MANY_ARGS;
    12f0:	8c 81       	ldd	r24, Y+4	; 0x04
    12f2:	9d 81       	ldd	r25, Y+5	; 0x05
    12f4:	04 97       	sbiw	r24, 0x04	; 4
    12f6:	1c f0       	brlt	.+6      	; 0x12fe <Cmd_set_temp+0x38>
    12f8:	82 e0       	ldi	r24, 0x02	; 2
    12fa:	90 e0       	ldi	r25, 0x00	; 0
    12fc:	39 c0       	rjmp	.+114    	; 0x1370 <Cmd_set_temp+0xaa>
	//if (argv[1] > "3" || argv[1] < "0") return CMDLINE_INVALID_ARG;
	uint8_t channel = atoi(argv[1]);
    12fe:	8e 81       	ldd	r24, Y+6	; 0x06
    1300:	9f 81       	ldd	r25, Y+7	; 0x07
    1302:	02 96       	adiw	r24, 0x02	; 2
    1304:	fc 01       	movw	r30, r24
    1306:	80 81       	ld	r24, Z
    1308:	91 81       	ldd	r25, Z+1	; 0x01
    130a:	0e 94 4d 33 	call	0x669a	; 0x669a <atoi>
    130e:	89 83       	std	Y+1, r24	; 0x01
	if (channel > 3 || channel < 0) return CMDLINE_INVALID_ARG;
    1310:	89 81       	ldd	r24, Y+1	; 0x01
    1312:	84 30       	cpi	r24, 0x04	; 4
    1314:	18 f0       	brcs	.+6      	; 0x131c <Cmd_set_temp+0x56>
    1316:	84 e0       	ldi	r24, 0x04	; 4
    1318:	90 e0       	ldi	r25, 0x00	; 0
    131a:	2a c0       	rjmp	.+84     	; 0x1370 <Cmd_set_temp+0xaa>
	uint16_t setpoint = atoi(argv[2]);
    131c:	8e 81       	ldd	r24, Y+6	; 0x06
    131e:	9f 81       	ldd	r25, Y+7	; 0x07
    1320:	04 96       	adiw	r24, 0x04	; 4
    1322:	fc 01       	movw	r30, r24
    1324:	80 81       	ld	r24, Z
    1326:	91 81       	ldd	r25, Z+1	; 0x01
    1328:	0e 94 4d 33 	call	0x669a	; 0x669a <atoi>
    132c:	9b 83       	std	Y+3, r25	; 0x03
    132e:	8a 83       	std	Y+2, r24	; 0x02
	temperature_set_point(setpoint, channel);
    1330:	8a 81       	ldd	r24, Y+2	; 0x02
    1332:	9b 81       	ldd	r25, Y+3	; 0x03
    1334:	69 81       	ldd	r22, Y+1	; 0x01
    1336:	0e 94 74 12 	call	0x24e8	; 0x24e8 <temperature_set_point>
	UARTprintf("Channel %d set point: %d \r\n",channel, setpoint);
    133a:	89 81       	ldd	r24, Y+1	; 0x01
    133c:	88 2f       	mov	r24, r24
    133e:	90 e0       	ldi	r25, 0x00	; 0
    1340:	2b 81       	ldd	r18, Y+3	; 0x03
    1342:	2f 93       	push	r18
    1344:	2a 81       	ldd	r18, Y+2	; 0x02
    1346:	2f 93       	push	r18
    1348:	29 2f       	mov	r18, r25
    134a:	2f 93       	push	r18
    134c:	8f 93       	push	r24
    134e:	8f ee       	ldi	r24, 0xEF	; 239
    1350:	98 e0       	ldi	r25, 0x08	; 8
    1352:	89 2f       	mov	r24, r25
    1354:	8f 93       	push	r24
    1356:	8f ee       	ldi	r24, 0xEF	; 239
    1358:	98 e0       	ldi	r25, 0x08	; 8
    135a:	8f 93       	push	r24
    135c:	0e 94 2c 21 	call	0x4258	; 0x4258 <UARTprintf>
    1360:	0f 90       	pop	r0
    1362:	0f 90       	pop	r0
    1364:	0f 90       	pop	r0
    1366:	0f 90       	pop	r0
    1368:	0f 90       	pop	r0
    136a:	0f 90       	pop	r0
	return CMDLINE_OK;
    136c:	80 e0       	ldi	r24, 0x00	; 0
    136e:	90 e0       	ldi	r25, 0x00	; 0
}
    1370:	27 96       	adiw	r28, 0x07	; 7
    1372:	0f b6       	in	r0, 0x3f	; 63
    1374:	f8 94       	cli
    1376:	de bf       	out	0x3e, r29	; 62
    1378:	0f be       	out	0x3f, r0	; 63
    137a:	cd bf       	out	0x3d, r28	; 61
    137c:	df 91       	pop	r29
    137e:	cf 91       	pop	r28
    1380:	08 95       	ret

00001382 <Cmd_get_temp>:
// Get the temperature from NTC / onewire / bmp390
//
//*****************************************************************************
int
Cmd_get_temp(int argc, char *argv[])
{
    1382:	cf 93       	push	r28
    1384:	df 93       	push	r29
    1386:	cd b7       	in	r28, 0x3d	; 61
    1388:	de b7       	in	r29, 0x3e	; 62
    138a:	e2 97       	sbiw	r28, 0x32	; 50
    138c:	0f b6       	in	r0, 0x3f	; 63
    138e:	f8 94       	cli
    1390:	de bf       	out	0x3e, r29	; 62
    1392:	0f be       	out	0x3f, r0	; 63
    1394:	cd bf       	out	0x3d, r28	; 61
    1396:	98 ab       	std	Y+48, r25	; 0x30
    1398:	8f a7       	std	Y+47, r24	; 0x2f
    139a:	7a ab       	std	Y+50, r23	; 0x32
    139c:	69 ab       	std	Y+49, r22	; 0x31
	if (!strcmp(argv[1], "bmp390"))
    139e:	89 a9       	ldd	r24, Y+49	; 0x31
    13a0:	9a a9       	ldd	r25, Y+50	; 0x32
    13a2:	02 96       	adiw	r24, 0x02	; 2
    13a4:	fc 01       	movw	r30, r24
    13a6:	80 81       	ld	r24, Z
    13a8:	91 81       	ldd	r25, Z+1	; 0x01
    13aa:	6b e0       	ldi	r22, 0x0B	; 11
    13ac:	79 e0       	ldi	r23, 0x09	; 9
    13ae:	0e 94 55 34 	call	0x68aa	; 0x68aa <strcmp>
    13b2:	89 2b       	or	r24, r25
    13b4:	29 f5       	brne	.+74     	; 0x1400 <Cmd_get_temp+0x7e>
	{
		if (argc >2) return CMDLINE_TOO_MANY_ARGS;
    13b6:	8f a5       	ldd	r24, Y+47	; 0x2f
    13b8:	98 a9       	ldd	r25, Y+48	; 0x30
    13ba:	03 97       	sbiw	r24, 0x03	; 3
    13bc:	1c f0       	brlt	.+6      	; 0x13c4 <Cmd_get_temp+0x42>
    13be:	82 e0       	ldi	r24, 0x02	; 2
    13c0:	90 e0       	ldi	r25, 0x00	; 0
    13c2:	b4 c0       	rjmp	.+360    	; 0x152c <Cmd_get_temp+0x1aa>
		char buffer[5];
		sprintf(buffer, "Temp of BMP490: %i", temperature_get_bmp390());
    13c4:	0e 94 ba 12 	call	0x2574	; 0x2574 <temperature_get_bmp390>
    13c8:	29 2f       	mov	r18, r25
    13ca:	2f 93       	push	r18
    13cc:	8f 93       	push	r24
    13ce:	82 e1       	ldi	r24, 0x12	; 18
    13d0:	99 e0       	ldi	r25, 0x09	; 9
    13d2:	89 2f       	mov	r24, r25
    13d4:	8f 93       	push	r24
    13d6:	82 e1       	ldi	r24, 0x12	; 18
    13d8:	99 e0       	ldi	r25, 0x09	; 9
    13da:	8f 93       	push	r24
    13dc:	ce 01       	movw	r24, r28
    13de:	02 96       	adiw	r24, 0x02	; 2
    13e0:	29 2f       	mov	r18, r25
    13e2:	2f 93       	push	r18
    13e4:	8f 93       	push	r24
    13e6:	0e 94 b6 34 	call	0x696c	; 0x696c <sprintf>
    13ea:	0f 90       	pop	r0
    13ec:	0f 90       	pop	r0
    13ee:	0f 90       	pop	r0
    13f0:	0f 90       	pop	r0
    13f2:	0f 90       	pop	r0
    13f4:	0f 90       	pop	r0
		usart0_send_string(buffer);
    13f6:	ce 01       	movw	r24, r28
    13f8:	02 96       	adiw	r24, 0x02	; 2
    13fa:	0e 94 ef 1b 	call	0x37de	; 0x37de <usart0_send_string>
			usart0_send_array(buffer, strlen(buffer));
		}
		else return CMDLINE_INVALID_ARG;
		return CMDLINE_OK;
	}
}
    13fe:	96 c0       	rjmp	.+300    	; 0x152c <Cmd_get_temp+0x1aa>
		usart0_send_string(buffer);
		//UARTprintf("Temp of BMP490: %s \r\n", buffer);
	}
	else
	{
		if (argc < 3) return CMDLINE_TOO_FEW_ARGS;
    1400:	8f a5       	ldd	r24, Y+47	; 0x2f
    1402:	98 a9       	ldd	r25, Y+48	; 0x30
    1404:	03 97       	sbiw	r24, 0x03	; 3
    1406:	1c f4       	brge	.+6      	; 0x140e <Cmd_get_temp+0x8c>
    1408:	83 e0       	ldi	r24, 0x03	; 3
    140a:	90 e0       	ldi	r25, 0x00	; 0
    140c:	8f c0       	rjmp	.+286    	; 0x152c <Cmd_get_temp+0x1aa>
		if (argc >3) return CMDLINE_TOO_MANY_ARGS;
    140e:	8f a5       	ldd	r24, Y+47	; 0x2f
    1410:	98 a9       	ldd	r25, Y+48	; 0x30
    1412:	04 97       	sbiw	r24, 0x04	; 4
    1414:	1c f0       	brlt	.+6      	; 0x141c <Cmd_get_temp+0x9a>
    1416:	82 e0       	ldi	r24, 0x02	; 2
    1418:	90 e0       	ldi	r25, 0x00	; 0
    141a:	88 c0       	rjmp	.+272    	; 0x152c <Cmd_get_temp+0x1aa>
		uint8_t channel = atoi(argv[2]);
    141c:	89 a9       	ldd	r24, Y+49	; 0x31
    141e:	9a a9       	ldd	r25, Y+50	; 0x32
    1420:	04 96       	adiw	r24, 0x04	; 4
    1422:	fc 01       	movw	r30, r24
    1424:	80 81       	ld	r24, Z
    1426:	91 81       	ldd	r25, Z+1	; 0x01
    1428:	0e 94 4d 33 	call	0x669a	; 0x669a <atoi>
    142c:	89 83       	std	Y+1, r24	; 0x01
		if (channel > (MAX_CHANNEL -1)) return CMDLINE_INVALID_ARG;
    142e:	89 81       	ldd	r24, Y+1	; 0x01
    1430:	82 30       	cpi	r24, 0x02	; 2
    1432:	18 f0       	brcs	.+6      	; 0x143a <Cmd_get_temp+0xb8>
    1434:	84 e0       	ldi	r24, 0x04	; 4
    1436:	90 e0       	ldi	r25, 0x00	; 0
    1438:	79 c0       	rjmp	.+242    	; 0x152c <Cmd_get_temp+0x1aa>
		if (!strcmp(argv[1], "NTC"))
    143a:	89 a9       	ldd	r24, Y+49	; 0x31
    143c:	9a a9       	ldd	r25, Y+50	; 0x32
    143e:	02 96       	adiw	r24, 0x02	; 2
    1440:	fc 01       	movw	r30, r24
    1442:	80 81       	ld	r24, Z
    1444:	91 81       	ldd	r25, Z+1	; 0x01
    1446:	65 e2       	ldi	r22, 0x25	; 37
    1448:	79 e0       	ldi	r23, 0x09	; 9
    144a:	0e 94 55 34 	call	0x68aa	; 0x68aa <strcmp>
    144e:	89 2b       	or	r24, r25
    1450:	71 f5       	brne	.+92     	; 0x14ae <Cmd_get_temp+0x12c>
		{
			char buffer[20];
			sprintf(buffer, "NTC[%d]: %i", channel, temperature_get_NTC(channel));
    1452:	89 81       	ldd	r24, Y+1	; 0x01
    1454:	0e 94 91 12 	call	0x2522	; 0x2522 <temperature_get_NTC>
    1458:	9c 01       	movw	r18, r24
    145a:	89 81       	ldd	r24, Y+1	; 0x01
    145c:	88 2f       	mov	r24, r24
    145e:	90 e0       	ldi	r25, 0x00	; 0
    1460:	43 2f       	mov	r20, r19
    1462:	4f 93       	push	r20
    1464:	2f 93       	push	r18
    1466:	29 2f       	mov	r18, r25
    1468:	2f 93       	push	r18
    146a:	8f 93       	push	r24
    146c:	89 e2       	ldi	r24, 0x29	; 41
    146e:	99 e0       	ldi	r25, 0x09	; 9
    1470:	89 2f       	mov	r24, r25
    1472:	8f 93       	push	r24
    1474:	89 e2       	ldi	r24, 0x29	; 41
    1476:	99 e0       	ldi	r25, 0x09	; 9
    1478:	8f 93       	push	r24
    147a:	ce 01       	movw	r24, r28
    147c:	07 96       	adiw	r24, 0x07	; 7
    147e:	29 2f       	mov	r18, r25
    1480:	2f 93       	push	r18
    1482:	8f 93       	push	r24
    1484:	0e 94 b6 34 	call	0x696c	; 0x696c <sprintf>
    1488:	8d b7       	in	r24, 0x3d	; 61
    148a:	9e b7       	in	r25, 0x3e	; 62
    148c:	08 96       	adiw	r24, 0x08	; 8
    148e:	0f b6       	in	r0, 0x3f	; 63
    1490:	f8 94       	cli
    1492:	de bf       	out	0x3e, r29	; 62
    1494:	0f be       	out	0x3f, r0	; 63
    1496:	cd bf       	out	0x3d, r28	; 61
//			UARTprintf("NTC[%d]: %s \r\n", channel, buffer);
			usart0_send_array(buffer, strlen(buffer));
    1498:	ce 01       	movw	r24, r28
    149a:	07 96       	adiw	r24, 0x07	; 7
    149c:	0e 94 5e 34 	call	0x68bc	; 0x68bc <strlen>
    14a0:	28 2f       	mov	r18, r24
    14a2:	ce 01       	movw	r24, r28
    14a4:	07 96       	adiw	r24, 0x07	; 7
    14a6:	62 2f       	mov	r22, r18
    14a8:	0e 94 0e 1c 	call	0x381c	; 0x381c <usart0_send_array>
    14ac:	3d c0       	rjmp	.+122    	; 0x1528 <Cmd_get_temp+0x1a6>

		
		}
		else if (!strcmp(argv[1], "onewire"))
    14ae:	89 a9       	ldd	r24, Y+49	; 0x31
    14b0:	9a a9       	ldd	r25, Y+50	; 0x32
    14b2:	02 96       	adiw	r24, 0x02	; 2
    14b4:	fc 01       	movw	r30, r24
    14b6:	80 81       	ld	r24, Z
    14b8:	91 81       	ldd	r25, Z+1	; 0x01
    14ba:	65 e3       	ldi	r22, 0x35	; 53
    14bc:	79 e0       	ldi	r23, 0x09	; 9
    14be:	0e 94 55 34 	call	0x68aa	; 0x68aa <strcmp>
    14c2:	89 2b       	or	r24, r25
    14c4:	71 f5       	brne	.+92     	; 0x1522 <Cmd_get_temp+0x1a0>
		{
			char buffer[20];
			sprintf(buffer, "1-Wire[%d]: %i", channel, temperature_get_onewire(channel));
    14c6:	89 81       	ldd	r24, Y+1	; 0x01
    14c8:	0e 94 a5 12 	call	0x254a	; 0x254a <temperature_get_onewire>
    14cc:	9c 01       	movw	r18, r24
    14ce:	89 81       	ldd	r24, Y+1	; 0x01
    14d0:	88 2f       	mov	r24, r24
    14d2:	90 e0       	ldi	r25, 0x00	; 0
    14d4:	43 2f       	mov	r20, r19
    14d6:	4f 93       	push	r20
    14d8:	2f 93       	push	r18
    14da:	29 2f       	mov	r18, r25
    14dc:	2f 93       	push	r18
    14de:	8f 93       	push	r24
    14e0:	8d e3       	ldi	r24, 0x3D	; 61
    14e2:	99 e0       	ldi	r25, 0x09	; 9
    14e4:	89 2f       	mov	r24, r25
    14e6:	8f 93       	push	r24
    14e8:	8d e3       	ldi	r24, 0x3D	; 61
    14ea:	99 e0       	ldi	r25, 0x09	; 9
    14ec:	8f 93       	push	r24
    14ee:	ce 01       	movw	r24, r28
    14f0:	4b 96       	adiw	r24, 0x1b	; 27
    14f2:	29 2f       	mov	r18, r25
    14f4:	2f 93       	push	r18
    14f6:	8f 93       	push	r24
    14f8:	0e 94 b6 34 	call	0x696c	; 0x696c <sprintf>
    14fc:	8d b7       	in	r24, 0x3d	; 61
    14fe:	9e b7       	in	r25, 0x3e	; 62
    1500:	08 96       	adiw	r24, 0x08	; 8
    1502:	0f b6       	in	r0, 0x3f	; 63
    1504:	f8 94       	cli
    1506:	de bf       	out	0x3e, r29	; 62
    1508:	0f be       	out	0x3f, r0	; 63
    150a:	cd bf       	out	0x3d, r28	; 61
//			UARTprintf("1-Wire[%d]: %s \r\n", channel, buffer);
			usart0_send_array(buffer, strlen(buffer));
    150c:	ce 01       	movw	r24, r28
    150e:	4b 96       	adiw	r24, 0x1b	; 27
    1510:	0e 94 5e 34 	call	0x68bc	; 0x68bc <strlen>
    1514:	28 2f       	mov	r18, r24
    1516:	ce 01       	movw	r24, r28
    1518:	4b 96       	adiw	r24, 0x1b	; 27
    151a:	62 2f       	mov	r22, r18
    151c:	0e 94 0e 1c 	call	0x381c	; 0x381c <usart0_send_array>
    1520:	03 c0       	rjmp	.+6      	; 0x1528 <Cmd_get_temp+0x1a6>
		}
		else return CMDLINE_INVALID_ARG;
    1522:	84 e0       	ldi	r24, 0x04	; 4
    1524:	90 e0       	ldi	r25, 0x00	; 0
    1526:	02 c0       	rjmp	.+4      	; 0x152c <Cmd_get_temp+0x1aa>
		return CMDLINE_OK;
    1528:	80 e0       	ldi	r24, 0x00	; 0
    152a:	90 e0       	ldi	r25, 0x00	; 0
	}
}
    152c:	e2 96       	adiw	r28, 0x32	; 50
    152e:	0f b6       	in	r0, 0x3f	; 63
    1530:	f8 94       	cli
    1532:	de bf       	out	0x3e, r29	; 62
    1534:	0f be       	out	0x3f, r0	; 63
    1536:	cd bf       	out	0x3d, r28	; 61
    1538:	df 91       	pop	r29
    153a:	cf 91       	pop	r28
    153c:	08 95       	ret

0000153e <Cmd_tec_set_auto_voltage>:
// Format: tec_set_auto_voltage channel auto_voltage
//
//*****************************************************************************
int
Cmd_tec_set_auto_voltage(int argc, char *argv[]) 
{
    153e:	cf 93       	push	r28
    1540:	df 93       	push	r29
    1542:	cd b7       	in	r28, 0x3d	; 61
    1544:	de b7       	in	r29, 0x3e	; 62
    1546:	27 97       	sbiw	r28, 0x07	; 7
    1548:	0f b6       	in	r0, 0x3f	; 63
    154a:	f8 94       	cli
    154c:	de bf       	out	0x3e, r29	; 62
    154e:	0f be       	out	0x3f, r0	; 63
    1550:	cd bf       	out	0x3d, r28	; 61
    1552:	9d 83       	std	Y+5, r25	; 0x05
    1554:	8c 83       	std	Y+4, r24	; 0x04
    1556:	7f 83       	std	Y+7, r23	; 0x07
    1558:	6e 83       	std	Y+6, r22	; 0x06
	  if (argc < 3) return CMDLINE_TOO_FEW_ARGS;
    155a:	8c 81       	ldd	r24, Y+4	; 0x04
    155c:	9d 81       	ldd	r25, Y+5	; 0x05
    155e:	03 97       	sbiw	r24, 0x03	; 3
    1560:	1c f4       	brge	.+6      	; 0x1568 <Cmd_tec_set_auto_voltage+0x2a>
    1562:	83 e0       	ldi	r24, 0x03	; 3
    1564:	90 e0       	ldi	r25, 0x00	; 0
    1566:	41 c0       	rjmp	.+130    	; 0x15ea <Cmd_tec_set_auto_voltage+0xac>
	  if (argc >3) return CMDLINE_TOO_MANY_ARGS;
    1568:	8c 81       	ldd	r24, Y+4	; 0x04
    156a:	9d 81       	ldd	r25, Y+5	; 0x05
    156c:	04 97       	sbiw	r24, 0x04	; 4
    156e:	1c f0       	brlt	.+6      	; 0x1576 <Cmd_tec_set_auto_voltage+0x38>
    1570:	82 e0       	ldi	r24, 0x02	; 2
    1572:	90 e0       	ldi	r25, 0x00	; 0
    1574:	3a c0       	rjmp	.+116    	; 0x15ea <Cmd_tec_set_auto_voltage+0xac>
	  uint8_t channel = atoi(argv[1]);
    1576:	8e 81       	ldd	r24, Y+6	; 0x06
    1578:	9f 81       	ldd	r25, Y+7	; 0x07
    157a:	02 96       	adiw	r24, 0x02	; 2
    157c:	fc 01       	movw	r30, r24
    157e:	80 81       	ld	r24, Z
    1580:	91 81       	ldd	r25, Z+1	; 0x01
    1582:	0e 94 4d 33 	call	0x669a	; 0x669a <atoi>
    1586:	89 83       	std	Y+1, r24	; 0x01
	  if (channel > 3)	return CMDLINE_INVALID_ARG;
    1588:	89 81       	ldd	r24, Y+1	; 0x01
    158a:	84 30       	cpi	r24, 0x04	; 4
    158c:	18 f0       	brcs	.+6      	; 0x1594 <Cmd_tec_set_auto_voltage+0x56>
    158e:	84 e0       	ldi	r24, 0x04	; 4
    1590:	90 e0       	ldi	r25, 0x00	; 0
    1592:	2b c0       	rjmp	.+86     	; 0x15ea <Cmd_tec_set_auto_voltage+0xac>
	  
	uint16_t voltage = atoi(argv[2]);
    1594:	8e 81       	ldd	r24, Y+6	; 0x06
    1596:	9f 81       	ldd	r25, Y+7	; 0x07
    1598:	04 96       	adiw	r24, 0x04	; 4
    159a:	fc 01       	movw	r30, r24
    159c:	80 81       	ld	r24, Z
    159e:	91 81       	ldd	r25, Z+1	; 0x01
    15a0:	0e 94 4d 33 	call	0x669a	; 0x669a <atoi>
    15a4:	9b 83       	std	Y+3, r25	; 0x03
    15a6:	8a 83       	std	Y+2, r24	; 0x02
	temperature_set_auto_voltage( channel, voltage);
    15a8:	8a 81       	ldd	r24, Y+2	; 0x02
    15aa:	9b 81       	ldd	r25, Y+3	; 0x03
    15ac:	bc 01       	movw	r22, r24
    15ae:	89 81       	ldd	r24, Y+1	; 0x01
    15b0:	0e 94 dd 13 	call	0x27ba	; 0x27ba <temperature_set_auto_voltage>
	UARTprintf("Channel %d auto voltage: %d \r\n",channel, voltage);
    15b4:	89 81       	ldd	r24, Y+1	; 0x01
    15b6:	88 2f       	mov	r24, r24
    15b8:	90 e0       	ldi	r25, 0x00	; 0
    15ba:	2b 81       	ldd	r18, Y+3	; 0x03
    15bc:	2f 93       	push	r18
    15be:	2a 81       	ldd	r18, Y+2	; 0x02
    15c0:	2f 93       	push	r18
    15c2:	29 2f       	mov	r18, r25
    15c4:	2f 93       	push	r18
    15c6:	8f 93       	push	r24
    15c8:	8c e4       	ldi	r24, 0x4C	; 76
    15ca:	99 e0       	ldi	r25, 0x09	; 9
    15cc:	89 2f       	mov	r24, r25
    15ce:	8f 93       	push	r24
    15d0:	8c e4       	ldi	r24, 0x4C	; 76
    15d2:	99 e0       	ldi	r25, 0x09	; 9
    15d4:	8f 93       	push	r24
    15d6:	0e 94 2c 21 	call	0x4258	; 0x4258 <UARTprintf>
    15da:	0f 90       	pop	r0
    15dc:	0f 90       	pop	r0
    15de:	0f 90       	pop	r0
    15e0:	0f 90       	pop	r0
    15e2:	0f 90       	pop	r0
    15e4:	0f 90       	pop	r0
	return CMDLINE_OK;
    15e6:	80 e0       	ldi	r24, 0x00	; 0
    15e8:	90 e0       	ldi	r25, 0x00	; 0
}
    15ea:	27 96       	adiw	r28, 0x07	; 7
    15ec:	0f b6       	in	r0, 0x3f	; 63
    15ee:	f8 94       	cli
    15f0:	de bf       	out	0x3e, r29	; 62
    15f2:	0f be       	out	0x3f, r0	; 63
    15f4:	cd bf       	out	0x3d, r28	; 61
    15f6:	df 91       	pop	r29
    15f8:	cf 91       	pop	r28
    15fa:	08 95       	ret

000015fc <Cmd_TEC_enable>:
// Format: TEC_ena channel 
//
//*****************************************************************************
int
Cmd_TEC_enable(int argc, char *argv[])
{
    15fc:	cf 93       	push	r28
    15fe:	df 93       	push	r29
    1600:	00 d0       	rcall	.+0      	; 0x1602 <Cmd_TEC_enable+0x6>
    1602:	00 d0       	rcall	.+0      	; 0x1604 <Cmd_TEC_enable+0x8>
    1604:	1f 92       	push	r1
    1606:	cd b7       	in	r28, 0x3d	; 61
    1608:	de b7       	in	r29, 0x3e	; 62
    160a:	9b 83       	std	Y+3, r25	; 0x03
    160c:	8a 83       	std	Y+2, r24	; 0x02
    160e:	7d 83       	std	Y+5, r23	; 0x05
    1610:	6c 83       	std	Y+4, r22	; 0x04
		  if (argc < 2) return CMDLINE_TOO_FEW_ARGS;
    1612:	8a 81       	ldd	r24, Y+2	; 0x02
    1614:	9b 81       	ldd	r25, Y+3	; 0x03
    1616:	02 97       	sbiw	r24, 0x02	; 2
    1618:	1c f4       	brge	.+6      	; 0x1620 <Cmd_TEC_enable+0x24>
    161a:	83 e0       	ldi	r24, 0x03	; 3
    161c:	90 e0       	ldi	r25, 0x00	; 0
    161e:	1b c0       	rjmp	.+54     	; 0x1656 <Cmd_TEC_enable+0x5a>
		  if (argc >2) return CMDLINE_TOO_MANY_ARGS;
    1620:	8a 81       	ldd	r24, Y+2	; 0x02
    1622:	9b 81       	ldd	r25, Y+3	; 0x03
    1624:	03 97       	sbiw	r24, 0x03	; 3
    1626:	1c f0       	brlt	.+6      	; 0x162e <Cmd_TEC_enable+0x32>
    1628:	82 e0       	ldi	r24, 0x02	; 2
    162a:	90 e0       	ldi	r25, 0x00	; 0
    162c:	14 c0       	rjmp	.+40     	; 0x1656 <Cmd_TEC_enable+0x5a>
		  uint8_t channel = atoi(argv[1]);
    162e:	8c 81       	ldd	r24, Y+4	; 0x04
    1630:	9d 81       	ldd	r25, Y+5	; 0x05
    1632:	02 96       	adiw	r24, 0x02	; 2
    1634:	fc 01       	movw	r30, r24
    1636:	80 81       	ld	r24, Z
    1638:	91 81       	ldd	r25, Z+1	; 0x01
    163a:	0e 94 4d 33 	call	0x669a	; 0x669a <atoi>
    163e:	89 83       	std	Y+1, r24	; 0x01
		  if (channel > 3)	return CMDLINE_INVALID_ARG;
    1640:	89 81       	ldd	r24, Y+1	; 0x01
    1642:	84 30       	cpi	r24, 0x04	; 4
    1644:	18 f0       	brcs	.+6      	; 0x164c <Cmd_TEC_enable+0x50>
    1646:	84 e0       	ldi	r24, 0x04	; 4
    1648:	90 e0       	ldi	r25, 0x00	; 0
    164a:	05 c0       	rjmp	.+10     	; 0x1656 <Cmd_TEC_enable+0x5a>
		  temperature_enable_TEC(channel);
    164c:	89 81       	ldd	r24, Y+1	; 0x01
    164e:	0e 94 c5 12 	call	0x258a	; 0x258a <temperature_enable_TEC>
		  return CMDLINE_OK;
    1652:	80 e0       	ldi	r24, 0x00	; 0
    1654:	90 e0       	ldi	r25, 0x00	; 0
}
    1656:	0f 90       	pop	r0
    1658:	0f 90       	pop	r0
    165a:	0f 90       	pop	r0
    165c:	0f 90       	pop	r0
    165e:	0f 90       	pop	r0
    1660:	df 91       	pop	r29
    1662:	cf 91       	pop	r28
    1664:	08 95       	ret

00001666 <Cmd_TEC_disable>:
// Format: TEC_dis channel 
//
//*****************************************************************************
int
Cmd_TEC_disable(int argc, char *argv[])
{
    1666:	cf 93       	push	r28
    1668:	df 93       	push	r29
    166a:	00 d0       	rcall	.+0      	; 0x166c <Cmd_TEC_disable+0x6>
    166c:	00 d0       	rcall	.+0      	; 0x166e <Cmd_TEC_disable+0x8>
    166e:	00 d0       	rcall	.+0      	; 0x1670 <Cmd_TEC_disable+0xa>
    1670:	cd b7       	in	r28, 0x3d	; 61
    1672:	de b7       	in	r29, 0x3e	; 62
    1674:	9c 83       	std	Y+4, r25	; 0x04
    1676:	8b 83       	std	Y+3, r24	; 0x03
    1678:	7e 83       	std	Y+6, r23	; 0x06
    167a:	6d 83       	std	Y+5, r22	; 0x05
	if (argc < 2) return CMDLINE_TOO_FEW_ARGS;
    167c:	8b 81       	ldd	r24, Y+3	; 0x03
    167e:	9c 81       	ldd	r25, Y+4	; 0x04
    1680:	02 97       	sbiw	r24, 0x02	; 2
    1682:	1c f4       	brge	.+6      	; 0x168a <Cmd_TEC_disable+0x24>
    1684:	83 e0       	ldi	r24, 0x03	; 3
    1686:	90 e0       	ldi	r25, 0x00	; 0
    1688:	40 c0       	rjmp	.+128    	; 0x170a <Cmd_TEC_disable+0xa4>
	if (argc >2) return CMDLINE_TOO_MANY_ARGS;
    168a:	8b 81       	ldd	r24, Y+3	; 0x03
    168c:	9c 81       	ldd	r25, Y+4	; 0x04
    168e:	03 97       	sbiw	r24, 0x03	; 3
    1690:	1c f0       	brlt	.+6      	; 0x1698 <Cmd_TEC_disable+0x32>
    1692:	82 e0       	ldi	r24, 0x02	; 2
    1694:	90 e0       	ldi	r25, 0x00	; 0
    1696:	39 c0       	rjmp	.+114    	; 0x170a <Cmd_TEC_disable+0xa4>
	if (!strcmp(argv[1], "a"))
    1698:	8d 81       	ldd	r24, Y+5	; 0x05
    169a:	9e 81       	ldd	r25, Y+6	; 0x06
    169c:	02 96       	adiw	r24, 0x02	; 2
    169e:	fc 01       	movw	r30, r24
    16a0:	80 81       	ld	r24, Z
    16a2:	91 81       	ldd	r25, Z+1	; 0x01
    16a4:	6b e6       	ldi	r22, 0x6B	; 107
    16a6:	79 e0       	ldi	r23, 0x09	; 9
    16a8:	0e 94 55 34 	call	0x68aa	; 0x68aa <strcmp>
    16ac:	89 2b       	or	r24, r25
    16ae:	c9 f4       	brne	.+50     	; 0x16e2 <Cmd_TEC_disable+0x7c>
	{
		for (uint8_t udx=0; udx < 3; udx++)	 temperature_disable_TEC(udx);
    16b0:	19 82       	std	Y+1, r1	; 0x01
    16b2:	06 c0       	rjmp	.+12     	; 0x16c0 <Cmd_TEC_disable+0x5a>
    16b4:	89 81       	ldd	r24, Y+1	; 0x01
    16b6:	0e 94 e6 12 	call	0x25cc	; 0x25cc <temperature_disable_TEC>
    16ba:	89 81       	ldd	r24, Y+1	; 0x01
    16bc:	8f 5f       	subi	r24, 0xFF	; 255
    16be:	89 83       	std	Y+1, r24	; 0x01
    16c0:	89 81       	ldd	r24, Y+1	; 0x01
    16c2:	83 30       	cpi	r24, 0x03	; 3
    16c4:	b8 f3       	brcs	.-18     	; 0x16b4 <Cmd_TEC_disable+0x4e>
		UARTprintf("disabled all channel\r\n");
    16c6:	8d e6       	ldi	r24, 0x6D	; 109
    16c8:	99 e0       	ldi	r25, 0x09	; 9
    16ca:	89 2f       	mov	r24, r25
    16cc:	8f 93       	push	r24
    16ce:	8d e6       	ldi	r24, 0x6D	; 109
    16d0:	99 e0       	ldi	r25, 0x09	; 9
    16d2:	8f 93       	push	r24
    16d4:	0e 94 2c 21 	call	0x4258	; 0x4258 <UARTprintf>
    16d8:	0f 90       	pop	r0
    16da:	0f 90       	pop	r0
		return CMDLINE_OK;
    16dc:	80 e0       	ldi	r24, 0x00	; 0
    16de:	90 e0       	ldi	r25, 0x00	; 0
    16e0:	14 c0       	rjmp	.+40     	; 0x170a <Cmd_TEC_disable+0xa4>
	}
	uint8_t channel = atoi(argv[1]);
    16e2:	8d 81       	ldd	r24, Y+5	; 0x05
    16e4:	9e 81       	ldd	r25, Y+6	; 0x06
    16e6:	02 96       	adiw	r24, 0x02	; 2
    16e8:	fc 01       	movw	r30, r24
    16ea:	80 81       	ld	r24, Z
    16ec:	91 81       	ldd	r25, Z+1	; 0x01
    16ee:	0e 94 4d 33 	call	0x669a	; 0x669a <atoi>
    16f2:	8a 83       	std	Y+2, r24	; 0x02
	if (channel > 3)	return CMDLINE_INVALID_ARG;
    16f4:	8a 81       	ldd	r24, Y+2	; 0x02
    16f6:	84 30       	cpi	r24, 0x04	; 4
    16f8:	18 f0       	brcs	.+6      	; 0x1700 <Cmd_TEC_disable+0x9a>
    16fa:	84 e0       	ldi	r24, 0x04	; 4
    16fc:	90 e0       	ldi	r25, 0x00	; 0
    16fe:	05 c0       	rjmp	.+10     	; 0x170a <Cmd_TEC_disable+0xa4>
	temperature_disable_TEC(channel);
    1700:	8a 81       	ldd	r24, Y+2	; 0x02
    1702:	0e 94 e6 12 	call	0x25cc	; 0x25cc <temperature_disable_TEC>
	return CMDLINE_OK;
    1706:	80 e0       	ldi	r24, 0x00	; 0
    1708:	90 e0       	ldi	r25, 0x00	; 0
}
    170a:	26 96       	adiw	r28, 0x06	; 6
    170c:	0f b6       	in	r0, 0x3f	; 63
    170e:	f8 94       	cli
    1710:	de bf       	out	0x3e, r29	; 62
    1712:	0f be       	out	0x3f, r0	; 63
    1714:	cd bf       	out	0x3d, r28	; 61
    1716:	df 91       	pop	r29
    1718:	cf 91       	pop	r28
    171a:	08 95       	ret

0000171c <Cmd_TEC_enable_auto_control>:
// Format: TEC_ena_control channel 
//
//*****************************************************************************
int
Cmd_TEC_enable_auto_control(int argc, char *argv[])
{
    171c:	cf 93       	push	r28
    171e:	df 93       	push	r29
    1720:	00 d0       	rcall	.+0      	; 0x1722 <Cmd_TEC_enable_auto_control+0x6>
    1722:	00 d0       	rcall	.+0      	; 0x1724 <Cmd_TEC_enable_auto_control+0x8>
    1724:	1f 92       	push	r1
    1726:	cd b7       	in	r28, 0x3d	; 61
    1728:	de b7       	in	r29, 0x3e	; 62
    172a:	9b 83       	std	Y+3, r25	; 0x03
    172c:	8a 83       	std	Y+2, r24	; 0x02
    172e:	7d 83       	std	Y+5, r23	; 0x05
    1730:	6c 83       	std	Y+4, r22	; 0x04
		  if (argc < 2) return CMDLINE_TOO_FEW_ARGS;
    1732:	8a 81       	ldd	r24, Y+2	; 0x02
    1734:	9b 81       	ldd	r25, Y+3	; 0x03
    1736:	02 97       	sbiw	r24, 0x02	; 2
    1738:	1c f4       	brge	.+6      	; 0x1740 <Cmd_TEC_enable_auto_control+0x24>
    173a:	83 e0       	ldi	r24, 0x03	; 3
    173c:	90 e0       	ldi	r25, 0x00	; 0
    173e:	25 c0       	rjmp	.+74     	; 0x178a <Cmd_TEC_enable_auto_control+0x6e>
		  if (argc >2) return CMDLINE_TOO_MANY_ARGS;
    1740:	8a 81       	ldd	r24, Y+2	; 0x02
    1742:	9b 81       	ldd	r25, Y+3	; 0x03
    1744:	03 97       	sbiw	r24, 0x03	; 3
    1746:	1c f0       	brlt	.+6      	; 0x174e <Cmd_TEC_enable_auto_control+0x32>
    1748:	82 e0       	ldi	r24, 0x02	; 2
    174a:	90 e0       	ldi	r25, 0x00	; 0
    174c:	1e c0       	rjmp	.+60     	; 0x178a <Cmd_TEC_enable_auto_control+0x6e>
		  uint8_t channel = atoi(argv[1]);
    174e:	8c 81       	ldd	r24, Y+4	; 0x04
    1750:	9d 81       	ldd	r25, Y+5	; 0x05
    1752:	02 96       	adiw	r24, 0x02	; 2
    1754:	fc 01       	movw	r30, r24
    1756:	80 81       	ld	r24, Z
    1758:	91 81       	ldd	r25, Z+1	; 0x01
    175a:	0e 94 4d 33 	call	0x669a	; 0x669a <atoi>
    175e:	89 83       	std	Y+1, r24	; 0x01
		  if (channel > 3)	return CMDLINE_INVALID_ARG;
    1760:	89 81       	ldd	r24, Y+1	; 0x01
    1762:	84 30       	cpi	r24, 0x04	; 4
    1764:	18 f0       	brcs	.+6      	; 0x176c <Cmd_TEC_enable_auto_control+0x50>
    1766:	84 e0       	ldi	r24, 0x04	; 4
    1768:	90 e0       	ldi	r25, 0x00	; 0
    176a:	0f c0       	rjmp	.+30     	; 0x178a <Cmd_TEC_enable_auto_control+0x6e>
		  temperature_enable_auto_control_TEC(channel << 1);
    176c:	89 81       	ldd	r24, Y+1	; 0x01
    176e:	88 0f       	add	r24, r24
    1770:	0e 94 08 13 	call	0x2610	; 0x2610 <temperature_enable_auto_control_TEC>
		  temperature_disable_TEC(channel*2);
    1774:	89 81       	ldd	r24, Y+1	; 0x01
    1776:	88 0f       	add	r24, r24
    1778:	0e 94 e6 12 	call	0x25cc	; 0x25cc <temperature_disable_TEC>
		  temperature_disable_TEC(channel*2 + 1);
    177c:	89 81       	ldd	r24, Y+1	; 0x01
    177e:	88 0f       	add	r24, r24
    1780:	8f 5f       	subi	r24, 0xFF	; 255
    1782:	0e 94 e6 12 	call	0x25cc	; 0x25cc <temperature_disable_TEC>
		  return CMDLINE_OK;
    1786:	80 e0       	ldi	r24, 0x00	; 0
    1788:	90 e0       	ldi	r25, 0x00	; 0
}
    178a:	0f 90       	pop	r0
    178c:	0f 90       	pop	r0
    178e:	0f 90       	pop	r0
    1790:	0f 90       	pop	r0
    1792:	0f 90       	pop	r0
    1794:	df 91       	pop	r29
    1796:	cf 91       	pop	r28
    1798:	08 95       	ret

0000179a <Cmd_TEC_disable_auto_control>:
// Format: TEC_dis_control channel 
//
//*****************************************************************************
int
Cmd_TEC_disable_auto_control(int argc, char *argv[])
{
    179a:	cf 93       	push	r28
    179c:	df 93       	push	r29
    179e:	00 d0       	rcall	.+0      	; 0x17a0 <Cmd_TEC_disable_auto_control+0x6>
    17a0:	00 d0       	rcall	.+0      	; 0x17a2 <Cmd_TEC_disable_auto_control+0x8>
    17a2:	1f 92       	push	r1
    17a4:	cd b7       	in	r28, 0x3d	; 61
    17a6:	de b7       	in	r29, 0x3e	; 62
    17a8:	9b 83       	std	Y+3, r25	; 0x03
    17aa:	8a 83       	std	Y+2, r24	; 0x02
    17ac:	7d 83       	std	Y+5, r23	; 0x05
    17ae:	6c 83       	std	Y+4, r22	; 0x04
		  if (argc < 2) return CMDLINE_TOO_FEW_ARGS;
    17b0:	8a 81       	ldd	r24, Y+2	; 0x02
    17b2:	9b 81       	ldd	r25, Y+3	; 0x03
    17b4:	02 97       	sbiw	r24, 0x02	; 2
    17b6:	1c f4       	brge	.+6      	; 0x17be <Cmd_TEC_disable_auto_control+0x24>
    17b8:	83 e0       	ldi	r24, 0x03	; 3
    17ba:	90 e0       	ldi	r25, 0x00	; 0
    17bc:	1c c0       	rjmp	.+56     	; 0x17f6 <Cmd_TEC_disable_auto_control+0x5c>
		  if (argc >2) return CMDLINE_TOO_MANY_ARGS;
    17be:	8a 81       	ldd	r24, Y+2	; 0x02
    17c0:	9b 81       	ldd	r25, Y+3	; 0x03
    17c2:	03 97       	sbiw	r24, 0x03	; 3
    17c4:	1c f0       	brlt	.+6      	; 0x17cc <Cmd_TEC_disable_auto_control+0x32>
    17c6:	82 e0       	ldi	r24, 0x02	; 2
    17c8:	90 e0       	ldi	r25, 0x00	; 0
    17ca:	15 c0       	rjmp	.+42     	; 0x17f6 <Cmd_TEC_disable_auto_control+0x5c>
		  uint8_t channel = atoi(argv[1]);
    17cc:	8c 81       	ldd	r24, Y+4	; 0x04
    17ce:	9d 81       	ldd	r25, Y+5	; 0x05
    17d0:	02 96       	adiw	r24, 0x02	; 2
    17d2:	fc 01       	movw	r30, r24
    17d4:	80 81       	ld	r24, Z
    17d6:	91 81       	ldd	r25, Z+1	; 0x01
    17d8:	0e 94 4d 33 	call	0x669a	; 0x669a <atoi>
    17dc:	89 83       	std	Y+1, r24	; 0x01
		  if (channel > 3)	return CMDLINE_INVALID_ARG;
    17de:	89 81       	ldd	r24, Y+1	; 0x01
    17e0:	84 30       	cpi	r24, 0x04	; 4
    17e2:	18 f0       	brcs	.+6      	; 0x17ea <Cmd_TEC_disable_auto_control+0x50>
    17e4:	84 e0       	ldi	r24, 0x04	; 4
    17e6:	90 e0       	ldi	r25, 0x00	; 0
    17e8:	06 c0       	rjmp	.+12     	; 0x17f6 <Cmd_TEC_disable_auto_control+0x5c>
		  temperature_disable_auto_control_TEC(channel << 1);
    17ea:	89 81       	ldd	r24, Y+1	; 0x01
    17ec:	88 0f       	add	r24, r24
    17ee:	0e 94 40 13 	call	0x2680	; 0x2680 <temperature_disable_auto_control_TEC>
		  
		  return CMDLINE_OK;
    17f2:	80 e0       	ldi	r24, 0x00	; 0
    17f4:	90 e0       	ldi	r25, 0x00	; 0
}
    17f6:	0f 90       	pop	r0
    17f8:	0f 90       	pop	r0
    17fa:	0f 90       	pop	r0
    17fc:	0f 90       	pop	r0
    17fe:	0f 90       	pop	r0
    1800:	df 91       	pop	r29
    1802:	cf 91       	pop	r28
    1804:	08 95       	ret

00001806 <Cmd_tec_get_status>:

int
Cmd_tec_get_status(int argc, char *argv[])
{
    1806:	cf 93       	push	r28
    1808:	df 93       	push	r29
    180a:	00 d0       	rcall	.+0      	; 0x180c <Cmd_tec_get_status+0x6>
    180c:	00 d0       	rcall	.+0      	; 0x180e <Cmd_tec_get_status+0x8>
    180e:	cd b7       	in	r28, 0x3d	; 61
    1810:	de b7       	in	r29, 0x3e	; 62
    1812:	9a 83       	std	Y+2, r25	; 0x02
    1814:	89 83       	std	Y+1, r24	; 0x01
    1816:	7c 83       	std	Y+4, r23	; 0x04
    1818:	6b 83       	std	Y+3, r22	; 0x03

	if (argc >1) return CMDLINE_TOO_MANY_ARGS;
    181a:	89 81       	ldd	r24, Y+1	; 0x01
    181c:	9a 81       	ldd	r25, Y+2	; 0x02
    181e:	02 97       	sbiw	r24, 0x02	; 2
    1820:	1c f0       	brlt	.+6      	; 0x1828 <Cmd_tec_get_status+0x22>
    1822:	82 e0       	ldi	r24, 0x02	; 2
    1824:	90 e0       	ldi	r25, 0x00	; 0
    1826:	04 c0       	rjmp	.+8      	; 0x1830 <Cmd_tec_get_status+0x2a>
	temperature_get_status();
    1828:	0e 94 fa 13 	call	0x27f4	; 0x27f4 <temperature_get_status>
	return CMDLINE_OK;
    182c:	80 e0       	ldi	r24, 0x00	; 0
    182e:	90 e0       	ldi	r25, 0x00	; 0
	
}
    1830:	0f 90       	pop	r0
    1832:	0f 90       	pop	r0
    1834:	0f 90       	pop	r0
    1836:	0f 90       	pop	r0
    1838:	df 91       	pop	r29
    183a:	cf 91       	pop	r28
    183c:	08 95       	ret

0000183e <Cmd_TEC_log_enable>:

int
Cmd_TEC_log_enable(int argc, char *argv[])
{
    183e:	cf 93       	push	r28
    1840:	df 93       	push	r29
    1842:	00 d0       	rcall	.+0      	; 0x1844 <Cmd_TEC_log_enable+0x6>
    1844:	00 d0       	rcall	.+0      	; 0x1846 <Cmd_TEC_log_enable+0x8>
    1846:	cd b7       	in	r28, 0x3d	; 61
    1848:	de b7       	in	r29, 0x3e	; 62
    184a:	9a 83       	std	Y+2, r25	; 0x02
    184c:	89 83       	std	Y+1, r24	; 0x01
    184e:	7c 83       	std	Y+4, r23	; 0x04
    1850:	6b 83       	std	Y+3, r22	; 0x03

	if (argc >1) return CMDLINE_TOO_MANY_ARGS;
    1852:	89 81       	ldd	r24, Y+1	; 0x01
    1854:	9a 81       	ldd	r25, Y+2	; 0x02
    1856:	02 97       	sbiw	r24, 0x02	; 2
    1858:	1c f0       	brlt	.+6      	; 0x1860 <Cmd_TEC_log_enable+0x22>
    185a:	82 e0       	ldi	r24, 0x02	; 2
    185c:	90 e0       	ldi	r25, 0x00	; 0
    185e:	04 c0       	rjmp	.+8      	; 0x1868 <Cmd_TEC_log_enable+0x2a>
	temperature_enable_log();
    1860:	0e 94 52 15 	call	0x2aa4	; 0x2aa4 <temperature_enable_log>
	return CMDLINE_OK;
    1864:	80 e0       	ldi	r24, 0x00	; 0
    1866:	90 e0       	ldi	r25, 0x00	; 0
	
}
    1868:	0f 90       	pop	r0
    186a:	0f 90       	pop	r0
    186c:	0f 90       	pop	r0
    186e:	0f 90       	pop	r0
    1870:	df 91       	pop	r29
    1872:	cf 91       	pop	r28
    1874:	08 95       	ret

00001876 <Cmd_TEC_log_disable>:

int
Cmd_TEC_log_disable(int argc, char *argv[])
{
    1876:	cf 93       	push	r28
    1878:	df 93       	push	r29
    187a:	00 d0       	rcall	.+0      	; 0x187c <Cmd_TEC_log_disable+0x6>
    187c:	00 d0       	rcall	.+0      	; 0x187e <Cmd_TEC_log_disable+0x8>
    187e:	cd b7       	in	r28, 0x3d	; 61
    1880:	de b7       	in	r29, 0x3e	; 62
    1882:	9a 83       	std	Y+2, r25	; 0x02
    1884:	89 83       	std	Y+1, r24	; 0x01
    1886:	7c 83       	std	Y+4, r23	; 0x04
    1888:	6b 83       	std	Y+3, r22	; 0x03

	if (argc >1) return CMDLINE_TOO_MANY_ARGS;
    188a:	89 81       	ldd	r24, Y+1	; 0x01
    188c:	9a 81       	ldd	r25, Y+2	; 0x02
    188e:	02 97       	sbiw	r24, 0x02	; 2
    1890:	1c f0       	brlt	.+6      	; 0x1898 <Cmd_TEC_log_disable+0x22>
    1892:	82 e0       	ldi	r24, 0x02	; 2
    1894:	90 e0       	ldi	r25, 0x00	; 0
    1896:	04 c0       	rjmp	.+8      	; 0x18a0 <Cmd_TEC_log_disable+0x2a>
	temperature_disable_log();
    1898:	0e 94 5d 15 	call	0x2aba	; 0x2aba <temperature_disable_log>
	return CMDLINE_OK;
    189c:	80 e0       	ldi	r24, 0x00	; 0
    189e:	90 e0       	ldi	r25, 0x00	; 0
	
}
    18a0:	0f 90       	pop	r0
    18a2:	0f 90       	pop	r0
    18a4:	0f 90       	pop	r0
    18a6:	0f 90       	pop	r0
    18a8:	df 91       	pop	r29
    18aa:	cf 91       	pop	r28
    18ac:	08 95       	ret

000018ae <Cmd_TEC_set_output>:
//
//*****************************************************************************

int
Cmd_TEC_set_output(int argc, char *argv[])
{
    18ae:	cf 93       	push	r28
    18b0:	df 93       	push	r29
    18b2:	cd b7       	in	r28, 0x3d	; 61
    18b4:	de b7       	in	r29, 0x3e	; 62
    18b6:	28 97       	sbiw	r28, 0x08	; 8
    18b8:	0f b6       	in	r0, 0x3f	; 63
    18ba:	f8 94       	cli
    18bc:	de bf       	out	0x3e, r29	; 62
    18be:	0f be       	out	0x3f, r0	; 63
    18c0:	cd bf       	out	0x3d, r28	; 61
    18c2:	9e 83       	std	Y+6, r25	; 0x06
    18c4:	8d 83       	std	Y+5, r24	; 0x05
    18c6:	78 87       	std	Y+8, r23	; 0x08
    18c8:	6f 83       	std	Y+7, r22	; 0x07

	if (argc < 4) return CMDLINE_TOO_FEW_ARGS;
    18ca:	8d 81       	ldd	r24, Y+5	; 0x05
    18cc:	9e 81       	ldd	r25, Y+6	; 0x06
    18ce:	04 97       	sbiw	r24, 0x04	; 4
    18d0:	1c f4       	brge	.+6      	; 0x18d8 <Cmd_TEC_set_output+0x2a>
    18d2:	83 e0       	ldi	r24, 0x03	; 3
    18d4:	90 e0       	ldi	r25, 0x00	; 0
    18d6:	32 c0       	rjmp	.+100    	; 0x193c <Cmd_TEC_set_output+0x8e>
	if (argc >4) return CMDLINE_TOO_MANY_ARGS;
    18d8:	8d 81       	ldd	r24, Y+5	; 0x05
    18da:	9e 81       	ldd	r25, Y+6	; 0x06
    18dc:	05 97       	sbiw	r24, 0x05	; 5
    18de:	1c f0       	brlt	.+6      	; 0x18e6 <Cmd_TEC_set_output+0x38>
    18e0:	82 e0       	ldi	r24, 0x02	; 2
    18e2:	90 e0       	ldi	r25, 0x00	; 0
    18e4:	2b c0       	rjmp	.+86     	; 0x193c <Cmd_TEC_set_output+0x8e>
	uint8_t _heatCool = atoi(argv[2]);
    18e6:	8f 81       	ldd	r24, Y+7	; 0x07
    18e8:	98 85       	ldd	r25, Y+8	; 0x08
    18ea:	04 96       	adiw	r24, 0x04	; 4
    18ec:	fc 01       	movw	r30, r24
    18ee:	80 81       	ld	r24, Z
    18f0:	91 81       	ldd	r25, Z+1	; 0x01
    18f2:	0e 94 4d 33 	call	0x669a	; 0x669a <atoi>
    18f6:	89 83       	std	Y+1, r24	; 0x01
	uint8_t _channel = atoi(argv[1]);
    18f8:	8f 81       	ldd	r24, Y+7	; 0x07
    18fa:	98 85       	ldd	r25, Y+8	; 0x08
    18fc:	02 96       	adiw	r24, 0x02	; 2
    18fe:	fc 01       	movw	r30, r24
    1900:	80 81       	ld	r24, Z
    1902:	91 81       	ldd	r25, Z+1	; 0x01
    1904:	0e 94 4d 33 	call	0x669a	; 0x669a <atoi>
    1908:	8a 83       	std	Y+2, r24	; 0x02
	uint16_t	_voltage = atoi(argv[3]);
    190a:	8f 81       	ldd	r24, Y+7	; 0x07
    190c:	98 85       	ldd	r25, Y+8	; 0x08
    190e:	06 96       	adiw	r24, 0x06	; 6
    1910:	fc 01       	movw	r30, r24
    1912:	80 81       	ld	r24, Z
    1914:	91 81       	ldd	r25, Z+1	; 0x01
    1916:	0e 94 4d 33 	call	0x669a	; 0x669a <atoi>
    191a:	9c 83       	std	Y+4, r25	; 0x04
    191c:	8b 83       	std	Y+3, r24	; 0x03
	if (_channel >=4 )	return CMDLINE_INVALID_ARG;
    191e:	8a 81       	ldd	r24, Y+2	; 0x02
    1920:	84 30       	cpi	r24, 0x04	; 4
    1922:	18 f0       	brcs	.+6      	; 0x192a <Cmd_TEC_set_output+0x7c>
    1924:	84 e0       	ldi	r24, 0x04	; 4
    1926:	90 e0       	ldi	r25, 0x00	; 0
    1928:	09 c0       	rjmp	.+18     	; 0x193c <Cmd_TEC_set_output+0x8e>
	temperature_set_TEC_output(_channel, _heatCool, _voltage);
    192a:	8b 81       	ldd	r24, Y+3	; 0x03
    192c:	9c 81       	ldd	r25, Y+4	; 0x04
    192e:	ac 01       	movw	r20, r24
    1930:	69 81       	ldd	r22, Y+1	; 0x01
    1932:	8a 81       	ldd	r24, Y+2	; 0x02
    1934:	0e 94 61 13 	call	0x26c2	; 0x26c2 <temperature_set_TEC_output>
	return CMDLINE_OK;
    1938:	80 e0       	ldi	r24, 0x00	; 0
    193a:	90 e0       	ldi	r25, 0x00	; 0
	 
}
    193c:	28 96       	adiw	r28, 0x08	; 8
    193e:	0f b6       	in	r0, 0x3f	; 63
    1940:	f8 94       	cli
    1942:	de bf       	out	0x3e, r29	; 62
    1944:	0f be       	out	0x3f, r0	; 63
    1946:	cd bf       	out	0x3d, r28	; 61
    1948:	df 91       	pop	r29
    194a:	cf 91       	pop	r28
    194c:	08 95       	ret

0000194e <Cmd_get_temp_setpoint>:

int
Cmd_get_temp_setpoint(int argc, char *argv[])
{
    194e:	cf 93       	push	r28
    1950:	df 93       	push	r29
    1952:	cd b7       	in	r28, 0x3d	; 61
    1954:	de b7       	in	r29, 0x3e	; 62
    1956:	27 97       	sbiw	r28, 0x07	; 7
    1958:	0f b6       	in	r0, 0x3f	; 63
    195a:	f8 94       	cli
    195c:	de bf       	out	0x3e, r29	; 62
    195e:	0f be       	out	0x3f, r0	; 63
    1960:	cd bf       	out	0x3d, r28	; 61
    1962:	9d 83       	std	Y+5, r25	; 0x05
    1964:	8c 83       	std	Y+4, r24	; 0x04
    1966:	7f 83       	std	Y+7, r23	; 0x07
    1968:	6e 83       	std	Y+6, r22	; 0x06
	if (argc < 2) return CMDLINE_TOO_FEW_ARGS;
    196a:	8c 81       	ldd	r24, Y+4	; 0x04
    196c:	9d 81       	ldd	r25, Y+5	; 0x05
    196e:	02 97       	sbiw	r24, 0x02	; 2
    1970:	1c f4       	brge	.+6      	; 0x1978 <Cmd_get_temp_setpoint+0x2a>
    1972:	83 e0       	ldi	r24, 0x03	; 3
    1974:	90 e0       	ldi	r25, 0x00	; 0
    1976:	36 c0       	rjmp	.+108    	; 0x19e4 <Cmd_get_temp_setpoint+0x96>
	if (argc >2) return CMDLINE_TOO_MANY_ARGS;
    1978:	8c 81       	ldd	r24, Y+4	; 0x04
    197a:	9d 81       	ldd	r25, Y+5	; 0x05
    197c:	03 97       	sbiw	r24, 0x03	; 3
    197e:	1c f0       	brlt	.+6      	; 0x1986 <Cmd_get_temp_setpoint+0x38>
    1980:	82 e0       	ldi	r24, 0x02	; 2
    1982:	90 e0       	ldi	r25, 0x00	; 0
    1984:	2f c0       	rjmp	.+94     	; 0x19e4 <Cmd_get_temp_setpoint+0x96>
	uint8_t _channel = atoi(argv[1]);
    1986:	8e 81       	ldd	r24, Y+6	; 0x06
    1988:	9f 81       	ldd	r25, Y+7	; 0x07
    198a:	02 96       	adiw	r24, 0x02	; 2
    198c:	fc 01       	movw	r30, r24
    198e:	80 81       	ld	r24, Z
    1990:	91 81       	ldd	r25, Z+1	; 0x01
    1992:	0e 94 4d 33 	call	0x669a	; 0x669a <atoi>
    1996:	89 83       	std	Y+1, r24	; 0x01
	uint16_t	_setpoint;
	if (_channel > 2)	return CMDLINE_INVALID_ARG;
    1998:	89 81       	ldd	r24, Y+1	; 0x01
    199a:	83 30       	cpi	r24, 0x03	; 3
    199c:	18 f0       	brcs	.+6      	; 0x19a4 <Cmd_get_temp_setpoint+0x56>
    199e:	84 e0       	ldi	r24, 0x04	; 4
    19a0:	90 e0       	ldi	r25, 0x00	; 0
    19a2:	20 c0       	rjmp	.+64     	; 0x19e4 <Cmd_get_temp_setpoint+0x96>
	_setpoint = temperature_get_setpoint(_channel);
    19a4:	89 81       	ldd	r24, Y+1	; 0x01
    19a6:	0e 94 c8 13 	call	0x2790	; 0x2790 <temperature_get_setpoint>
    19aa:	9b 83       	std	Y+3, r25	; 0x03
    19ac:	8a 83       	std	Y+2, r24	; 0x02
	UARTprintf("Setpoint channel[%d]: %d \r\n", _channel, _setpoint);
    19ae:	89 81       	ldd	r24, Y+1	; 0x01
    19b0:	88 2f       	mov	r24, r24
    19b2:	90 e0       	ldi	r25, 0x00	; 0
    19b4:	2b 81       	ldd	r18, Y+3	; 0x03
    19b6:	2f 93       	push	r18
    19b8:	2a 81       	ldd	r18, Y+2	; 0x02
    19ba:	2f 93       	push	r18
    19bc:	29 2f       	mov	r18, r25
    19be:	2f 93       	push	r18
    19c0:	8f 93       	push	r24
    19c2:	84 e8       	ldi	r24, 0x84	; 132
    19c4:	99 e0       	ldi	r25, 0x09	; 9
    19c6:	89 2f       	mov	r24, r25
    19c8:	8f 93       	push	r24
    19ca:	84 e8       	ldi	r24, 0x84	; 132
    19cc:	99 e0       	ldi	r25, 0x09	; 9
    19ce:	8f 93       	push	r24
    19d0:	0e 94 2c 21 	call	0x4258	; 0x4258 <UARTprintf>
    19d4:	0f 90       	pop	r0
    19d6:	0f 90       	pop	r0
    19d8:	0f 90       	pop	r0
    19da:	0f 90       	pop	r0
    19dc:	0f 90       	pop	r0
    19de:	0f 90       	pop	r0
	return CMDLINE_OK;
    19e0:	80 e0       	ldi	r24, 0x00	; 0
    19e2:	90 e0       	ldi	r25, 0x00	; 0
}
    19e4:	27 96       	adiw	r28, 0x07	; 7
    19e6:	0f b6       	in	r0, 0x3f	; 63
    19e8:	f8 94       	cli
    19ea:	de bf       	out	0x3e, r29	; 62
    19ec:	0f be       	out	0x3f, r0	; 63
    19ee:	cd bf       	out	0x3d, r28	; 61
    19f0:	df 91       	pop	r29
    19f2:	cf 91       	pop	r28
    19f4:	08 95       	ret

000019f6 <Cmd_ringled_set_RGBW>:

int
Cmd_ringled_set_RGBW(int argc, char *argv[])
{
    19f6:	cf 93       	push	r28
    19f8:	df 93       	push	r29
    19fa:	cd b7       	in	r28, 0x3d	; 61
    19fc:	de b7       	in	r29, 0x3e	; 62
    19fe:	28 97       	sbiw	r28, 0x08	; 8
    1a00:	0f b6       	in	r0, 0x3f	; 63
    1a02:	f8 94       	cli
    1a04:	de bf       	out	0x3e, r29	; 62
    1a06:	0f be       	out	0x3f, r0	; 63
    1a08:	cd bf       	out	0x3d, r28	; 61
    1a0a:	9e 83       	std	Y+6, r25	; 0x06
    1a0c:	8d 83       	std	Y+5, r24	; 0x05
    1a0e:	78 87       	std	Y+8, r23	; 0x08
    1a10:	6f 83       	std	Y+7, r22	; 0x07
	if (argc < 5) return CMDLINE_TOO_FEW_ARGS;
    1a12:	8d 81       	ldd	r24, Y+5	; 0x05
    1a14:	9e 81       	ldd	r25, Y+6	; 0x06
    1a16:	05 97       	sbiw	r24, 0x05	; 5
    1a18:	1c f4       	brge	.+6      	; 0x1a20 <Cmd_ringled_set_RGBW+0x2a>
    1a1a:	83 e0       	ldi	r24, 0x03	; 3
    1a1c:	90 e0       	ldi	r25, 0x00	; 0
    1a1e:	33 c0       	rjmp	.+102    	; 0x1a86 <Cmd_ringled_set_RGBW+0x90>
	if (argc > 5) return CMDLINE_TOO_MANY_ARGS;
    1a20:	8d 81       	ldd	r24, Y+5	; 0x05
    1a22:	9e 81       	ldd	r25, Y+6	; 0x06
    1a24:	06 97       	sbiw	r24, 0x06	; 6
    1a26:	1c f0       	brlt	.+6      	; 0x1a2e <Cmd_ringled_set_RGBW+0x38>
    1a28:	82 e0       	ldi	r24, 0x02	; 2
    1a2a:	90 e0       	ldi	r25, 0x00	; 0
    1a2c:	2c c0       	rjmp	.+88     	; 0x1a86 <Cmd_ringled_set_RGBW+0x90>
	uint8_t _red = atoi(argv[1]);
    1a2e:	8f 81       	ldd	r24, Y+7	; 0x07
    1a30:	98 85       	ldd	r25, Y+8	; 0x08
    1a32:	02 96       	adiw	r24, 0x02	; 2
    1a34:	fc 01       	movw	r30, r24
    1a36:	80 81       	ld	r24, Z
    1a38:	91 81       	ldd	r25, Z+1	; 0x01
    1a3a:	0e 94 4d 33 	call	0x669a	; 0x669a <atoi>
    1a3e:	89 83       	std	Y+1, r24	; 0x01
	uint8_t _green = atoi(argv[2]);
    1a40:	8f 81       	ldd	r24, Y+7	; 0x07
    1a42:	98 85       	ldd	r25, Y+8	; 0x08
    1a44:	04 96       	adiw	r24, 0x04	; 4
    1a46:	fc 01       	movw	r30, r24
    1a48:	80 81       	ld	r24, Z
    1a4a:	91 81       	ldd	r25, Z+1	; 0x01
    1a4c:	0e 94 4d 33 	call	0x669a	; 0x669a <atoi>
    1a50:	8a 83       	std	Y+2, r24	; 0x02
	uint8_t _blue = atoi(argv[3]);
    1a52:	8f 81       	ldd	r24, Y+7	; 0x07
    1a54:	98 85       	ldd	r25, Y+8	; 0x08
    1a56:	06 96       	adiw	r24, 0x06	; 6
    1a58:	fc 01       	movw	r30, r24
    1a5a:	80 81       	ld	r24, Z
    1a5c:	91 81       	ldd	r25, Z+1	; 0x01
    1a5e:	0e 94 4d 33 	call	0x669a	; 0x669a <atoi>
    1a62:	8b 83       	std	Y+3, r24	; 0x03
	uint8_t _white = atoi(argv[4]);
    1a64:	8f 81       	ldd	r24, Y+7	; 0x07
    1a66:	98 85       	ldd	r25, Y+8	; 0x08
    1a68:	08 96       	adiw	r24, 0x08	; 8
    1a6a:	fc 01       	movw	r30, r24
    1a6c:	80 81       	ld	r24, Z
    1a6e:	91 81       	ldd	r25, Z+1	; 0x01
    1a70:	0e 94 4d 33 	call	0x669a	; 0x669a <atoi>
    1a74:	8c 83       	std	Y+4, r24	; 0x04
	ringled_set_RGBW(_red, _green, _blue, _white);
    1a76:	2c 81       	ldd	r18, Y+4	; 0x04
    1a78:	4b 81       	ldd	r20, Y+3	; 0x03
    1a7a:	6a 81       	ldd	r22, Y+2	; 0x02
    1a7c:	89 81       	ldd	r24, Y+1	; 0x01
    1a7e:	0e 94 e7 28 	call	0x51ce	; 0x51ce <ringled_set_RGBW>
	return CMDLINE_OK;
    1a82:	80 e0       	ldi	r24, 0x00	; 0
    1a84:	90 e0       	ldi	r25, 0x00	; 0
}
    1a86:	28 96       	adiw	r28, 0x08	; 8
    1a88:	0f b6       	in	r0, 0x3f	; 63
    1a8a:	f8 94       	cli
    1a8c:	de bf       	out	0x3e, r29	; 62
    1a8e:	0f be       	out	0x3f, r0	; 63
    1a90:	cd bf       	out	0x3d, r28	; 61
    1a92:	df 91       	pop	r29
    1a94:	cf 91       	pop	r28
    1a96:	08 95       	ret

00001a98 <Cmd_ringled_get_RGBW>:

int
Cmd_ringled_get_RGBW(int argc, char *argv[])
{
    1a98:	cf 93       	push	r28
    1a9a:	df 93       	push	r29
    1a9c:	cd b7       	in	r28, 0x3d	; 61
    1a9e:	de b7       	in	r29, 0x3e	; 62
    1aa0:	28 97       	sbiw	r28, 0x08	; 8
    1aa2:	0f b6       	in	r0, 0x3f	; 63
    1aa4:	f8 94       	cli
    1aa6:	de bf       	out	0x3e, r29	; 62
    1aa8:	0f be       	out	0x3f, r0	; 63
    1aaa:	cd bf       	out	0x3d, r28	; 61
    1aac:	9e 83       	std	Y+6, r25	; 0x06
    1aae:	8d 83       	std	Y+5, r24	; 0x05
    1ab0:	78 87       	std	Y+8, r23	; 0x08
    1ab2:	6f 83       	std	Y+7, r22	; 0x07
	if (argc > 1) return CMDLINE_TOO_MANY_ARGS;
    1ab4:	8d 81       	ldd	r24, Y+5	; 0x05
    1ab6:	9e 81       	ldd	r25, Y+6	; 0x06
    1ab8:	02 97       	sbiw	r24, 0x02	; 2
    1aba:	1c f0       	brlt	.+6      	; 0x1ac2 <Cmd_ringled_get_RGBW+0x2a>
    1abc:	82 e0       	ldi	r24, 0x02	; 2
    1abe:	90 e0       	ldi	r25, 0x00	; 0
    1ac0:	33 c0       	rjmp	.+102    	; 0x1b28 <Cmd_ringled_get_RGBW+0x90>
	rgbw_color RGB = ringled_get_RGBW();
    1ac2:	0e 94 3e 29 	call	0x527c	; 0x527c <ringled_get_RGBW>
    1ac6:	dc 01       	movw	r26, r24
    1ac8:	cb 01       	movw	r24, r22
    1aca:	89 83       	std	Y+1, r24	; 0x01
    1acc:	9a 83       	std	Y+2, r25	; 0x02
    1ace:	ab 83       	std	Y+3, r26	; 0x03
    1ad0:	bc 83       	std	Y+4, r27	; 0x04
	UARTprintf("Ringled: RED = %d, GREEN = %d, BLUE = %d, WHITE = %d \r\n", RGB.red, RGB.green, RGB.blue, RGB.white);
    1ad2:	8c 81       	ldd	r24, Y+4	; 0x04
    1ad4:	68 2f       	mov	r22, r24
    1ad6:	70 e0       	ldi	r23, 0x00	; 0
    1ad8:	8b 81       	ldd	r24, Y+3	; 0x03
    1ada:	48 2f       	mov	r20, r24
    1adc:	50 e0       	ldi	r21, 0x00	; 0
    1ade:	8a 81       	ldd	r24, Y+2	; 0x02
    1ae0:	28 2f       	mov	r18, r24
    1ae2:	30 e0       	ldi	r19, 0x00	; 0
    1ae4:	89 81       	ldd	r24, Y+1	; 0x01
    1ae6:	88 2f       	mov	r24, r24
    1ae8:	90 e0       	ldi	r25, 0x00	; 0
    1aea:	e7 2f       	mov	r30, r23
    1aec:	ef 93       	push	r30
    1aee:	6f 93       	push	r22
    1af0:	65 2f       	mov	r22, r21
    1af2:	6f 93       	push	r22
    1af4:	4f 93       	push	r20
    1af6:	43 2f       	mov	r20, r19
    1af8:	4f 93       	push	r20
    1afa:	2f 93       	push	r18
    1afc:	29 2f       	mov	r18, r25
    1afe:	2f 93       	push	r18
    1b00:	8f 93       	push	r24
    1b02:	80 ea       	ldi	r24, 0xA0	; 160
    1b04:	99 e0       	ldi	r25, 0x09	; 9
    1b06:	89 2f       	mov	r24, r25
    1b08:	8f 93       	push	r24
    1b0a:	80 ea       	ldi	r24, 0xA0	; 160
    1b0c:	99 e0       	ldi	r25, 0x09	; 9
    1b0e:	8f 93       	push	r24
    1b10:	0e 94 2c 21 	call	0x4258	; 0x4258 <UARTprintf>
    1b14:	8d b7       	in	r24, 0x3d	; 61
    1b16:	9e b7       	in	r25, 0x3e	; 62
    1b18:	0a 96       	adiw	r24, 0x0a	; 10
    1b1a:	0f b6       	in	r0, 0x3f	; 63
    1b1c:	f8 94       	cli
    1b1e:	de bf       	out	0x3e, r29	; 62
    1b20:	0f be       	out	0x3f, r0	; 63
    1b22:	cd bf       	out	0x3d, r28	; 61
	return CMDLINE_OK;
    1b24:	80 e0       	ldi	r24, 0x00	; 0
    1b26:	90 e0       	ldi	r25, 0x00	; 0
}
    1b28:	28 96       	adiw	r28, 0x08	; 8
    1b2a:	0f b6       	in	r0, 0x3f	; 63
    1b2c:	f8 94       	cli
    1b2e:	de bf       	out	0x3e, r29	; 62
    1b30:	0f be       	out	0x3f, r0	; 63
    1b32:	cd bf       	out	0x3d, r28	; 61
    1b34:	df 91       	pop	r29
    1b36:	cf 91       	pop	r28
    1b38:	08 95       	ret

00001b3a <Cmd_IRled_set_bright>:

int
Cmd_IRled_set_bright(int argc, char *argv[])
{
    1b3a:	cf 93       	push	r28
    1b3c:	df 93       	push	r29
    1b3e:	00 d0       	rcall	.+0      	; 0x1b40 <Cmd_IRled_set_bright+0x6>
    1b40:	00 d0       	rcall	.+0      	; 0x1b42 <Cmd_IRled_set_bright+0x8>
    1b42:	1f 92       	push	r1
    1b44:	cd b7       	in	r28, 0x3d	; 61
    1b46:	de b7       	in	r29, 0x3e	; 62
    1b48:	9b 83       	std	Y+3, r25	; 0x03
    1b4a:	8a 83       	std	Y+2, r24	; 0x02
    1b4c:	7d 83       	std	Y+5, r23	; 0x05
    1b4e:	6c 83       	std	Y+4, r22	; 0x04
	if (argc < 2) return CMDLINE_TOO_FEW_ARGS;
    1b50:	8a 81       	ldd	r24, Y+2	; 0x02
    1b52:	9b 81       	ldd	r25, Y+3	; 0x03
    1b54:	02 97       	sbiw	r24, 0x02	; 2
    1b56:	1c f4       	brge	.+6      	; 0x1b5e <Cmd_IRled_set_bright+0x24>
    1b58:	83 e0       	ldi	r24, 0x03	; 3
    1b5a:	90 e0       	ldi	r25, 0x00	; 0
    1b5c:	30 c0       	rjmp	.+96     	; 0x1bbe <Cmd_IRled_set_bright+0x84>
	if (argc > 2) return CMDLINE_TOO_MANY_ARGS;
    1b5e:	8a 81       	ldd	r24, Y+2	; 0x02
    1b60:	9b 81       	ldd	r25, Y+3	; 0x03
    1b62:	03 97       	sbiw	r24, 0x03	; 3
    1b64:	1c f0       	brlt	.+6      	; 0x1b6c <Cmd_IRled_set_bright+0x32>
    1b66:	82 e0       	ldi	r24, 0x02	; 2
    1b68:	90 e0       	ldi	r25, 0x00	; 0
    1b6a:	29 c0       	rjmp	.+82     	; 0x1bbe <Cmd_IRled_set_bright+0x84>
	
	uint8_t _DutyCyclePercent = atoi(argv[1]);
    1b6c:	8c 81       	ldd	r24, Y+4	; 0x04
    1b6e:	9d 81       	ldd	r25, Y+5	; 0x05
    1b70:	02 96       	adiw	r24, 0x02	; 2
    1b72:	fc 01       	movw	r30, r24
    1b74:	80 81       	ld	r24, Z
    1b76:	91 81       	ldd	r25, Z+1	; 0x01
    1b78:	0e 94 4d 33 	call	0x669a	; 0x669a <atoi>
    1b7c:	89 83       	std	Y+1, r24	; 0x01
	if (_DutyCyclePercent > 100)
    1b7e:	89 81       	ldd	r24, Y+1	; 0x01
    1b80:	85 36       	cpi	r24, 0x65	; 101
    1b82:	10 f0       	brcs	.+4      	; 0x1b88 <Cmd_IRled_set_bright+0x4e>
	{
		//UARTprintf("WARNING: Duty cycle ranges from 0 to 100 percent");
		_DutyCyclePercent = 100;
    1b84:	84 e6       	ldi	r24, 0x64	; 100
    1b86:	89 83       	std	Y+1, r24	; 0x01
	}
	IR_led_set_DutyCyclesPercent(_DutyCyclePercent);
    1b88:	89 81       	ldd	r24, Y+1	; 0x01
    1b8a:	0e 94 e3 10 	call	0x21c6	; 0x21c6 <IR_led_set_DutyCyclesPercent>
	UARTprintf("Led IR set brightness is %s %% \r\n",argv[1]);
    1b8e:	8c 81       	ldd	r24, Y+4	; 0x04
    1b90:	9d 81       	ldd	r25, Y+5	; 0x05
    1b92:	02 96       	adiw	r24, 0x02	; 2
    1b94:	fc 01       	movw	r30, r24
    1b96:	80 81       	ld	r24, Z
    1b98:	91 81       	ldd	r25, Z+1	; 0x01
    1b9a:	29 2f       	mov	r18, r25
    1b9c:	2f 93       	push	r18
    1b9e:	8f 93       	push	r24
    1ba0:	88 ed       	ldi	r24, 0xD8	; 216
    1ba2:	99 e0       	ldi	r25, 0x09	; 9
    1ba4:	89 2f       	mov	r24, r25
    1ba6:	8f 93       	push	r24
    1ba8:	88 ed       	ldi	r24, 0xD8	; 216
    1baa:	99 e0       	ldi	r25, 0x09	; 9
    1bac:	8f 93       	push	r24
    1bae:	0e 94 2c 21 	call	0x4258	; 0x4258 <UARTprintf>
    1bb2:	0f 90       	pop	r0
    1bb4:	0f 90       	pop	r0
    1bb6:	0f 90       	pop	r0
    1bb8:	0f 90       	pop	r0
	return CMDLINE_OK;
    1bba:	80 e0       	ldi	r24, 0x00	; 0
    1bbc:	90 e0       	ldi	r25, 0x00	; 0
}
    1bbe:	0f 90       	pop	r0
    1bc0:	0f 90       	pop	r0
    1bc2:	0f 90       	pop	r0
    1bc4:	0f 90       	pop	r0
    1bc6:	0f 90       	pop	r0
    1bc8:	df 91       	pop	r29
    1bca:	cf 91       	pop	r28
    1bcc:	08 95       	ret

00001bce <Cmd_IRled_get_bright>:

int
Cmd_IRled_get_bright(int argc, char *argv[])
{
    1bce:	cf 93       	push	r28
    1bd0:	df 93       	push	r29
    1bd2:	00 d0       	rcall	.+0      	; 0x1bd4 <Cmd_IRled_get_bright+0x6>
    1bd4:	00 d0       	rcall	.+0      	; 0x1bd6 <Cmd_IRled_get_bright+0x8>
    1bd6:	1f 92       	push	r1
    1bd8:	cd b7       	in	r28, 0x3d	; 61
    1bda:	de b7       	in	r29, 0x3e	; 62
    1bdc:	9b 83       	std	Y+3, r25	; 0x03
    1bde:	8a 83       	std	Y+2, r24	; 0x02
    1be0:	7d 83       	std	Y+5, r23	; 0x05
    1be2:	6c 83       	std	Y+4, r22	; 0x04
	if (argc > 1) return CMDLINE_TOO_MANY_ARGS;
    1be4:	8a 81       	ldd	r24, Y+2	; 0x02
    1be6:	9b 81       	ldd	r25, Y+3	; 0x03
    1be8:	02 97       	sbiw	r24, 0x02	; 2
    1bea:	1c f0       	brlt	.+6      	; 0x1bf2 <Cmd_IRled_get_bright+0x24>
    1bec:	82 e0       	ldi	r24, 0x02	; 2
    1bee:	90 e0       	ldi	r25, 0x00	; 0
    1bf0:	18 c0       	rjmp	.+48     	; 0x1c22 <Cmd_IRled_get_bright+0x54>
	uint8_t Current_DutyCyclePercent = IR_led_get_Current_DutyCyclesPercent();
    1bf2:	0e 94 f9 10 	call	0x21f2	; 0x21f2 <IR_led_get_Current_DutyCyclesPercent>
    1bf6:	89 83       	std	Y+1, r24	; 0x01
	UARTprintf("Led IR's brightness is %d %% \r\n",Current_DutyCyclePercent);
    1bf8:	89 81       	ldd	r24, Y+1	; 0x01
    1bfa:	88 2f       	mov	r24, r24
    1bfc:	90 e0       	ldi	r25, 0x00	; 0
    1bfe:	29 2f       	mov	r18, r25
    1c00:	2f 93       	push	r18
    1c02:	8f 93       	push	r24
    1c04:	8a ef       	ldi	r24, 0xFA	; 250
    1c06:	99 e0       	ldi	r25, 0x09	; 9
    1c08:	89 2f       	mov	r24, r25
    1c0a:	8f 93       	push	r24
    1c0c:	8a ef       	ldi	r24, 0xFA	; 250
    1c0e:	99 e0       	ldi	r25, 0x09	; 9
    1c10:	8f 93       	push	r24
    1c12:	0e 94 2c 21 	call	0x4258	; 0x4258 <UARTprintf>
    1c16:	0f 90       	pop	r0
    1c18:	0f 90       	pop	r0
    1c1a:	0f 90       	pop	r0
    1c1c:	0f 90       	pop	r0
	return CMDLINE_OK;
    1c1e:	80 e0       	ldi	r24, 0x00	; 0
    1c20:	90 e0       	ldi	r25, 0x00	; 0
}
    1c22:	0f 90       	pop	r0
    1c24:	0f 90       	pop	r0
    1c26:	0f 90       	pop	r0
    1c28:	0f 90       	pop	r0
    1c2a:	0f 90       	pop	r0
    1c2c:	df 91       	pop	r29
    1c2e:	cf 91       	pop	r28
    1c30:	08 95       	ret

00001c32 <Cmd_get_acceleration_gyroscope>:

int
Cmd_get_acceleration_gyroscope(int argc, char *argv[])
{
    1c32:	af 92       	push	r10
    1c34:	bf 92       	push	r11
    1c36:	cf 92       	push	r12
    1c38:	df 92       	push	r13
    1c3a:	ef 92       	push	r14
    1c3c:	ff 92       	push	r15
    1c3e:	0f 93       	push	r16
    1c40:	1f 93       	push	r17
    1c42:	cf 93       	push	r28
    1c44:	df 93       	push	r29
    1c46:	cd b7       	in	r28, 0x3d	; 61
    1c48:	de b7       	in	r29, 0x3e	; 62
    1c4a:	a4 97       	sbiw	r28, 0x24	; 36
    1c4c:	0f b6       	in	r0, 0x3f	; 63
    1c4e:	f8 94       	cli
    1c50:	de bf       	out	0x3e, r29	; 62
    1c52:	0f be       	out	0x3f, r0	; 63
    1c54:	cd bf       	out	0x3d, r28	; 61
    1c56:	9a a3       	std	Y+34, r25	; 0x22
    1c58:	89 a3       	std	Y+33, r24	; 0x21
    1c5a:	7c a3       	std	Y+36, r23	; 0x24
    1c5c:	6b a3       	std	Y+35, r22	; 0x23
	if (argc > 1) return CMDLINE_TOO_MANY_ARGS;
    1c5e:	89 a1       	ldd	r24, Y+33	; 0x21
    1c60:	9a a1       	ldd	r25, Y+34	; 0x22
    1c62:	02 97       	sbiw	r24, 0x02	; 2
    1c64:	1c f0       	brlt	.+6      	; 0x1c6c <Cmd_get_acceleration_gyroscope+0x3a>
    1c66:	82 e0       	ldi	r24, 0x02	; 2
    1c68:	90 e0       	ldi	r25, 0x00	; 0
    1c6a:	90 c0       	rjmp	.+288    	; 0x1d8c <Cmd_get_acceleration_gyroscope+0x15a>
	Accel_Gyro_DataTypedef _accel_data = get_acceleration();
    1c6c:	0e 94 c1 05 	call	0xb82	; 0xb82 <get_acceleration>
    1c70:	a2 2e       	mov	r10, r18
    1c72:	b3 2e       	mov	r11, r19
    1c74:	c4 2e       	mov	r12, r20
    1c76:	d5 2e       	mov	r13, r21
    1c78:	e6 2e       	mov	r14, r22
    1c7a:	f7 2e       	mov	r15, r23
    1c7c:	08 2f       	mov	r16, r24
    1c7e:	19 2f       	mov	r17, r25
    1c80:	2a 2d       	mov	r18, r10
    1c82:	3b 2d       	mov	r19, r11
    1c84:	4c 2d       	mov	r20, r12
    1c86:	5d 2d       	mov	r21, r13
    1c88:	6e 2d       	mov	r22, r14
    1c8a:	7f 2d       	mov	r23, r15
    1c8c:	80 2f       	mov	r24, r16
    1c8e:	91 2f       	mov	r25, r17
    1c90:	29 83       	std	Y+1, r18	; 0x01
    1c92:	3a 83       	std	Y+2, r19	; 0x02
    1c94:	4b 83       	std	Y+3, r20	; 0x03
    1c96:	5c 83       	std	Y+4, r21	; 0x04
    1c98:	6d 83       	std	Y+5, r22	; 0x05
    1c9a:	7e 83       	std	Y+6, r23	; 0x06
	Accel_Gyro_DataTypedef _gyro_data = get_gyroscope();
    1c9c:	0e 94 0c 06 	call	0xc18	; 0xc18 <get_gyroscope>
    1ca0:	a2 2e       	mov	r10, r18
    1ca2:	b3 2e       	mov	r11, r19
    1ca4:	c4 2e       	mov	r12, r20
    1ca6:	d5 2e       	mov	r13, r21
    1ca8:	e6 2e       	mov	r14, r22
    1caa:	f7 2e       	mov	r15, r23
    1cac:	08 2f       	mov	r16, r24
    1cae:	19 2f       	mov	r17, r25
    1cb0:	2a 2d       	mov	r18, r10
    1cb2:	3b 2d       	mov	r19, r11
    1cb4:	4c 2d       	mov	r20, r12
    1cb6:	5d 2d       	mov	r21, r13
    1cb8:	6e 2d       	mov	r22, r14
    1cba:	7f 2d       	mov	r23, r15
    1cbc:	80 2f       	mov	r24, r16
    1cbe:	91 2f       	mov	r25, r17
    1cc0:	2f 83       	std	Y+7, r18	; 0x07
    1cc2:	38 87       	std	Y+8, r19	; 0x08
    1cc4:	49 87       	std	Y+9, r20	; 0x09
    1cc6:	5a 87       	std	Y+10, r21	; 0x0a
    1cc8:	6b 87       	std	Y+11, r22	; 0x0b
    1cca:	7c 87       	std	Y+12, r23	; 0x0c
	char buffer[20];
	sprintf(buffer,"Acceleration %i %i %i \r\n", _accel_data.x, _accel_data.y, _accel_data.z);
    1ccc:	4d 81       	ldd	r20, Y+5	; 0x05
    1cce:	5e 81       	ldd	r21, Y+6	; 0x06
    1cd0:	2b 81       	ldd	r18, Y+3	; 0x03
    1cd2:	3c 81       	ldd	r19, Y+4	; 0x04
    1cd4:	89 81       	ldd	r24, Y+1	; 0x01
    1cd6:	9a 81       	ldd	r25, Y+2	; 0x02
    1cd8:	65 2f       	mov	r22, r21
    1cda:	6f 93       	push	r22
    1cdc:	4f 93       	push	r20
    1cde:	43 2f       	mov	r20, r19
    1ce0:	4f 93       	push	r20
    1ce2:	2f 93       	push	r18
    1ce4:	29 2f       	mov	r18, r25
    1ce6:	2f 93       	push	r18
    1ce8:	8f 93       	push	r24
    1cea:	8a e1       	ldi	r24, 0x1A	; 26
    1cec:	9a e0       	ldi	r25, 0x0A	; 10
    1cee:	89 2f       	mov	r24, r25
    1cf0:	8f 93       	push	r24
    1cf2:	8a e1       	ldi	r24, 0x1A	; 26
    1cf4:	9a e0       	ldi	r25, 0x0A	; 10
    1cf6:	8f 93       	push	r24
    1cf8:	ce 01       	movw	r24, r28
    1cfa:	0d 96       	adiw	r24, 0x0d	; 13
    1cfc:	29 2f       	mov	r18, r25
    1cfe:	2f 93       	push	r18
    1d00:	8f 93       	push	r24
    1d02:	0e 94 b6 34 	call	0x696c	; 0x696c <sprintf>
    1d06:	8d b7       	in	r24, 0x3d	; 61
    1d08:	9e b7       	in	r25, 0x3e	; 62
    1d0a:	0a 96       	adiw	r24, 0x0a	; 10
    1d0c:	0f b6       	in	r0, 0x3f	; 63
    1d0e:	f8 94       	cli
    1d10:	de bf       	out	0x3e, r29	; 62
    1d12:	0f be       	out	0x3f, r0	; 63
    1d14:	cd bf       	out	0x3d, r28	; 61
	usart0_send_array(buffer, strlen(buffer));
    1d16:	ce 01       	movw	r24, r28
    1d18:	0d 96       	adiw	r24, 0x0d	; 13
    1d1a:	0e 94 5e 34 	call	0x68bc	; 0x68bc <strlen>
    1d1e:	28 2f       	mov	r18, r24
    1d20:	ce 01       	movw	r24, r28
    1d22:	0d 96       	adiw	r24, 0x0d	; 13
    1d24:	62 2f       	mov	r22, r18
    1d26:	0e 94 0e 1c 	call	0x381c	; 0x381c <usart0_send_array>
	sprintf(buffer,"Gyroscope %i %i %i\r\n", _gyro_data.x, _gyro_data.y, _gyro_data.z);
    1d2a:	4b 85       	ldd	r20, Y+11	; 0x0b
    1d2c:	5c 85       	ldd	r21, Y+12	; 0x0c
    1d2e:	29 85       	ldd	r18, Y+9	; 0x09
    1d30:	3a 85       	ldd	r19, Y+10	; 0x0a
    1d32:	8f 81       	ldd	r24, Y+7	; 0x07
    1d34:	98 85       	ldd	r25, Y+8	; 0x08
    1d36:	65 2f       	mov	r22, r21
    1d38:	6f 93       	push	r22
    1d3a:	4f 93       	push	r20
    1d3c:	43 2f       	mov	r20, r19
    1d3e:	4f 93       	push	r20
    1d40:	2f 93       	push	r18
    1d42:	29 2f       	mov	r18, r25
    1d44:	2f 93       	push	r18
    1d46:	8f 93       	push	r24
    1d48:	83 e3       	ldi	r24, 0x33	; 51
    1d4a:	9a e0       	ldi	r25, 0x0A	; 10
    1d4c:	89 2f       	mov	r24, r25
    1d4e:	8f 93       	push	r24
    1d50:	83 e3       	ldi	r24, 0x33	; 51
    1d52:	9a e0       	ldi	r25, 0x0A	; 10
    1d54:	8f 93       	push	r24
    1d56:	ce 01       	movw	r24, r28
    1d58:	0d 96       	adiw	r24, 0x0d	; 13
    1d5a:	29 2f       	mov	r18, r25
    1d5c:	2f 93       	push	r18
    1d5e:	8f 93       	push	r24
    1d60:	0e 94 b6 34 	call	0x696c	; 0x696c <sprintf>
    1d64:	8d b7       	in	r24, 0x3d	; 61
    1d66:	9e b7       	in	r25, 0x3e	; 62
    1d68:	0a 96       	adiw	r24, 0x0a	; 10
    1d6a:	0f b6       	in	r0, 0x3f	; 63
    1d6c:	f8 94       	cli
    1d6e:	de bf       	out	0x3e, r29	; 62
    1d70:	0f be       	out	0x3f, r0	; 63
    1d72:	cd bf       	out	0x3d, r28	; 61
	usart0_send_array(buffer, strlen(buffer));
    1d74:	ce 01       	movw	r24, r28
    1d76:	0d 96       	adiw	r24, 0x0d	; 13
    1d78:	0e 94 5e 34 	call	0x68bc	; 0x68bc <strlen>
    1d7c:	28 2f       	mov	r18, r24
    1d7e:	ce 01       	movw	r24, r28
    1d80:	0d 96       	adiw	r24, 0x0d	; 13
    1d82:	62 2f       	mov	r22, r18
    1d84:	0e 94 0e 1c 	call	0x381c	; 0x381c <usart0_send_array>
	return CMDLINE_OK;
    1d88:	80 e0       	ldi	r24, 0x00	; 0
    1d8a:	90 e0       	ldi	r25, 0x00	; 0
}
    1d8c:	a4 96       	adiw	r28, 0x24	; 36
    1d8e:	0f b6       	in	r0, 0x3f	; 63
    1d90:	f8 94       	cli
    1d92:	de bf       	out	0x3e, r29	; 62
    1d94:	0f be       	out	0x3f, r0	; 63
    1d96:	cd bf       	out	0x3d, r28	; 61
    1d98:	df 91       	pop	r29
    1d9a:	cf 91       	pop	r28
    1d9c:	1f 91       	pop	r17
    1d9e:	0f 91       	pop	r16
    1da0:	ff 90       	pop	r15
    1da2:	ef 90       	pop	r14
    1da4:	df 90       	pop	r13
    1da6:	cf 90       	pop	r12
    1da8:	bf 90       	pop	r11
    1daa:	af 90       	pop	r10
    1dac:	08 95       	ret

00001dae <Cmd_get_pressure>:

int
Cmd_get_pressure(int argc, char *argv[])
{
    1dae:	cf 93       	push	r28
    1db0:	df 93       	push	r29
    1db2:	00 d0       	rcall	.+0      	; 0x1db4 <Cmd_get_pressure+0x6>
    1db4:	00 d0       	rcall	.+0      	; 0x1db6 <Cmd_get_pressure+0x8>
    1db6:	00 d0       	rcall	.+0      	; 0x1db8 <Cmd_get_pressure+0xa>
    1db8:	cd b7       	in	r28, 0x3d	; 61
    1dba:	de b7       	in	r29, 0x3e	; 62
    1dbc:	9c 83       	std	Y+4, r25	; 0x04
    1dbe:	8b 83       	std	Y+3, r24	; 0x03
    1dc0:	7e 83       	std	Y+6, r23	; 0x06
    1dc2:	6d 83       	std	Y+5, r22	; 0x05
	if (argc > 1) return CMDLINE_TOO_MANY_ARGS;
    1dc4:	8b 81       	ldd	r24, Y+3	; 0x03
    1dc6:	9c 81       	ldd	r25, Y+4	; 0x04
    1dc8:	02 97       	sbiw	r24, 0x02	; 2
    1dca:	1c f0       	brlt	.+6      	; 0x1dd2 <Cmd_get_pressure+0x24>
    1dcc:	82 e0       	ldi	r24, 0x02	; 2
    1dce:	90 e0       	ldi	r25, 0x00	; 0
    1dd0:	17 c0       	rjmp	.+46     	; 0x1e00 <Cmd_get_pressure+0x52>
	uint16_t _pressure = get_pressure();
    1dd2:	0e 94 6b 12 	call	0x24d6	; 0x24d6 <get_pressure>
    1dd6:	9a 83       	std	Y+2, r25	; 0x02
    1dd8:	89 83       	std	Y+1, r24	; 0x01
	UARTprintf("Press: %d\r\n", _pressure);
    1dda:	8a 81       	ldd	r24, Y+2	; 0x02
    1ddc:	8f 93       	push	r24
    1dde:	89 81       	ldd	r24, Y+1	; 0x01
    1de0:	8f 93       	push	r24
    1de2:	88 e4       	ldi	r24, 0x48	; 72
    1de4:	9a e0       	ldi	r25, 0x0A	; 10
    1de6:	89 2f       	mov	r24, r25
    1de8:	8f 93       	push	r24
    1dea:	88 e4       	ldi	r24, 0x48	; 72
    1dec:	9a e0       	ldi	r25, 0x0A	; 10
    1dee:	8f 93       	push	r24
    1df0:	0e 94 2c 21 	call	0x4258	; 0x4258 <UARTprintf>
    1df4:	0f 90       	pop	r0
    1df6:	0f 90       	pop	r0
    1df8:	0f 90       	pop	r0
    1dfa:	0f 90       	pop	r0
	return CMDLINE_OK;
    1dfc:	80 e0       	ldi	r24, 0x00	; 0
    1dfe:	90 e0       	ldi	r25, 0x00	; 0
}
    1e00:	26 96       	adiw	r28, 0x06	; 6
    1e02:	0f b6       	in	r0, 0x3f	; 63
    1e04:	f8 94       	cli
    1e06:	de bf       	out	0x3e, r29	; 62
    1e08:	0f be       	out	0x3f, r0	; 63
    1e0a:	cd bf       	out	0x3d, r28	; 61
    1e0c:	df 91       	pop	r29
    1e0e:	cf 91       	pop	r28
    1e10:	08 95       	ret

00001e12 <Cmd_get_parameters>:

int
Cmd_get_parameters(int argc, char *argv[])
{
    1e12:	af 92       	push	r10
    1e14:	bf 92       	push	r11
    1e16:	cf 92       	push	r12
    1e18:	df 92       	push	r13
    1e1a:	ef 92       	push	r14
    1e1c:	ff 92       	push	r15
    1e1e:	0f 93       	push	r16
    1e20:	1f 93       	push	r17
    1e22:	cf 93       	push	r28
    1e24:	df 93       	push	r29
    1e26:	cd b7       	in	r28, 0x3d	; 61
    1e28:	de b7       	in	r29, 0x3e	; 62
    1e2a:	ab 97       	sbiw	r28, 0x2b	; 43
    1e2c:	0f b6       	in	r0, 0x3f	; 63
    1e2e:	f8 94       	cli
    1e30:	de bf       	out	0x3e, r29	; 62
    1e32:	0f be       	out	0x3f, r0	; 63
    1e34:	cd bf       	out	0x3d, r28	; 61
    1e36:	99 a7       	std	Y+41, r25	; 0x29
    1e38:	88 a7       	std	Y+40, r24	; 0x28
    1e3a:	7b a7       	std	Y+43, r23	; 0x2b
    1e3c:	6a a7       	std	Y+42, r22	; 0x2a
	char buffer[20];
	for (uint8_t i = 0; i < 4; i++)
    1e3e:	19 82       	std	Y+1, r1	; 0x01
    1e40:	30 c0       	rjmp	.+96     	; 0x1ea2 <Cmd_get_parameters+0x90>
	{
		sprintf(buffer, "NTC[%d]: %i",i , temperature_get_NTC(i));
    1e42:	89 81       	ldd	r24, Y+1	; 0x01
    1e44:	0e 94 91 12 	call	0x2522	; 0x2522 <temperature_get_NTC>
    1e48:	9c 01       	movw	r18, r24
    1e4a:	89 81       	ldd	r24, Y+1	; 0x01
    1e4c:	88 2f       	mov	r24, r24
    1e4e:	90 e0       	ldi	r25, 0x00	; 0
    1e50:	43 2f       	mov	r20, r19
    1e52:	4f 93       	push	r20
    1e54:	2f 93       	push	r18
    1e56:	29 2f       	mov	r18, r25
    1e58:	2f 93       	push	r18
    1e5a:	8f 93       	push	r24
    1e5c:	89 e2       	ldi	r24, 0x29	; 41
    1e5e:	99 e0       	ldi	r25, 0x09	; 9
    1e60:	89 2f       	mov	r24, r25
    1e62:	8f 93       	push	r24
    1e64:	89 e2       	ldi	r24, 0x29	; 41
    1e66:	99 e0       	ldi	r25, 0x09	; 9
    1e68:	8f 93       	push	r24
    1e6a:	ce 01       	movw	r24, r28
    1e6c:	04 96       	adiw	r24, 0x04	; 4
    1e6e:	29 2f       	mov	r18, r25
    1e70:	2f 93       	push	r18
    1e72:	8f 93       	push	r24
    1e74:	0e 94 b6 34 	call	0x696c	; 0x696c <sprintf>
    1e78:	8d b7       	in	r24, 0x3d	; 61
    1e7a:	9e b7       	in	r25, 0x3e	; 62
    1e7c:	08 96       	adiw	r24, 0x08	; 8
    1e7e:	0f b6       	in	r0, 0x3f	; 63
    1e80:	f8 94       	cli
    1e82:	de bf       	out	0x3e, r29	; 62
    1e84:	0f be       	out	0x3f, r0	; 63
    1e86:	cd bf       	out	0x3d, r28	; 61
		usart0_send_array(buffer, strlen(buffer));
    1e88:	ce 01       	movw	r24, r28
    1e8a:	04 96       	adiw	r24, 0x04	; 4
    1e8c:	0e 94 5e 34 	call	0x68bc	; 0x68bc <strlen>
    1e90:	28 2f       	mov	r18, r24
    1e92:	ce 01       	movw	r24, r28
    1e94:	04 96       	adiw	r24, 0x04	; 4
    1e96:	62 2f       	mov	r22, r18
    1e98:	0e 94 0e 1c 	call	0x381c	; 0x381c <usart0_send_array>

int
Cmd_get_parameters(int argc, char *argv[])
{
	char buffer[20];
	for (uint8_t i = 0; i < 4; i++)
    1e9c:	89 81       	ldd	r24, Y+1	; 0x01
    1e9e:	8f 5f       	subi	r24, 0xFF	; 255
    1ea0:	89 83       	std	Y+1, r24	; 0x01
    1ea2:	89 81       	ldd	r24, Y+1	; 0x01
    1ea4:	84 30       	cpi	r24, 0x04	; 4
    1ea6:	68 f2       	brcs	.-102    	; 0x1e42 <Cmd_get_parameters+0x30>
	{
		sprintf(buffer, "NTC[%d]: %i",i , temperature_get_NTC(i));
		usart0_send_array(buffer, strlen(buffer));
	}
	UARTprintf("Status TEC:");
    1ea8:	84 e5       	ldi	r24, 0x54	; 84
    1eaa:	9a e0       	ldi	r25, 0x0A	; 10
    1eac:	89 2f       	mov	r24, r25
    1eae:	8f 93       	push	r24
    1eb0:	84 e5       	ldi	r24, 0x54	; 84
    1eb2:	9a e0       	ldi	r25, 0x0A	; 10
    1eb4:	8f 93       	push	r24
    1eb6:	0e 94 2c 21 	call	0x4258	; 0x4258 <UARTprintf>
    1eba:	0f 90       	pop	r0
    1ebc:	0f 90       	pop	r0
	temperature_get_status();
    1ebe:	0e 94 fa 13 	call	0x27f4	; 0x27f4 <temperature_get_status>
	rgbw_color RGBW = ringled_get_RGBW();
    1ec2:	0e 94 3e 29 	call	0x527c	; 0x527c <ringled_get_RGBW>
    1ec6:	dc 01       	movw	r26, r24
    1ec8:	cb 01       	movw	r24, r22
    1eca:	88 8f       	std	Y+24, r24	; 0x18
    1ecc:	99 8f       	std	Y+25, r25	; 0x19
    1ece:	aa 8f       	std	Y+26, r26	; 0x1a
    1ed0:	bb 8f       	std	Y+27, r27	; 0x1b
	UARTprintf("RINLED: R=%d, G=%d, B=%d, W=%d\r\n", RGBW.red, RGBW.green, RGBW.blue, RGBW.white);
    1ed2:	8b 8d       	ldd	r24, Y+27	; 0x1b
    1ed4:	68 2f       	mov	r22, r24
    1ed6:	70 e0       	ldi	r23, 0x00	; 0
    1ed8:	8a 8d       	ldd	r24, Y+26	; 0x1a
    1eda:	48 2f       	mov	r20, r24
    1edc:	50 e0       	ldi	r21, 0x00	; 0
    1ede:	89 8d       	ldd	r24, Y+25	; 0x19
    1ee0:	28 2f       	mov	r18, r24
    1ee2:	30 e0       	ldi	r19, 0x00	; 0
    1ee4:	88 8d       	ldd	r24, Y+24	; 0x18
    1ee6:	88 2f       	mov	r24, r24
    1ee8:	90 e0       	ldi	r25, 0x00	; 0
    1eea:	e7 2f       	mov	r30, r23
    1eec:	ef 93       	push	r30
    1eee:	6f 93       	push	r22
    1ef0:	65 2f       	mov	r22, r21
    1ef2:	6f 93       	push	r22
    1ef4:	4f 93       	push	r20
    1ef6:	43 2f       	mov	r20, r19
    1ef8:	4f 93       	push	r20
    1efa:	2f 93       	push	r18
    1efc:	29 2f       	mov	r18, r25
    1efe:	2f 93       	push	r18
    1f00:	8f 93       	push	r24
    1f02:	80 e6       	ldi	r24, 0x60	; 96
    1f04:	9a e0       	ldi	r25, 0x0A	; 10
    1f06:	89 2f       	mov	r24, r25
    1f08:	8f 93       	push	r24
    1f0a:	80 e6       	ldi	r24, 0x60	; 96
    1f0c:	9a e0       	ldi	r25, 0x0A	; 10
    1f0e:	8f 93       	push	r24
    1f10:	0e 94 2c 21 	call	0x4258	; 0x4258 <UARTprintf>
    1f14:	8d b7       	in	r24, 0x3d	; 61
    1f16:	9e b7       	in	r25, 0x3e	; 62
    1f18:	0a 96       	adiw	r24, 0x0a	; 10
    1f1a:	0f b6       	in	r0, 0x3f	; 63
    1f1c:	f8 94       	cli
    1f1e:	de bf       	out	0x3e, r29	; 62
    1f20:	0f be       	out	0x3f, r0	; 63
    1f22:	cd bf       	out	0x3d, r28	; 61
	UARTprintf("IRLED: duty %d %%\r\n", IR_led_get_Current_DutyCyclesPercent());
    1f24:	0e 94 f9 10 	call	0x21f2	; 0x21f2 <IR_led_get_Current_DutyCyclesPercent>
    1f28:	88 2f       	mov	r24, r24
    1f2a:	90 e0       	ldi	r25, 0x00	; 0
    1f2c:	29 2f       	mov	r18, r25
    1f2e:	2f 93       	push	r18
    1f30:	8f 93       	push	r24
    1f32:	81 e8       	ldi	r24, 0x81	; 129
    1f34:	9a e0       	ldi	r25, 0x0A	; 10
    1f36:	89 2f       	mov	r24, r25
    1f38:	8f 93       	push	r24
    1f3a:	81 e8       	ldi	r24, 0x81	; 129
    1f3c:	9a e0       	ldi	r25, 0x0A	; 10
    1f3e:	8f 93       	push	r24
    1f40:	0e 94 2c 21 	call	0x4258	; 0x4258 <UARTprintf>
    1f44:	0f 90       	pop	r0
    1f46:	0f 90       	pop	r0
    1f48:	0f 90       	pop	r0
    1f4a:	0f 90       	pop	r0
	
	// Accel and Gyro
	Accel_Gyro_DataTypedef _accel_data = get_acceleration();
    1f4c:	0e 94 c1 05 	call	0xb82	; 0xb82 <get_acceleration>
    1f50:	a2 2e       	mov	r10, r18
    1f52:	b3 2e       	mov	r11, r19
    1f54:	c4 2e       	mov	r12, r20
    1f56:	d5 2e       	mov	r13, r21
    1f58:	e6 2e       	mov	r14, r22
    1f5a:	f7 2e       	mov	r15, r23
    1f5c:	08 2f       	mov	r16, r24
    1f5e:	19 2f       	mov	r17, r25
    1f60:	2a 2d       	mov	r18, r10
    1f62:	3b 2d       	mov	r19, r11
    1f64:	4c 2d       	mov	r20, r12
    1f66:	5d 2d       	mov	r21, r13
    1f68:	6e 2d       	mov	r22, r14
    1f6a:	7f 2d       	mov	r23, r15
    1f6c:	80 2f       	mov	r24, r16
    1f6e:	91 2f       	mov	r25, r17
    1f70:	2c 8f       	std	Y+28, r18	; 0x1c
    1f72:	3d 8f       	std	Y+29, r19	; 0x1d
    1f74:	4e 8f       	std	Y+30, r20	; 0x1e
    1f76:	5f 8f       	std	Y+31, r21	; 0x1f
    1f78:	68 a3       	std	Y+32, r22	; 0x20
    1f7a:	79 a3       	std	Y+33, r23	; 0x21
	Accel_Gyro_DataTypedef _gyro_data = get_gyroscope();
    1f7c:	0e 94 0c 06 	call	0xc18	; 0xc18 <get_gyroscope>
    1f80:	a2 2e       	mov	r10, r18
    1f82:	b3 2e       	mov	r11, r19
    1f84:	c4 2e       	mov	r12, r20
    1f86:	d5 2e       	mov	r13, r21
    1f88:	e6 2e       	mov	r14, r22
    1f8a:	f7 2e       	mov	r15, r23
    1f8c:	08 2f       	mov	r16, r24
    1f8e:	19 2f       	mov	r17, r25
    1f90:	2a 2d       	mov	r18, r10
    1f92:	3b 2d       	mov	r19, r11
    1f94:	4c 2d       	mov	r20, r12
    1f96:	5d 2d       	mov	r21, r13
    1f98:	6e 2d       	mov	r22, r14
    1f9a:	7f 2d       	mov	r23, r15
    1f9c:	80 2f       	mov	r24, r16
    1f9e:	91 2f       	mov	r25, r17
    1fa0:	2a a3       	std	Y+34, r18	; 0x22
    1fa2:	3b a3       	std	Y+35, r19	; 0x23
    1fa4:	4c a3       	std	Y+36, r20	; 0x24
    1fa6:	5d a3       	std	Y+37, r21	; 0x25
    1fa8:	6e a3       	std	Y+38, r22	; 0x26
    1faa:	7f a3       	std	Y+39, r23	; 0x27
	sprintf(buffer,"Acceleration %i %i %i \r\n", _accel_data.x, _accel_data.y, _accel_data.z);
    1fac:	48 a1       	ldd	r20, Y+32	; 0x20
    1fae:	59 a1       	ldd	r21, Y+33	; 0x21
    1fb0:	2e 8d       	ldd	r18, Y+30	; 0x1e
    1fb2:	3f 8d       	ldd	r19, Y+31	; 0x1f
    1fb4:	8c 8d       	ldd	r24, Y+28	; 0x1c
    1fb6:	9d 8d       	ldd	r25, Y+29	; 0x1d
    1fb8:	65 2f       	mov	r22, r21
    1fba:	6f 93       	push	r22
    1fbc:	4f 93       	push	r20
    1fbe:	43 2f       	mov	r20, r19
    1fc0:	4f 93       	push	r20
    1fc2:	2f 93       	push	r18
    1fc4:	29 2f       	mov	r18, r25
    1fc6:	2f 93       	push	r18
    1fc8:	8f 93       	push	r24
    1fca:	8a e1       	ldi	r24, 0x1A	; 26
    1fcc:	9a e0       	ldi	r25, 0x0A	; 10
    1fce:	89 2f       	mov	r24, r25
    1fd0:	8f 93       	push	r24
    1fd2:	8a e1       	ldi	r24, 0x1A	; 26
    1fd4:	9a e0       	ldi	r25, 0x0A	; 10
    1fd6:	8f 93       	push	r24
    1fd8:	ce 01       	movw	r24, r28
    1fda:	04 96       	adiw	r24, 0x04	; 4
    1fdc:	29 2f       	mov	r18, r25
    1fde:	2f 93       	push	r18
    1fe0:	8f 93       	push	r24
    1fe2:	0e 94 b6 34 	call	0x696c	; 0x696c <sprintf>
    1fe6:	8d b7       	in	r24, 0x3d	; 61
    1fe8:	9e b7       	in	r25, 0x3e	; 62
    1fea:	0a 96       	adiw	r24, 0x0a	; 10
    1fec:	0f b6       	in	r0, 0x3f	; 63
    1fee:	f8 94       	cli
    1ff0:	de bf       	out	0x3e, r29	; 62
    1ff2:	0f be       	out	0x3f, r0	; 63
    1ff4:	cd bf       	out	0x3d, r28	; 61
	usart0_send_array(buffer, strlen(buffer));
    1ff6:	ce 01       	movw	r24, r28
    1ff8:	04 96       	adiw	r24, 0x04	; 4
    1ffa:	0e 94 5e 34 	call	0x68bc	; 0x68bc <strlen>
    1ffe:	28 2f       	mov	r18, r24
    2000:	ce 01       	movw	r24, r28
    2002:	04 96       	adiw	r24, 0x04	; 4
    2004:	62 2f       	mov	r22, r18
    2006:	0e 94 0e 1c 	call	0x381c	; 0x381c <usart0_send_array>
	sprintf(buffer,"Gyroscope %i %i %i\r\n", _gyro_data.x, _gyro_data.y, _gyro_data.z);
    200a:	4e a1       	ldd	r20, Y+38	; 0x26
    200c:	5f a1       	ldd	r21, Y+39	; 0x27
    200e:	2c a1       	ldd	r18, Y+36	; 0x24
    2010:	3d a1       	ldd	r19, Y+37	; 0x25
    2012:	8a a1       	ldd	r24, Y+34	; 0x22
    2014:	9b a1       	ldd	r25, Y+35	; 0x23
    2016:	65 2f       	mov	r22, r21
    2018:	6f 93       	push	r22
    201a:	4f 93       	push	r20
    201c:	43 2f       	mov	r20, r19
    201e:	4f 93       	push	r20
    2020:	2f 93       	push	r18
    2022:	29 2f       	mov	r18, r25
    2024:	2f 93       	push	r18
    2026:	8f 93       	push	r24
    2028:	83 e3       	ldi	r24, 0x33	; 51
    202a:	9a e0       	ldi	r25, 0x0A	; 10
    202c:	89 2f       	mov	r24, r25
    202e:	8f 93       	push	r24
    2030:	83 e3       	ldi	r24, 0x33	; 51
    2032:	9a e0       	ldi	r25, 0x0A	; 10
    2034:	8f 93       	push	r24
    2036:	ce 01       	movw	r24, r28
    2038:	04 96       	adiw	r24, 0x04	; 4
    203a:	29 2f       	mov	r18, r25
    203c:	2f 93       	push	r18
    203e:	8f 93       	push	r24
    2040:	0e 94 b6 34 	call	0x696c	; 0x696c <sprintf>
    2044:	8d b7       	in	r24, 0x3d	; 61
    2046:	9e b7       	in	r25, 0x3e	; 62
    2048:	0a 96       	adiw	r24, 0x0a	; 10
    204a:	0f b6       	in	r0, 0x3f	; 63
    204c:	f8 94       	cli
    204e:	de bf       	out	0x3e, r29	; 62
    2050:	0f be       	out	0x3f, r0	; 63
    2052:	cd bf       	out	0x3d, r28	; 61
	usart0_send_array(buffer, strlen(buffer));
    2054:	ce 01       	movw	r24, r28
    2056:	04 96       	adiw	r24, 0x04	; 4
    2058:	0e 94 5e 34 	call	0x68bc	; 0x68bc <strlen>
    205c:	28 2f       	mov	r18, r24
    205e:	ce 01       	movw	r24, r28
    2060:	04 96       	adiw	r24, 0x04	; 4
    2062:	62 2f       	mov	r22, r18
    2064:	0e 94 0e 1c 	call	0x381c	; 0x381c <usart0_send_array>
	
	// Pressure
	uint16_t _pressure_data = get_pressure();
    2068:	0e 94 6b 12 	call	0x24d6	; 0x24d6 <get_pressure>
    206c:	9b 83       	std	Y+3, r25	; 0x03
    206e:	8a 83       	std	Y+2, r24	; 0x02
	UARTprintf("Press: %d\r\n", _pressure_data);
    2070:	8b 81       	ldd	r24, Y+3	; 0x03
    2072:	8f 93       	push	r24
    2074:	8a 81       	ldd	r24, Y+2	; 0x02
    2076:	8f 93       	push	r24
    2078:	88 e4       	ldi	r24, 0x48	; 72
    207a:	9a e0       	ldi	r25, 0x0A	; 10
    207c:	89 2f       	mov	r24, r25
    207e:	8f 93       	push	r24
    2080:	88 e4       	ldi	r24, 0x48	; 72
    2082:	9a e0       	ldi	r25, 0x0A	; 10
    2084:	8f 93       	push	r24
    2086:	0e 94 2c 21 	call	0x4258	; 0x4258 <UARTprintf>
    208a:	0f 90       	pop	r0
    208c:	0f 90       	pop	r0
    208e:	0f 90       	pop	r0
    2090:	0f 90       	pop	r0
	
	return CMDLINE_OK;
    2092:	80 e0       	ldi	r24, 0x00	; 0
    2094:	90 e0       	ldi	r25, 0x00	; 0
}
    2096:	ab 96       	adiw	r28, 0x2b	; 43
    2098:	0f b6       	in	r0, 0x3f	; 63
    209a:	f8 94       	cli
    209c:	de bf       	out	0x3e, r29	; 62
    209e:	0f be       	out	0x3f, r0	; 63
    20a0:	cd bf       	out	0x3d, r28	; 61
    20a2:	df 91       	pop	r29
    20a4:	cf 91       	pop	r28
    20a6:	1f 91       	pop	r17
    20a8:	0f 91       	pop	r16
    20aa:	ff 90       	pop	r15
    20ac:	ef 90       	pop	r14
    20ae:	df 90       	pop	r13
    20b0:	cf 90       	pop	r12
    20b2:	bf 90       	pop	r11
    20b4:	af 90       	pop	r10
    20b6:	08 95       	ret

000020b8 <Cmd_can_transmit>:

//new code 8/7/2024

int
Cmd_can_transmit(int argc, char *argv[])
{
    20b8:	cf 93       	push	r28
    20ba:	df 93       	push	r29
    20bc:	00 d0       	rcall	.+0      	; 0x20be <Cmd_can_transmit+0x6>
    20be:	00 d0       	rcall	.+0      	; 0x20c0 <Cmd_can_transmit+0x8>
    20c0:	cd b7       	in	r28, 0x3d	; 61
    20c2:	de b7       	in	r29, 0x3e	; 62
    20c4:	9a 83       	std	Y+2, r25	; 0x02
    20c6:	89 83       	std	Y+1, r24	; 0x01
    20c8:	7c 83       	std	Y+4, r23	; 0x04
    20ca:	6b 83       	std	Y+3, r22	; 0x03
	if (argc > 1) return CMDLINE_TOO_MANY_ARGS;
    20cc:	89 81       	ldd	r24, Y+1	; 0x01
    20ce:	9a 81       	ldd	r25, Y+2	; 0x02
    20d0:	02 97       	sbiw	r24, 0x02	; 2
    20d2:	1c f0       	brlt	.+6      	; 0x20da <Cmd_can_transmit+0x22>
    20d4:	82 e0       	ldi	r24, 0x02	; 2
    20d6:	90 e0       	ldi	r25, 0x00	; 0
    20d8:	30 c0       	rjmp	.+96     	; 0x213a <Cmd_can_transmit+0x82>
	txMessage.frame.idType = dSTANDARD_CAN_MSG_ID_2_0B;
    20da:	81 e0       	ldi	r24, 0x01	; 1
    20dc:	80 93 8a 0c 	sts	0x0C8A, r24	; 0x800c8a <txMessage>
	txMessage.frame.id = 0x0A;
    20e0:	8a e0       	ldi	r24, 0x0A	; 10
    20e2:	90 e0       	ldi	r25, 0x00	; 0
    20e4:	a0 e0       	ldi	r26, 0x00	; 0
    20e6:	b0 e0       	ldi	r27, 0x00	; 0
    20e8:	80 93 8b 0c 	sts	0x0C8B, r24	; 0x800c8b <txMessage+0x1>
    20ec:	90 93 8c 0c 	sts	0x0C8C, r25	; 0x800c8c <txMessage+0x2>
    20f0:	a0 93 8d 0c 	sts	0x0C8D, r26	; 0x800c8d <txMessage+0x3>
    20f4:	b0 93 8e 0c 	sts	0x0C8E, r27	; 0x800c8e <txMessage+0x4>
	txMessage.frame.dlc = 8;
    20f8:	88 e0       	ldi	r24, 0x08	; 8
    20fa:	80 93 8f 0c 	sts	0x0C8F, r24	; 0x800c8f <txMessage+0x5>
	txMessage.frame.data0 = 1;
    20fe:	81 e0       	ldi	r24, 0x01	; 1
    2100:	80 93 90 0c 	sts	0x0C90, r24	; 0x800c90 <txMessage+0x6>
	txMessage.frame.data1 = 3;
    2104:	83 e0       	ldi	r24, 0x03	; 3
    2106:	80 93 91 0c 	sts	0x0C91, r24	; 0x800c91 <txMessage+0x7>
	txMessage.frame.data2 = 5;
    210a:	85 e0       	ldi	r24, 0x05	; 5
    210c:	80 93 92 0c 	sts	0x0C92, r24	; 0x800c92 <txMessage+0x8>
	txMessage.frame.data3 = 7;
    2110:	87 e0       	ldi	r24, 0x07	; 7
    2112:	80 93 93 0c 	sts	0x0C93, r24	; 0x800c93 <txMessage+0x9>
	txMessage.frame.data4 = 9;
    2116:	89 e0       	ldi	r24, 0x09	; 9
    2118:	80 93 94 0c 	sts	0x0C94, r24	; 0x800c94 <txMessage+0xa>
	txMessage.frame.data5 = 11;
    211c:	8b e0       	ldi	r24, 0x0B	; 11
    211e:	80 93 95 0c 	sts	0x0C95, r24	; 0x800c95 <txMessage+0xb>
	txMessage.frame.data6 = 13;
    2122:	8d e0       	ldi	r24, 0x0D	; 13
    2124:	80 93 96 0c 	sts	0x0C96, r24	; 0x800c96 <txMessage+0xc>
	txMessage.frame.data7 = 15;
    2128:	8f e0       	ldi	r24, 0x0F	; 15
    212a:	80 93 97 0c 	sts	0x0C97, r24	; 0x800c97 <txMessage+0xd>
	CANSPI_Transmit(&txMessage);	
    212e:	8a e8       	ldi	r24, 0x8A	; 138
    2130:	9c e0       	ldi	r25, 0x0C	; 12
    2132:	0e 94 74 22 	call	0x44e8	; 0x44e8 <CANSPI_Transmit>
	return CMDLINE_OK;
    2136:	80 e0       	ldi	r24, 0x00	; 0
    2138:	90 e0       	ldi	r25, 0x00	; 0
}
    213a:	0f 90       	pop	r0
    213c:	0f 90       	pop	r0
    213e:	0f 90       	pop	r0
    2140:	0f 90       	pop	r0
    2142:	df 91       	pop	r29
    2144:	cf 91       	pop	r28
    2146:	08 95       	ret

00002148 <Cmd_can_status>:

int
Cmd_can_status(int argc, char *argv[])
{
    2148:	cf 93       	push	r28
    214a:	df 93       	push	r29
    214c:	00 d0       	rcall	.+0      	; 0x214e <Cmd_can_status+0x6>
    214e:	00 d0       	rcall	.+0      	; 0x2150 <Cmd_can_status+0x8>
    2150:	cd b7       	in	r28, 0x3d	; 61
    2152:	de b7       	in	r29, 0x3e	; 62
    2154:	9a 83       	std	Y+2, r25	; 0x02
    2156:	89 83       	std	Y+1, r24	; 0x01
    2158:	7c 83       	std	Y+4, r23	; 0x04
    215a:	6b 83       	std	Y+3, r22	; 0x03
	if (argc > 1) return CMDLINE_TOO_MANY_ARGS;
    215c:	89 81       	ldd	r24, Y+1	; 0x01
    215e:	9a 81       	ldd	r25, Y+2	; 0x02
    2160:	02 97       	sbiw	r24, 0x02	; 2
    2162:	1c f0       	brlt	.+6      	; 0x216a <Cmd_can_status+0x22>
    2164:	82 e0       	ldi	r24, 0x02	; 2
    2166:	90 e0       	ldi	r25, 0x00	; 0
    2168:	04 c0       	rjmp	.+8      	; 0x2172 <Cmd_can_status+0x2a>
	CAN_report();	
    216a:	0e 94 7d 06 	call	0xcfa	; 0xcfa <CAN_report>
	/*	UARTprintf("\r\n");*/
	return CMDLINE_OK;
    216e:	80 e0       	ldi	r24, 0x00	; 0
    2170:	90 e0       	ldi	r25, 0x00	; 0
}
    2172:	0f 90       	pop	r0
    2174:	0f 90       	pop	r0
    2176:	0f 90       	pop	r0
    2178:	0f 90       	pop	r0
    217a:	df 91       	pop	r29
    217c:	cf 91       	pop	r28
    217e:	08 95       	ret

00002180 <command_send_splash>:
	{".......................................................\r\n"},
	{"\r\n"}
};

void	command_send_splash(void)
{
    2180:	cf 93       	push	r28
    2182:	df 93       	push	r29
    2184:	1f 92       	push	r1
    2186:	cd b7       	in	r28, 0x3d	; 61
    2188:	de b7       	in	r29, 0x3e	; 62
	for(uint8_t i = 0 ; i < 28 ; i++) 
    218a:	19 82       	std	Y+1, r1	; 0x01
    218c:	10 c0       	rjmp	.+32     	; 0x21ae <command_send_splash+0x2e>
		usart0_send_string_P(&SPLASH[i][0]);
    218e:	89 81       	ldd	r24, Y+1	; 0x01
    2190:	28 2f       	mov	r18, r24
    2192:	30 e0       	ldi	r19, 0x00	; 0
    2194:	41 e4       	ldi	r20, 0x41	; 65
    2196:	42 9f       	mul	r20, r18
    2198:	c0 01       	movw	r24, r0
    219a:	43 9f       	mul	r20, r19
    219c:	90 0d       	add	r25, r0
    219e:	11 24       	eor	r1, r1
    21a0:	88 5d       	subi	r24, 0xD8	; 216
    21a2:	9b 4f       	sbci	r25, 0xFB	; 251
    21a4:	0e 94 33 1c 	call	0x3866	; 0x3866 <usart0_send_string_P>
	{"\r\n"}
};

void	command_send_splash(void)
{
	for(uint8_t i = 0 ; i < 28 ; i++) 
    21a8:	89 81       	ldd	r24, Y+1	; 0x01
    21aa:	8f 5f       	subi	r24, 0xFF	; 255
    21ac:	89 83       	std	Y+1, r24	; 0x01
    21ae:	89 81       	ldd	r24, Y+1	; 0x01
    21b0:	8c 31       	cpi	r24, 0x1C	; 28
    21b2:	68 f3       	brcs	.-38     	; 0x218e <command_send_splash+0xe>
		usart0_send_string_P(&SPLASH[i][0]);
	usart0_send_string("> ");
    21b4:	82 ea       	ldi	r24, 0xA2	; 162
    21b6:	98 e0       	ldi	r25, 0x08	; 8
    21b8:	0e 94 ef 1b 	call	0x37de	; 0x37de <usart0_send_string>
    21bc:	00 00       	nop
    21be:	0f 90       	pop	r0
    21c0:	df 91       	pop	r29
    21c2:	cf 91       	pop	r28
    21c4:	08 95       	ret

000021c6 <IR_led_set_DutyCyclesPercent>:
		pwm2_init(IR_LED_PIN, 1000, 0);
	#endif
}

void IR_led_set_DutyCyclesPercent(uint8_t _DutyCyclesPercent)
{
    21c6:	cf 93       	push	r28
    21c8:	df 93       	push	r29
    21ca:	1f 92       	push	r1
    21cc:	cd b7       	in	r28, 0x3d	; 61
    21ce:	de b7       	in	r29, 0x3e	; 62
    21d0:	89 83       	std	Y+1, r24	; 0x01
	if (_DutyCyclesPercent > 100) _DutyCyclesPercent = 100;
    21d2:	89 81       	ldd	r24, Y+1	; 0x01
    21d4:	85 36       	cpi	r24, 0x65	; 101
    21d6:	10 f0       	brcs	.+4      	; 0x21dc <IR_led_set_DutyCyclesPercent+0x16>
    21d8:	84 e6       	ldi	r24, 0x64	; 100
    21da:	89 83       	std	Y+1, r24	; 0x01
	#ifdef	IOU_HW_V1_0_0
		pwm1_set_DutyCyclePercent(_DutyCyclesPercent);
    21dc:	89 81       	ldd	r24, Y+1	; 0x01
    21de:	0e 94 8d 15 	call	0x2b1a	; 0x2b1a <pwm1_set_DutyCyclePercent>
		
	#ifdef	IOU_HW_V1_2_0
		pwm2_set_DutyCyclePercent(_DutyCyclesPercent);
	#endif
	
	IR_led_DutyCycle_status = _DutyCyclesPercent;
    21e2:	89 81       	ldd	r24, Y+1	; 0x01
    21e4:	80 93 c3 0b 	sts	0x0BC3, r24	; 0x800bc3 <IR_led_DutyCycle_status>
}
    21e8:	00 00       	nop
    21ea:	0f 90       	pop	r0
    21ec:	df 91       	pop	r29
    21ee:	cf 91       	pop	r28
    21f0:	08 95       	ret

000021f2 <IR_led_get_Current_DutyCyclesPercent>:

uint8_t IR_led_get_Current_DutyCyclesPercent(void)
{
    21f2:	cf 93       	push	r28
    21f4:	df 93       	push	r29
    21f6:	cd b7       	in	r28, 0x3d	; 61
    21f8:	de b7       	in	r29, 0x3e	; 62
	return (uint8_t)IR_led_DutyCycle_status;
    21fa:	80 91 c3 0b 	lds	r24, 0x0BC3	; 0x800bc3 <IR_led_DutyCycle_status>
    21fe:	df 91       	pop	r29
    2200:	cf 91       	pop	r28
    2202:	08 95       	ret

00002204 <status_led_init>:
static void status_led_led2_off(void);
static	void	status_led_powerup(void);


void status_led_init(void)
{
    2204:	cf 93       	push	r28
    2206:	df 93       	push	r29
    2208:	cd b7       	in	r28, 0x3d	; 61
    220a:	de b7       	in	r29, 0x3e	; 62
	LED1_DIR_PORT |= (1 << LED1_PIN);
    220c:	81 e6       	ldi	r24, 0x61	; 97
    220e:	90 e0       	ldi	r25, 0x00	; 0
    2210:	21 e6       	ldi	r18, 0x61	; 97
    2212:	30 e0       	ldi	r19, 0x00	; 0
    2214:	f9 01       	movw	r30, r18
    2216:	20 81       	ld	r18, Z
    2218:	24 60       	ori	r18, 0x04	; 4
    221a:	fc 01       	movw	r30, r24
    221c:	20 83       	st	Z, r18
	LED1_DATA_PORT &= ~((1 << LED1_PIN));
    221e:	82 e6       	ldi	r24, 0x62	; 98
    2220:	90 e0       	ldi	r25, 0x00	; 0
    2222:	22 e6       	ldi	r18, 0x62	; 98
    2224:	30 e0       	ldi	r19, 0x00	; 0
    2226:	f9 01       	movw	r30, r18
    2228:	20 81       	ld	r18, Z
    222a:	2b 7f       	andi	r18, 0xFB	; 251
    222c:	fc 01       	movw	r30, r24
    222e:	20 83       	st	Z, r18
	LED2_DIR_PORT |= (1 << LED2_PIN);
    2230:	81 e6       	ldi	r24, 0x61	; 97
    2232:	90 e0       	ldi	r25, 0x00	; 0
    2234:	21 e6       	ldi	r18, 0x61	; 97
    2236:	30 e0       	ldi	r19, 0x00	; 0
    2238:	f9 01       	movw	r30, r18
    223a:	20 81       	ld	r18, Z
    223c:	28 60       	ori	r18, 0x08	; 8
    223e:	fc 01       	movw	r30, r24
    2240:	20 83       	st	Z, r18
	LED2_DATA_PORT &= ~((1 << LED2_PIN));
    2242:	82 e6       	ldi	r24, 0x62	; 98
    2244:	90 e0       	ldi	r25, 0x00	; 0
    2246:	22 e6       	ldi	r18, 0x62	; 98
    2248:	30 e0       	ldi	r19, 0x00	; 0
    224a:	f9 01       	movw	r30, r18
    224c:	20 81       	ld	r18, Z
    224e:	27 7f       	andi	r18, 0xF7	; 247
    2250:	fc 01       	movw	r30, r24
    2252:	20 83       	st	Z, r18
	s_led_display_status.led1 = 0;
    2254:	80 91 c4 0b 	lds	r24, 0x0BC4	; 0x800bc4 <s_led_display_status>
    2258:	8e 7f       	andi	r24, 0xFE	; 254
    225a:	80 93 c4 0b 	sts	0x0BC4, r24	; 0x800bc4 <s_led_display_status>
	s_led_display_status.led2 = 0;
    225e:	80 91 c4 0b 	lds	r24, 0x0BC4	; 0x800bc4 <s_led_display_status>
    2262:	8d 7f       	andi	r24, 0xFD	; 253
    2264:	80 93 c4 0b 	sts	0x0BC4, r24	; 0x800bc4 <s_led_display_status>
	s_led_display_status.s_pIOU_Status = &IOU_data.IOU_State_Data;
    2268:	88 ea       	ldi	r24, 0xA8	; 168
    226a:	9e e0       	ldi	r25, 0x0E	; 14
    226c:	90 93 c6 0b 	sts	0x0BC6, r25	; 0x800bc6 <s_led_display_status+0x2>
    2270:	80 93 c5 0b 	sts	0x0BC5, r24	; 0x800bc5 <s_led_display_status+0x1>
	status_led_led1_off();
    2274:	0e 94 42 11 	call	0x2284	; 0x2284 <status_led_led1_off>
	status_led_led2_off();
    2278:	0e 94 64 11 	call	0x22c8	; 0x22c8 <status_led_led2_off>
	
}
    227c:	00 00       	nop
    227e:	df 91       	pop	r29
    2280:	cf 91       	pop	r28
    2282:	08 95       	ret

00002284 <status_led_led1_off>:

static void status_led_led1_off(void)
{
    2284:	cf 93       	push	r28
    2286:	df 93       	push	r29
    2288:	cd b7       	in	r28, 0x3d	; 61
    228a:	de b7       	in	r29, 0x3e	; 62
	LED1_DATA_PORT |= ((1 << LED1_PIN));	
    228c:	82 e6       	ldi	r24, 0x62	; 98
    228e:	90 e0       	ldi	r25, 0x00	; 0
    2290:	22 e6       	ldi	r18, 0x62	; 98
    2292:	30 e0       	ldi	r19, 0x00	; 0
    2294:	f9 01       	movw	r30, r18
    2296:	20 81       	ld	r18, Z
    2298:	24 60       	ori	r18, 0x04	; 4
    229a:	fc 01       	movw	r30, r24
    229c:	20 83       	st	Z, r18
}
    229e:	00 00       	nop
    22a0:	df 91       	pop	r29
    22a2:	cf 91       	pop	r28
    22a4:	08 95       	ret

000022a6 <status_led_led1_on>:

static void status_led_led1_on(void)
{
    22a6:	cf 93       	push	r28
    22a8:	df 93       	push	r29
    22aa:	cd b7       	in	r28, 0x3d	; 61
    22ac:	de b7       	in	r29, 0x3e	; 62
	LED1_DATA_PORT &= ~((1 << LED1_PIN));
    22ae:	82 e6       	ldi	r24, 0x62	; 98
    22b0:	90 e0       	ldi	r25, 0x00	; 0
    22b2:	22 e6       	ldi	r18, 0x62	; 98
    22b4:	30 e0       	ldi	r19, 0x00	; 0
    22b6:	f9 01       	movw	r30, r18
    22b8:	20 81       	ld	r18, Z
    22ba:	2b 7f       	andi	r18, 0xFB	; 251
    22bc:	fc 01       	movw	r30, r24
    22be:	20 83       	st	Z, r18
}
    22c0:	00 00       	nop
    22c2:	df 91       	pop	r29
    22c4:	cf 91       	pop	r28
    22c6:	08 95       	ret

000022c8 <status_led_led2_off>:

static void status_led_led2_off(void)
{
    22c8:	cf 93       	push	r28
    22ca:	df 93       	push	r29
    22cc:	cd b7       	in	r28, 0x3d	; 61
    22ce:	de b7       	in	r29, 0x3e	; 62
	LED2_DATA_PORT |= ((1 << LED2_PIN));
    22d0:	82 e6       	ldi	r24, 0x62	; 98
    22d2:	90 e0       	ldi	r25, 0x00	; 0
    22d4:	22 e6       	ldi	r18, 0x62	; 98
    22d6:	30 e0       	ldi	r19, 0x00	; 0
    22d8:	f9 01       	movw	r30, r18
    22da:	20 81       	ld	r18, Z
    22dc:	28 60       	ori	r18, 0x08	; 8
    22de:	fc 01       	movw	r30, r24
    22e0:	20 83       	st	Z, r18
}
    22e2:	00 00       	nop
    22e4:	df 91       	pop	r29
    22e6:	cf 91       	pop	r28
    22e8:	08 95       	ret

000022ea <status_led_led2_on>:

static void status_led_led2_on(void)
{
    22ea:	cf 93       	push	r28
    22ec:	df 93       	push	r29
    22ee:	cd b7       	in	r28, 0x3d	; 61
    22f0:	de b7       	in	r29, 0x3e	; 62
	LED2_DATA_PORT &= ~((1 << LED2_PIN));
    22f2:	82 e6       	ldi	r24, 0x62	; 98
    22f4:	90 e0       	ldi	r25, 0x00	; 0
    22f6:	22 e6       	ldi	r18, 0x62	; 98
    22f8:	30 e0       	ldi	r19, 0x00	; 0
    22fa:	f9 01       	movw	r30, r18
    22fc:	20 81       	ld	r18, Z
    22fe:	27 7f       	andi	r18, 0xF7	; 247
    2300:	fc 01       	movw	r30, r24
    2302:	20 83       	st	Z, r18
}
    2304:	00 00       	nop
    2306:	df 91       	pop	r29
    2308:	cf 91       	pop	r28
    230a:	08 95       	ret

0000230c <status_led_update>:
void	status_led_update(void)
{
    230c:	cf 93       	push	r28
    230e:	df 93       	push	r29
    2310:	cd b7       	in	r28, 0x3d	; 61
    2312:	de b7       	in	r29, 0x3e	; 62
	switch (*s_led_display_status.s_pIOU_Status) {
    2314:	80 91 c5 0b 	lds	r24, 0x0BC5	; 0x800bc5 <s_led_display_status+0x1>
    2318:	90 91 c6 0b 	lds	r25, 0x0BC6	; 0x800bc6 <s_led_display_status+0x2>
    231c:	fc 01       	movw	r30, r24
    231e:	80 81       	ld	r24, Z
    2320:	88 2f       	mov	r24, r24
    2322:	90 e0       	ldi	r25, 0x00	; 0
    2324:	00 97       	sbiw	r24, 0x00	; 0
    2326:	19 f0       	breq	.+6      	; 0x232e <status_led_update+0x22>
    2328:	01 97       	sbiw	r24, 0x01	; 1
    232a:	21 f0       	breq	.+8      	; 0x2334 <status_led_update+0x28>
		break;
	case IOU_NORMAL:
		status_led_normal();
		break;
	default:
		break;
    232c:	06 c0       	rjmp	.+12     	; 0x233a <status_led_update+0x2e>
}
void	status_led_update(void)
{
	switch (*s_led_display_status.s_pIOU_Status) {
	case IOU_POWERUP:
		status_led_powerup();
    232e:	0e 94 a1 11 	call	0x2342	; 0x2342 <status_led_powerup>
		break;
    2332:	03 c0       	rjmp	.+6      	; 0x233a <status_led_update+0x2e>
	case IOU_NORMAL:
		status_led_normal();
    2334:	0e 94 09 12 	call	0x2412	; 0x2412 <status_led_normal>
		break;
    2338:	00 00       	nop
	default:
		break;
	}
}
    233a:	00 00       	nop
    233c:	df 91       	pop	r29
    233e:	cf 91       	pop	r28
    2340:	08 95       	ret

00002342 <status_led_powerup>:
static	void	status_led_powerup(void)
{
    2342:	cf 93       	push	r28
    2344:	df 93       	push	r29
    2346:	cd b7       	in	r28, 0x3d	; 61
    2348:	de b7       	in	r29, 0x3e	; 62
		{
			if ((s_led_display_status.led1 == 1) && (s_led_display_status.led1 == 1))	//both ON
    234a:	80 91 c4 0b 	lds	r24, 0x0BC4	; 0x800bc4 <s_led_display_status>
    234e:	81 70       	andi	r24, 0x01	; 1
    2350:	88 23       	and	r24, r24
    2352:	09 f1       	breq	.+66     	; 0x2396 <status_led_powerup+0x54>
    2354:	80 91 c4 0b 	lds	r24, 0x0BC4	; 0x800bc4 <s_led_display_status>
    2358:	81 70       	andi	r24, 0x01	; 1
    235a:	88 23       	and	r24, r24
    235c:	e1 f0       	breq	.+56     	; 0x2396 <status_led_powerup+0x54>
			{
				if (SCH_TIM_HasCompleted(SCH_TIM_LED))
    235e:	80 e0       	ldi	r24, 0x00	; 0
    2360:	0e 94 75 2a 	call	0x54ea	; 0x54ea <SCH_TIM_HasCompleted>
    2364:	88 23       	and	r24, r24
    2366:	09 f4       	brne	.+2      	; 0x236a <status_led_powerup+0x28>
    2368:	50 c0       	rjmp	.+160    	; 0x240a <status_led_powerup+0xc8>
				{
					s_led_display_status.led1 = 0;
    236a:	80 91 c4 0b 	lds	r24, 0x0BC4	; 0x800bc4 <s_led_display_status>
    236e:	8e 7f       	andi	r24, 0xFE	; 254
    2370:	80 93 c4 0b 	sts	0x0BC4, r24	; 0x800bc4 <s_led_display_status>
					s_led_display_status.led1 = 0;
    2374:	80 91 c4 0b 	lds	r24, 0x0BC4	; 0x800bc4 <s_led_display_status>
    2378:	8e 7f       	andi	r24, 0xFE	; 254
    237a:	80 93 c4 0b 	sts	0x0BC4, r24	; 0x800bc4 <s_led_display_status>
					status_led_led1_off();
    237e:	0e 94 42 11 	call	0x2284	; 0x2284 <status_led_led1_off>
					status_led_led2_off();
    2382:	0e 94 64 11 	call	0x22c8	; 0x22c8 <status_led_led2_off>
					SCH_TIM_Start(SCH_TIM_LED,POWERUP_PERIOD);	//restart
    2386:	44 ef       	ldi	r20, 0xF4	; 244
    2388:	51 e0       	ldi	r21, 0x01	; 1
    238a:	60 e0       	ldi	r22, 0x00	; 0
    238c:	70 e0       	ldi	r23, 0x00	; 0
    238e:	80 e0       	ldi	r24, 0x00	; 0
    2390:	0e 94 51 2a 	call	0x54a2	; 0x54a2 <SCH_TIM_Start>
static	void	status_led_powerup(void)
{
		{
			if ((s_led_display_status.led1 == 1) && (s_led_display_status.led1 == 1))	//both ON
			{
				if (SCH_TIM_HasCompleted(SCH_TIM_LED))
    2394:	3a c0       	rjmp	.+116    	; 0x240a <status_led_powerup+0xc8>
					status_led_led1_off();
					status_led_led2_off();
					SCH_TIM_Start(SCH_TIM_LED,POWERUP_PERIOD);	//restart
				}
			}
			else if ((s_led_display_status.led1 == 0) && (s_led_display_status.led1 == 0))	//both OFF
    2396:	80 91 c4 0b 	lds	r24, 0x0BC4	; 0x800bc4 <s_led_display_status>
    239a:	81 70       	andi	r24, 0x01	; 1
    239c:	88 23       	and	r24, r24
    239e:	01 f5       	brne	.+64     	; 0x23e0 <status_led_powerup+0x9e>
    23a0:	80 91 c4 0b 	lds	r24, 0x0BC4	; 0x800bc4 <s_led_display_status>
    23a4:	81 70       	andi	r24, 0x01	; 1
    23a6:	88 23       	and	r24, r24
    23a8:	d9 f4       	brne	.+54     	; 0x23e0 <status_led_powerup+0x9e>
			{
				if (SCH_TIM_HasCompleted(SCH_TIM_LED))
    23aa:	80 e0       	ldi	r24, 0x00	; 0
    23ac:	0e 94 75 2a 	call	0x54ea	; 0x54ea <SCH_TIM_HasCompleted>
    23b0:	88 23       	and	r24, r24
    23b2:	59 f1       	breq	.+86     	; 0x240a <status_led_powerup+0xc8>
				{
					s_led_display_status.led1 = 1;
    23b4:	80 91 c4 0b 	lds	r24, 0x0BC4	; 0x800bc4 <s_led_display_status>
    23b8:	81 60       	ori	r24, 0x01	; 1
    23ba:	80 93 c4 0b 	sts	0x0BC4, r24	; 0x800bc4 <s_led_display_status>
					s_led_display_status.led1 = 1;
    23be:	80 91 c4 0b 	lds	r24, 0x0BC4	; 0x800bc4 <s_led_display_status>
    23c2:	81 60       	ori	r24, 0x01	; 1
    23c4:	80 93 c4 0b 	sts	0x0BC4, r24	; 0x800bc4 <s_led_display_status>
					status_led_led1_on();
    23c8:	0e 94 53 11 	call	0x22a6	; 0x22a6 <status_led_led1_on>
					status_led_led2_on();
    23cc:	0e 94 75 11 	call	0x22ea	; 0x22ea <status_led_led2_on>
					SCH_TIM_Start(SCH_TIM_LED,POWERUP_PERIOD);	//restart					
    23d0:	44 ef       	ldi	r20, 0xF4	; 244
    23d2:	51 e0       	ldi	r21, 0x01	; 1
    23d4:	60 e0       	ldi	r22, 0x00	; 0
    23d6:	70 e0       	ldi	r23, 0x00	; 0
    23d8:	80 e0       	ldi	r24, 0x00	; 0
    23da:	0e 94 51 2a 	call	0x54a2	; 0x54a2 <SCH_TIM_Start>
					SCH_TIM_Start(SCH_TIM_LED,POWERUP_PERIOD);	//restart
				}
			}
			else if ((s_led_display_status.led1 == 0) && (s_led_display_status.led1 == 0))	//both OFF
			{
				if (SCH_TIM_HasCompleted(SCH_TIM_LED))
    23de:	15 c0       	rjmp	.+42     	; 0x240a <status_led_powerup+0xc8>
				}

			}
			else
			{
				s_led_display_status.led1 = 0;
    23e0:	80 91 c4 0b 	lds	r24, 0x0BC4	; 0x800bc4 <s_led_display_status>
    23e4:	8e 7f       	andi	r24, 0xFE	; 254
    23e6:	80 93 c4 0b 	sts	0x0BC4, r24	; 0x800bc4 <s_led_display_status>
				s_led_display_status.led1 = 0;
    23ea:	80 91 c4 0b 	lds	r24, 0x0BC4	; 0x800bc4 <s_led_display_status>
    23ee:	8e 7f       	andi	r24, 0xFE	; 254
    23f0:	80 93 c4 0b 	sts	0x0BC4, r24	; 0x800bc4 <s_led_display_status>
				status_led_led1_off();
    23f4:	0e 94 42 11 	call	0x2284	; 0x2284 <status_led_led1_off>
				status_led_led2_off();
    23f8:	0e 94 64 11 	call	0x22c8	; 0x22c8 <status_led_led2_off>
				SCH_TIM_Start(SCH_TIM_LED,POWERUP_PERIOD);	//restart
    23fc:	44 ef       	ldi	r20, 0xF4	; 244
    23fe:	51 e0       	ldi	r21, 0x01	; 1
    2400:	60 e0       	ldi	r22, 0x00	; 0
    2402:	70 e0       	ldi	r23, 0x00	; 0
    2404:	80 e0       	ldi	r24, 0x00	; 0
    2406:	0e 94 51 2a 	call	0x54a2	; 0x54a2 <SCH_TIM_Start>
			}
		}
}
    240a:	00 00       	nop
    240c:	df 91       	pop	r29
    240e:	cf 91       	pop	r28
    2410:	08 95       	ret

00002412 <status_led_normal>:

static	void	status_led_normal(void)
{
    2412:	cf 93       	push	r28
    2414:	df 93       	push	r29
    2416:	cd b7       	in	r28, 0x3d	; 61
    2418:	de b7       	in	r29, 0x3e	; 62
	if (s_led_display_status.led1 == 1)
    241a:	80 91 c4 0b 	lds	r24, 0x0BC4	; 0x800bc4 <s_led_display_status>
    241e:	81 70       	andi	r24, 0x01	; 1
    2420:	88 23       	and	r24, r24
    2422:	a1 f0       	breq	.+40     	; 0x244c <status_led_normal+0x3a>
	{
		if (SCH_TIM_HasCompleted(SCH_TIM_LED))
    2424:	80 e0       	ldi	r24, 0x00	; 0
    2426:	0e 94 75 2a 	call	0x54ea	; 0x54ea <SCH_TIM_HasCompleted>
    242a:	88 23       	and	r24, r24
    242c:	39 f1       	breq	.+78     	; 0x247c <status_led_normal+0x6a>
			{
				s_led_display_status.led1 = 0;
    242e:	80 91 c4 0b 	lds	r24, 0x0BC4	; 0x800bc4 <s_led_display_status>
    2432:	8e 7f       	andi	r24, 0xFE	; 254
    2434:	80 93 c4 0b 	sts	0x0BC4, r24	; 0x800bc4 <s_led_display_status>
				status_led_led1_off();
    2438:	0e 94 42 11 	call	0x2284	; 0x2284 <status_led_led1_off>
				SCH_TIM_Start(SCH_TIM_LED,POWER_NORMAL_OFF_PERIOD);	//restart
    243c:	48 eb       	ldi	r20, 0xB8	; 184
    243e:	5b e0       	ldi	r21, 0x0B	; 11
    2440:	60 e0       	ldi	r22, 0x00	; 0
    2442:	70 e0       	ldi	r23, 0x00	; 0
    2444:	80 e0       	ldi	r24, 0x00	; 0
    2446:	0e 94 51 2a 	call	0x54a2	; 0x54a2 <SCH_TIM_Start>
			s_led_display_status.led1 = 1;
			status_led_led1_on();
			SCH_TIM_Start(SCH_TIM_LED,POWER_NORMAL_ON_PERIOD);	//restart
		}
	}
}
    244a:	18 c0       	rjmp	.+48     	; 0x247c <status_led_normal+0x6a>
				s_led_display_status.led1 = 0;
				status_led_led1_off();
				SCH_TIM_Start(SCH_TIM_LED,POWER_NORMAL_OFF_PERIOD);	//restart
			}		
	}
	else if (s_led_display_status.led1 == 1)
    244c:	80 91 c4 0b 	lds	r24, 0x0BC4	; 0x800bc4 <s_led_display_status>
    2450:	81 70       	andi	r24, 0x01	; 1
    2452:	88 23       	and	r24, r24
    2454:	99 f0       	breq	.+38     	; 0x247c <status_led_normal+0x6a>
	{
		if (SCH_TIM_HasCompleted(SCH_TIM_LED))
    2456:	80 e0       	ldi	r24, 0x00	; 0
    2458:	0e 94 75 2a 	call	0x54ea	; 0x54ea <SCH_TIM_HasCompleted>
    245c:	88 23       	and	r24, r24
    245e:	71 f0       	breq	.+28     	; 0x247c <status_led_normal+0x6a>
		{
			s_led_display_status.led1 = 1;
    2460:	80 91 c4 0b 	lds	r24, 0x0BC4	; 0x800bc4 <s_led_display_status>
    2464:	81 60       	ori	r24, 0x01	; 1
    2466:	80 93 c4 0b 	sts	0x0BC4, r24	; 0x800bc4 <s_led_display_status>
			status_led_led1_on();
    246a:	0e 94 53 11 	call	0x22a6	; 0x22a6 <status_led_led1_on>
			SCH_TIM_Start(SCH_TIM_LED,POWER_NORMAL_ON_PERIOD);	//restart
    246e:	44 ef       	ldi	r20, 0xF4	; 244
    2470:	51 e0       	ldi	r21, 0x01	; 1
    2472:	60 e0       	ldi	r22, 0x00	; 0
    2474:	70 e0       	ldi	r23, 0x00	; 0
    2476:	80 e0       	ldi	r24, 0x00	; 0
    2478:	0e 94 51 2a 	call	0x54a2	; 0x54a2 <SCH_TIM_Start>
		}
	}
}
    247c:	00 00       	nop
    247e:	df 91       	pop	r29
    2480:	cf 91       	pop	r28
    2482:	08 95       	ret

00002484 <status_led_create_task>:

void	status_led_create_task(void)
{
    2484:	cf 93       	push	r28
    2486:	df 93       	push	r29
    2488:	cd b7       	in	r28, 0x3d	; 61
    248a:	de b7       	in	r29, 0x3e	; 62
	SCH_TASK_CreateTask(&s_task_context.taskHandle, &s_task_context.taskProperty);
    248c:	63 ea       	ldi	r22, 0xA3	; 163
    248e:	71 e0       	ldi	r23, 0x01	; 1
    2490:	82 ea       	ldi	r24, 0xA2	; 162
    2492:	91 e0       	ldi	r25, 0x01	; 1
    2494:	0e 94 8e 2a 	call	0x551c	; 0x551c <SCH_TASK_CreateTask>
    2498:	00 00       	nop
    249a:	df 91       	pop	r29
    249c:	cf 91       	pop	r28
    249e:	08 95       	ret

000024a0 <main>:
//new code
#include "CAN_Protocol.h"
//

int main(void)
{
    24a0:	cf 93       	push	r28
    24a2:	df 93       	push	r29
    24a4:	cd b7       	in	r28, 0x3d	; 61
    24a6:	de b7       	in	r29, 0x3e	; 62
	SCH_Initialize();
    24a8:	0e 94 27 2a 	call	0x544e	; 0x544e <SCH_Initialize>
	command_init();
    24ac:	0e 94 f0 08 	call	0x11e0	; 0x11e0 <command_init>
	watchdog_init();
    24b0:	0e 94 67 15 	call	0x2ace	; 0x2ace <watchdog_init>
	watchdog_create_timer();
    24b4:	0e 94 7b 15 	call	0x2af6	; 0x2af6 <watchdog_create_timer>
	status_led_init();
    24b8:	0e 94 02 11 	call	0x2204	; 0x2204 <status_led_init>
// 	IR_led_init();
// 	Accel_and_Gyro_init();
// 	Pressure_init();
// 	COPC_init();
	
 	status_led_create_task();
    24bc:	0e 94 42 12 	call	0x2484	; 0x2484 <status_led_create_task>
 	command_create_task();
    24c0:	0e 94 14 09 	call	0x1228	; 0x1228 <command_create_task>
//  	temperature_create_task();
// 	ringled_create_task();
// 	Accel_and_Gyro_create_task();
// 	Pressure_create_task();
// 	COPC_create_task();
	SCH_StartSchedular();
    24c4:	0e 94 4f 2c 	call	0x589e	; 0x589e <SCH_StartSchedular>
	
	
	//new code 3/7/2024
	CAN_Protocol_Init();
    24c8:	0e 94 57 06 	call	0xcae	; 0xcae <CAN_Protocol_Init>
	CAN_create_task();
    24cc:	0e 94 6f 06 	call	0xcde	; 0xcde <CAN_create_task>
	//end new code 3/7/2024
	
	
	while (1)
	{
		SCH_HandleScheduledTask();
    24d0:	0e 94 59 2c 	call	0x58b2	; 0x58b2 <SCH_HandleScheduledTask>
	}
    24d4:	fd cf       	rjmp	.-6      	; 0x24d0 <main+0x30>

000024d6 <get_pressure>:
{
	SCH_TASK_CreateTask(&s_pressure_task_context.taskHandle, &s_pressure_task_context.taskProperty);
}

int16_t get_pressure(void)
{
    24d6:	cf 93       	push	r28
    24d8:	df 93       	push	r29
    24da:	cd b7       	in	r28, 0x3d	; 61
    24dc:	de b7       	in	r29, 0x3e	; 62
	return (int16_t)get_BMP390_pressure();
    24de:	0e 94 42 21 	call	0x4284	; 0x4284 <get_BMP390_pressure>
}
    24e2:	df 91       	pop	r29
    24e4:	cf 91       	pop	r28
    24e6:	08 95       	ret

000024e8 <temperature_set_point>:
	return s_Temperature_CurrentState.mode[channel];
}

uint8_t	temperature_tec_get_status(void) {
	return s_Temperature_CurrentState.TEC_status;
}
    24e8:	cf 93       	push	r28
    24ea:	df 93       	push	r29
    24ec:	00 d0       	rcall	.+0      	; 0x24ee <temperature_set_point+0x6>
    24ee:	1f 92       	push	r1
    24f0:	cd b7       	in	r28, 0x3d	; 61
    24f2:	de b7       	in	r29, 0x3e	; 62
    24f4:	9a 83       	std	Y+2, r25	; 0x02
    24f6:	89 83       	std	Y+1, r24	; 0x01
    24f8:	6b 83       	std	Y+3, r22	; 0x03
    24fa:	8b 81       	ldd	r24, Y+3	; 0x03
    24fc:	88 2f       	mov	r24, r24
    24fe:	90 e0       	ldi	r25, 0x00	; 0
    2500:	07 96       	adiw	r24, 0x07	; 7
    2502:	88 0f       	add	r24, r24
    2504:	99 1f       	adc	r25, r25
    2506:	87 55       	subi	r24, 0x57	; 87
    2508:	9e 4f       	sbci	r25, 0xFE	; 254
    250a:	29 81       	ldd	r18, Y+1	; 0x01
    250c:	3a 81       	ldd	r19, Y+2	; 0x02
    250e:	fc 01       	movw	r30, r24
    2510:	31 83       	std	Z+1, r19	; 0x01
    2512:	20 83       	st	Z, r18
    2514:	00 00       	nop
    2516:	0f 90       	pop	r0
    2518:	0f 90       	pop	r0
    251a:	0f 90       	pop	r0
    251c:	df 91       	pop	r29
    251e:	cf 91       	pop	r28
    2520:	08 95       	ret

00002522 <temperature_get_NTC>:
    2522:	cf 93       	push	r28
    2524:	df 93       	push	r29
    2526:	1f 92       	push	r1
    2528:	cd b7       	in	r28, 0x3d	; 61
    252a:	de b7       	in	r29, 0x3e	; 62
    252c:	89 83       	std	Y+1, r24	; 0x01
    252e:	89 81       	ldd	r24, Y+1	; 0x01
    2530:	88 2f       	mov	r24, r24
    2532:	90 e0       	ldi	r25, 0x00	; 0
    2534:	88 0f       	add	r24, r24
    2536:	99 1f       	adc	r25, r25
    2538:	87 55       	subi	r24, 0x57	; 87
    253a:	9e 4f       	sbci	r25, 0xFE	; 254
    253c:	fc 01       	movw	r30, r24
    253e:	80 81       	ld	r24, Z
    2540:	91 81       	ldd	r25, Z+1	; 0x01
    2542:	0f 90       	pop	r0
    2544:	df 91       	pop	r29
    2546:	cf 91       	pop	r28
    2548:	08 95       	ret

0000254a <temperature_get_onewire>:
    254a:	cf 93       	push	r28
    254c:	df 93       	push	r29
    254e:	1f 92       	push	r1
    2550:	cd b7       	in	r28, 0x3d	; 61
    2552:	de b7       	in	r29, 0x3e	; 62
    2554:	89 83       	std	Y+1, r24	; 0x01
    2556:	89 81       	ldd	r24, Y+1	; 0x01
    2558:	88 2f       	mov	r24, r24
    255a:	90 e0       	ldi	r25, 0x00	; 0
    255c:	04 96       	adiw	r24, 0x04	; 4
    255e:	88 0f       	add	r24, r24
    2560:	99 1f       	adc	r25, r25
    2562:	87 55       	subi	r24, 0x57	; 87
    2564:	9e 4f       	sbci	r25, 0xFE	; 254
    2566:	fc 01       	movw	r30, r24
    2568:	80 81       	ld	r24, Z
    256a:	91 81       	ldd	r25, Z+1	; 0x01
    256c:	0f 90       	pop	r0
    256e:	df 91       	pop	r29
    2570:	cf 91       	pop	r28
    2572:	08 95       	ret

00002574 <temperature_get_bmp390>:
    2574:	cf 93       	push	r28
    2576:	df 93       	push	r29
    2578:	cd b7       	in	r28, 0x3d	; 61
    257a:	de b7       	in	r29, 0x3e	; 62
    257c:	80 91 b5 01 	lds	r24, 0x01B5	; 0x8001b5 <s_Temperature_CurrentState+0xc>
    2580:	90 91 b6 01 	lds	r25, 0x01B6	; 0x8001b6 <s_Temperature_CurrentState+0xd>
    2584:	df 91       	pop	r29
    2586:	cf 91       	pop	r28
    2588:	08 95       	ret

0000258a <temperature_enable_TEC>:
    258a:	cf 93       	push	r28
    258c:	df 93       	push	r29
    258e:	1f 92       	push	r1
    2590:	cd b7       	in	r28, 0x3d	; 61
    2592:	de b7       	in	r29, 0x3e	; 62
    2594:	89 83       	std	Y+1, r24	; 0x01
    2596:	89 81       	ldd	r24, Y+1	; 0x01
    2598:	0e 94 4f 29 	call	0x529e	; 0x529e <TEC_enable>
    259c:	80 91 cf 01 	lds	r24, 0x01CF	; 0x8001cf <s_Temperature_CurrentState+0x26>
    25a0:	48 2f       	mov	r20, r24
    25a2:	89 81       	ldd	r24, Y+1	; 0x01
    25a4:	88 2f       	mov	r24, r24
    25a6:	90 e0       	ldi	r25, 0x00	; 0
    25a8:	9c 01       	movw	r18, r24
    25aa:	22 0f       	add	r18, r18
    25ac:	33 1f       	adc	r19, r19
    25ae:	81 e0       	ldi	r24, 0x01	; 1
    25b0:	90 e0       	ldi	r25, 0x00	; 0
    25b2:	02 c0       	rjmp	.+4      	; 0x25b8 <temperature_enable_TEC+0x2e>
    25b4:	88 0f       	add	r24, r24
    25b6:	99 1f       	adc	r25, r25
    25b8:	2a 95       	dec	r18
    25ba:	e2 f7       	brpl	.-8      	; 0x25b4 <temperature_enable_TEC+0x2a>
    25bc:	84 2b       	or	r24, r20
    25be:	80 93 cf 01 	sts	0x01CF, r24	; 0x8001cf <s_Temperature_CurrentState+0x26>
    25c2:	00 00       	nop
    25c4:	0f 90       	pop	r0
    25c6:	df 91       	pop	r29
    25c8:	cf 91       	pop	r28
    25ca:	08 95       	ret

000025cc <temperature_disable_TEC>:
    25cc:	cf 93       	push	r28
    25ce:	df 93       	push	r29
    25d0:	1f 92       	push	r1
    25d2:	cd b7       	in	r28, 0x3d	; 61
    25d4:	de b7       	in	r29, 0x3e	; 62
    25d6:	89 83       	std	Y+1, r24	; 0x01
    25d8:	89 81       	ldd	r24, Y+1	; 0x01
    25da:	0e 94 98 29 	call	0x5330	; 0x5330 <TEC_shutdown>
    25de:	80 91 cf 01 	lds	r24, 0x01CF	; 0x8001cf <s_Temperature_CurrentState+0x26>
    25e2:	48 2f       	mov	r20, r24
    25e4:	89 81       	ldd	r24, Y+1	; 0x01
    25e6:	88 2f       	mov	r24, r24
    25e8:	90 e0       	ldi	r25, 0x00	; 0
    25ea:	9c 01       	movw	r18, r24
    25ec:	22 0f       	add	r18, r18
    25ee:	33 1f       	adc	r19, r19
    25f0:	81 e0       	ldi	r24, 0x01	; 1
    25f2:	90 e0       	ldi	r25, 0x00	; 0
    25f4:	02 c0       	rjmp	.+4      	; 0x25fa <temperature_disable_TEC+0x2e>
    25f6:	88 0f       	add	r24, r24
    25f8:	99 1f       	adc	r25, r25
    25fa:	2a 95       	dec	r18
    25fc:	e2 f7       	brpl	.-8      	; 0x25f6 <temperature_disable_TEC+0x2a>
    25fe:	80 95       	com	r24
    2600:	84 23       	and	r24, r20
    2602:	80 93 cf 01 	sts	0x01CF, r24	; 0x8001cf <s_Temperature_CurrentState+0x26>
    2606:	00 00       	nop
    2608:	0f 90       	pop	r0
    260a:	df 91       	pop	r29
    260c:	cf 91       	pop	r28
    260e:	08 95       	ret

00002610 <temperature_enable_auto_control_TEC>:
    2610:	cf 93       	push	r28
    2612:	df 93       	push	r29
    2614:	1f 92       	push	r1
    2616:	cd b7       	in	r28, 0x3d	; 61
    2618:	de b7       	in	r29, 0x3e	; 62
    261a:	89 83       	std	Y+1, r24	; 0x01
    261c:	80 91 cf 01 	lds	r24, 0x01CF	; 0x8001cf <s_Temperature_CurrentState+0x26>
    2620:	48 2f       	mov	r20, r24
    2622:	89 81       	ldd	r24, Y+1	; 0x01
    2624:	88 2f       	mov	r24, r24
    2626:	90 e0       	ldi	r25, 0x00	; 0
    2628:	88 0f       	add	r24, r24
    262a:	99 1f       	adc	r25, r25
    262c:	9c 01       	movw	r18, r24
    262e:	2f 5f       	subi	r18, 0xFF	; 255
    2630:	3f 4f       	sbci	r19, 0xFF	; 255
    2632:	81 e0       	ldi	r24, 0x01	; 1
    2634:	90 e0       	ldi	r25, 0x00	; 0
    2636:	02 c0       	rjmp	.+4      	; 0x263c <temperature_enable_auto_control_TEC+0x2c>
    2638:	88 0f       	add	r24, r24
    263a:	99 1f       	adc	r25, r25
    263c:	2a 95       	dec	r18
    263e:	e2 f7       	brpl	.-8      	; 0x2638 <temperature_enable_auto_control_TEC+0x28>
    2640:	84 2b       	or	r24, r20
    2642:	80 93 cf 01 	sts	0x01CF, r24	; 0x8001cf <s_Temperature_CurrentState+0x26>
    2646:	89 81       	ldd	r24, Y+1	; 0x01
    2648:	88 2f       	mov	r24, r24
    264a:	90 e0       	ldi	r25, 0x00	; 0
    264c:	0b 96       	adiw	r24, 0x0b	; 11
    264e:	88 0f       	add	r24, r24
    2650:	99 1f       	adc	r25, r25
    2652:	87 55       	subi	r24, 0x57	; 87
    2654:	9e 4f       	sbci	r25, 0xFE	; 254
    2656:	fc 01       	movw	r30, r24
    2658:	20 81       	ld	r18, Z
    265a:	31 81       	ldd	r19, Z+1	; 0x01
    265c:	89 81       	ldd	r24, Y+1	; 0x01
    265e:	86 95       	lsr	r24
    2660:	88 2f       	mov	r24, r24
    2662:	90 e0       	ldi	r25, 0x00	; 0
    2664:	87 52       	subi	r24, 0x27	; 39
    2666:	9e 4f       	sbci	r25, 0xFE	; 254
    2668:	fc 01       	movw	r30, r24
    266a:	80 81       	ld	r24, Z
    266c:	a9 01       	movw	r20, r18
    266e:	68 2f       	mov	r22, r24
    2670:	89 81       	ldd	r24, Y+1	; 0x01
    2672:	0e 94 61 13 	call	0x26c2	; 0x26c2 <temperature_set_TEC_output>
    2676:	00 00       	nop
    2678:	0f 90       	pop	r0
    267a:	df 91       	pop	r29
    267c:	cf 91       	pop	r28
    267e:	08 95       	ret

00002680 <temperature_disable_auto_control_TEC>:
    2680:	cf 93       	push	r28
    2682:	df 93       	push	r29
    2684:	1f 92       	push	r1
    2686:	cd b7       	in	r28, 0x3d	; 61
    2688:	de b7       	in	r29, 0x3e	; 62
    268a:	89 83       	std	Y+1, r24	; 0x01
    268c:	80 91 cf 01 	lds	r24, 0x01CF	; 0x8001cf <s_Temperature_CurrentState+0x26>
    2690:	48 2f       	mov	r20, r24
    2692:	89 81       	ldd	r24, Y+1	; 0x01
    2694:	88 2f       	mov	r24, r24
    2696:	90 e0       	ldi	r25, 0x00	; 0
    2698:	88 0f       	add	r24, r24
    269a:	99 1f       	adc	r25, r25
    269c:	9c 01       	movw	r18, r24
    269e:	2f 5f       	subi	r18, 0xFF	; 255
    26a0:	3f 4f       	sbci	r19, 0xFF	; 255
    26a2:	81 e0       	ldi	r24, 0x01	; 1
    26a4:	90 e0       	ldi	r25, 0x00	; 0
    26a6:	02 c0       	rjmp	.+4      	; 0x26ac <temperature_disable_auto_control_TEC+0x2c>
    26a8:	88 0f       	add	r24, r24
    26aa:	99 1f       	adc	r25, r25
    26ac:	2a 95       	dec	r18
    26ae:	e2 f7       	brpl	.-8      	; 0x26a8 <temperature_disable_auto_control_TEC+0x28>
    26b0:	80 95       	com	r24
    26b2:	84 23       	and	r24, r20
    26b4:	80 93 cf 01 	sts	0x01CF, r24	; 0x8001cf <s_Temperature_CurrentState+0x26>
    26b8:	00 00       	nop
    26ba:	0f 90       	pop	r0
    26bc:	df 91       	pop	r29
    26be:	cf 91       	pop	r28
    26c0:	08 95       	ret

000026c2 <temperature_set_TEC_output>:
    26c2:	ef 92       	push	r14
    26c4:	ff 92       	push	r15
    26c6:	0f 93       	push	r16
    26c8:	1f 93       	push	r17
    26ca:	cf 93       	push	r28
    26cc:	df 93       	push	r29
    26ce:	cd b7       	in	r28, 0x3d	; 61
    26d0:	de b7       	in	r29, 0x3e	; 62
    26d2:	2c 97       	sbiw	r28, 0x0c	; 12
    26d4:	0f b6       	in	r0, 0x3f	; 63
    26d6:	f8 94       	cli
    26d8:	de bf       	out	0x3e, r29	; 62
    26da:	0f be       	out	0x3f, r0	; 63
    26dc:	cd bf       	out	0x3d, r28	; 61
    26de:	89 87       	std	Y+9, r24	; 0x09
    26e0:	6a 87       	std	Y+10, r22	; 0x0a
    26e2:	5c 87       	std	Y+12, r21	; 0x0c
    26e4:	4b 87       	std	Y+11, r20	; 0x0b
    26e6:	8b 85       	ldd	r24, Y+11	; 0x0b
    26e8:	9c 85       	ldd	r25, Y+12	; 0x0c
    26ea:	cc 01       	movw	r24, r24
    26ec:	a0 e0       	ldi	r26, 0x00	; 0
    26ee:	b0 e0       	ldi	r27, 0x00	; 0
    26f0:	07 2e       	mov	r0, r23
    26f2:	7c e0       	ldi	r23, 0x0C	; 12
    26f4:	88 0f       	add	r24, r24
    26f6:	99 1f       	adc	r25, r25
    26f8:	aa 1f       	adc	r26, r26
    26fa:	bb 1f       	adc	r27, r27
    26fc:	7a 95       	dec	r23
    26fe:	d1 f7       	brne	.-12     	; 0x26f4 <temperature_set_TEC_output+0x32>
    2700:	70 2d       	mov	r23, r0
    2702:	2e e7       	ldi	r18, 0x7E	; 126
    2704:	34 e0       	ldi	r19, 0x04	; 4
    2706:	40 e0       	ldi	r20, 0x00	; 0
    2708:	50 e0       	ldi	r21, 0x00	; 0
    270a:	bc 01       	movw	r22, r24
    270c:	cd 01       	movw	r24, r26
    270e:	0e 94 d4 32 	call	0x65a8	; 0x65a8 <__udivmodsi4>
    2712:	da 01       	movw	r26, r20
    2714:	c9 01       	movw	r24, r18
    2716:	8d 83       	std	Y+5, r24	; 0x05
    2718:	9e 83       	std	Y+6, r25	; 0x06
    271a:	af 83       	std	Y+7, r26	; 0x07
    271c:	b8 87       	std	Y+8, r27	; 0x08
    271e:	8a 85       	ldd	r24, Y+10	; 0x0a
    2720:	81 30       	cpi	r24, 0x01	; 1
    2722:	a9 f4       	brne	.+42     	; 0x274e <temperature_set_TEC_output+0x8c>
    2724:	20 e0       	ldi	r18, 0x00	; 0
    2726:	38 e0       	ldi	r19, 0x08	; 8
    2728:	40 e0       	ldi	r20, 0x00	; 0
    272a:	50 e0       	ldi	r21, 0x00	; 0
    272c:	8d 81       	ldd	r24, Y+5	; 0x05
    272e:	9e 81       	ldd	r25, Y+6	; 0x06
    2730:	af 81       	ldd	r26, Y+7	; 0x07
    2732:	b8 85       	ldd	r27, Y+8	; 0x08
    2734:	79 01       	movw	r14, r18
    2736:	8a 01       	movw	r16, r20
    2738:	e8 1a       	sub	r14, r24
    273a:	f9 0a       	sbc	r15, r25
    273c:	0a 0b       	sbc	r16, r26
    273e:	1b 0b       	sbc	r17, r27
    2740:	d8 01       	movw	r26, r16
    2742:	c7 01       	movw	r24, r14
    2744:	89 83       	std	Y+1, r24	; 0x01
    2746:	9a 83       	std	Y+2, r25	; 0x02
    2748:	ab 83       	std	Y+3, r26	; 0x03
    274a:	bc 83       	std	Y+4, r27	; 0x04
    274c:	0b c0       	rjmp	.+22     	; 0x2764 <temperature_set_TEC_output+0xa2>
    274e:	8d 81       	ldd	r24, Y+5	; 0x05
    2750:	9e 81       	ldd	r25, Y+6	; 0x06
    2752:	af 81       	ldd	r26, Y+7	; 0x07
    2754:	b8 85       	ldd	r27, Y+8	; 0x08
    2756:	98 5f       	subi	r25, 0xF8	; 248
    2758:	af 4f       	sbci	r26, 0xFF	; 255
    275a:	bf 4f       	sbci	r27, 0xFF	; 255
    275c:	89 83       	std	Y+1, r24	; 0x01
    275e:	9a 83       	std	Y+2, r25	; 0x02
    2760:	ab 83       	std	Y+3, r26	; 0x03
    2762:	bc 83       	std	Y+4, r27	; 0x04
    2764:	89 81       	ldd	r24, Y+1	; 0x01
    2766:	9a 81       	ldd	r25, Y+2	; 0x02
    2768:	09 85       	ldd	r16, Y+9	; 0x09
    276a:	21 e0       	ldi	r18, 0x01	; 1
    276c:	40 e0       	ldi	r20, 0x00	; 0
    276e:	60 e0       	ldi	r22, 0x00	; 0
    2770:	0e 94 bd 27 	call	0x4f7a	; 0x4f7a <MCP4291_set_output>
    2774:	00 00       	nop
    2776:	2c 96       	adiw	r28, 0x0c	; 12
    2778:	0f b6       	in	r0, 0x3f	; 63
    277a:	f8 94       	cli
    277c:	de bf       	out	0x3e, r29	; 62
    277e:	0f be       	out	0x3f, r0	; 63
    2780:	cd bf       	out	0x3d, r28	; 61
    2782:	df 91       	pop	r29
    2784:	cf 91       	pop	r28
    2786:	1f 91       	pop	r17
    2788:	0f 91       	pop	r16
    278a:	ff 90       	pop	r15
    278c:	ef 90       	pop	r14
    278e:	08 95       	ret

00002790 <temperature_get_setpoint>:
    2790:	cf 93       	push	r28
    2792:	df 93       	push	r29
    2794:	1f 92       	push	r1
    2796:	cd b7       	in	r28, 0x3d	; 61
    2798:	de b7       	in	r29, 0x3e	; 62
    279a:	89 83       	std	Y+1, r24	; 0x01
    279c:	89 81       	ldd	r24, Y+1	; 0x01
    279e:	88 2f       	mov	r24, r24
    27a0:	90 e0       	ldi	r25, 0x00	; 0
    27a2:	07 96       	adiw	r24, 0x07	; 7
    27a4:	88 0f       	add	r24, r24
    27a6:	99 1f       	adc	r25, r25
    27a8:	87 55       	subi	r24, 0x57	; 87
    27aa:	9e 4f       	sbci	r25, 0xFE	; 254
    27ac:	fc 01       	movw	r30, r24
    27ae:	80 81       	ld	r24, Z
    27b0:	91 81       	ldd	r25, Z+1	; 0x01
    27b2:	0f 90       	pop	r0
    27b4:	df 91       	pop	r29
    27b6:	cf 91       	pop	r28
    27b8:	08 95       	ret

000027ba <temperature_set_auto_voltage>:

void	temperature_set_auto_voltage(uint8_t	channel, uint16_t voltage)
{
    27ba:	cf 93       	push	r28
    27bc:	df 93       	push	r29
    27be:	00 d0       	rcall	.+0      	; 0x27c0 <temperature_set_auto_voltage+0x6>
    27c0:	1f 92       	push	r1
    27c2:	cd b7       	in	r28, 0x3d	; 61
    27c4:	de b7       	in	r29, 0x3e	; 62
    27c6:	89 83       	std	Y+1, r24	; 0x01
    27c8:	7b 83       	std	Y+3, r23	; 0x03
    27ca:	6a 83       	std	Y+2, r22	; 0x02
	s_Temperature_CurrentState.TEC_output_voltage[channel] = voltage;
    27cc:	89 81       	ldd	r24, Y+1	; 0x01
    27ce:	88 2f       	mov	r24, r24
    27d0:	90 e0       	ldi	r25, 0x00	; 0
    27d2:	0b 96       	adiw	r24, 0x0b	; 11
    27d4:	88 0f       	add	r24, r24
    27d6:	99 1f       	adc	r25, r25
    27d8:	87 55       	subi	r24, 0x57	; 87
    27da:	9e 4f       	sbci	r25, 0xFE	; 254
    27dc:	2a 81       	ldd	r18, Y+2	; 0x02
    27de:	3b 81       	ldd	r19, Y+3	; 0x03
    27e0:	fc 01       	movw	r30, r24
    27e2:	31 83       	std	Z+1, r19	; 0x01
    27e4:	20 83       	st	Z, r18
}
    27e6:	00 00       	nop
    27e8:	0f 90       	pop	r0
    27ea:	0f 90       	pop	r0
    27ec:	0f 90       	pop	r0
    27ee:	df 91       	pop	r29
    27f0:	cf 91       	pop	r28
    27f2:	08 95       	ret

000027f4 <temperature_get_status>:

void	temperature_get_status(void)
{
    27f4:	2f 92       	push	r2
    27f6:	3f 92       	push	r3
    27f8:	4f 92       	push	r4
    27fa:	5f 92       	push	r5
    27fc:	6f 92       	push	r6
    27fe:	7f 92       	push	r7
    2800:	8f 92       	push	r8
    2802:	9f 92       	push	r9
    2804:	af 92       	push	r10
    2806:	bf 92       	push	r11
    2808:	cf 92       	push	r12
    280a:	df 92       	push	r13
    280c:	ef 92       	push	r14
    280e:	ff 92       	push	r15
    2810:	0f 93       	push	r16
    2812:	1f 93       	push	r17
    2814:	cf 93       	push	r28
    2816:	df 93       	push	r29
    2818:	cd b7       	in	r28, 0x3d	; 61
    281a:	de b7       	in	r29, 0x3e	; 62
    281c:	69 97       	sbiw	r28, 0x19	; 25
    281e:	0f b6       	in	r0, 0x3f	; 63
    2820:	f8 94       	cli
    2822:	de bf       	out	0x3e, r29	; 62
    2824:	0f be       	out	0x3f, r0	; 63
    2826:	cd bf       	out	0x3d, r28	; 61
	uint8_t	_status = s_Temperature_CurrentState.TEC_status;
    2828:	80 91 cf 01 	lds	r24, 0x01CF	; 0x8001cf <s_Temperature_CurrentState+0x26>
    282c:	89 83       	std	Y+1, r24	; 0x01
	((_status & (1 << TEC0_AUTO)) >> TEC0_AUTO), ((_status & (1 << TEC1_AUTO)) >> TEC1_AUTO),
	((_status & (1 << TEC2_AUTO)) >> TEC2_AUTO), ((_status & (1 << TEC3_AUTO)) >> TEC3_AUTO),
	((_status & (1 << TEC0_ENA)) >> TEC0_ENA), ((_status & (1 << TEC1_ENA)) >> TEC1_ENA),
	((_status & (1 << TEC2_ENA)) >> TEC2_ENA), ((_status & (1 <<TEC3_ENA)) >> TEC3_ENA),
	s_Temperature_CurrentState.mode[0],s_Temperature_CurrentState.mode[1],
	s_Temperature_CurrentState.mode[2],s_Temperature_CurrentState.mode[3]
    282e:	80 91 dc 01 	lds	r24, 0x01DC	; 0x8001dc <s_Temperature_CurrentState+0x33>
	((_status & (1 << TEC2_ENA)) >> TEC2_ENA), ((_status & (1 <<TEC3_ENA)) >> TEC3_ENA),
	s_Temperature_CurrentState.mode[0], s_Temperature_CurrentState.mode[1],
	s_Temperature_CurrentState.channel_temperature_setpoint[0], s_Temperature_CurrentState.channel_temperature_setpoint[1]);
*/
	
	UARTprintf("%d %d %d %d    %d %d %d %d    %d %d %d %d    %d %d %d %d    %d %d %d %d    %d %d %d %d\r\n",
    2832:	28 2f       	mov	r18, r24
    2834:	30 e0       	ldi	r19, 0x00	; 0
	((_status & (1 << TEC0_AUTO)) >> TEC0_AUTO), ((_status & (1 << TEC1_AUTO)) >> TEC1_AUTO),
	((_status & (1 << TEC2_AUTO)) >> TEC2_AUTO), ((_status & (1 << TEC3_AUTO)) >> TEC3_AUTO),
	((_status & (1 << TEC0_ENA)) >> TEC0_ENA), ((_status & (1 << TEC1_ENA)) >> TEC1_ENA),
	((_status & (1 << TEC2_ENA)) >> TEC2_ENA), ((_status & (1 <<TEC3_ENA)) >> TEC3_ENA),
	s_Temperature_CurrentState.mode[0],s_Temperature_CurrentState.mode[1],
	s_Temperature_CurrentState.mode[2],s_Temperature_CurrentState.mode[3]
    2836:	80 91 db 01 	lds	r24, 0x01DB	; 0x8001db <s_Temperature_CurrentState+0x32>
	((_status & (1 << TEC2_ENA)) >> TEC2_ENA), ((_status & (1 <<TEC3_ENA)) >> TEC3_ENA),
	s_Temperature_CurrentState.mode[0], s_Temperature_CurrentState.mode[1],
	s_Temperature_CurrentState.channel_temperature_setpoint[0], s_Temperature_CurrentState.channel_temperature_setpoint[1]);
*/
	
	UARTprintf("%d %d %d %d    %d %d %d %d    %d %d %d %d    %d %d %d %d    %d %d %d %d    %d %d %d %d\r\n",
    283a:	48 2f       	mov	r20, r24
    283c:	50 e0       	ldi	r21, 0x00	; 0
	s_Temperature_CurrentState.TEC_output_voltage[2],s_Temperature_CurrentState.TEC_output_voltage[3],
	((_status & (1 << TEC0_AUTO)) >> TEC0_AUTO), ((_status & (1 << TEC1_AUTO)) >> TEC1_AUTO),
	((_status & (1 << TEC2_AUTO)) >> TEC2_AUTO), ((_status & (1 << TEC3_AUTO)) >> TEC3_AUTO),
	((_status & (1 << TEC0_ENA)) >> TEC0_ENA), ((_status & (1 << TEC1_ENA)) >> TEC1_ENA),
	((_status & (1 << TEC2_ENA)) >> TEC2_ENA), ((_status & (1 <<TEC3_ENA)) >> TEC3_ENA),
	s_Temperature_CurrentState.mode[0],s_Temperature_CurrentState.mode[1],
    283e:	80 91 da 01 	lds	r24, 0x01DA	; 0x8001da <s_Temperature_CurrentState+0x31>
	((_status & (1 << TEC2_ENA)) >> TEC2_ENA), ((_status & (1 <<TEC3_ENA)) >> TEC3_ENA),
	s_Temperature_CurrentState.mode[0], s_Temperature_CurrentState.mode[1],
	s_Temperature_CurrentState.channel_temperature_setpoint[0], s_Temperature_CurrentState.channel_temperature_setpoint[1]);
*/
	
	UARTprintf("%d %d %d %d    %d %d %d %d    %d %d %d %d    %d %d %d %d    %d %d %d %d    %d %d %d %d\r\n",
    2842:	68 2f       	mov	r22, r24
    2844:	70 e0       	ldi	r23, 0x00	; 0
	s_Temperature_CurrentState.TEC_output_voltage[2],s_Temperature_CurrentState.TEC_output_voltage[3],
	((_status & (1 << TEC0_AUTO)) >> TEC0_AUTO), ((_status & (1 << TEC1_AUTO)) >> TEC1_AUTO),
	((_status & (1 << TEC2_AUTO)) >> TEC2_AUTO), ((_status & (1 << TEC3_AUTO)) >> TEC3_AUTO),
	((_status & (1 << TEC0_ENA)) >> TEC0_ENA), ((_status & (1 << TEC1_ENA)) >> TEC1_ENA),
	((_status & (1 << TEC2_ENA)) >> TEC2_ENA), ((_status & (1 <<TEC3_ENA)) >> TEC3_ENA),
	s_Temperature_CurrentState.mode[0],s_Temperature_CurrentState.mode[1],
    2846:	80 91 d9 01 	lds	r24, 0x01D9	; 0x8001d9 <s_Temperature_CurrentState+0x30>
	((_status & (1 << TEC2_ENA)) >> TEC2_ENA), ((_status & (1 <<TEC3_ENA)) >> TEC3_ENA),
	s_Temperature_CurrentState.mode[0], s_Temperature_CurrentState.mode[1],
	s_Temperature_CurrentState.channel_temperature_setpoint[0], s_Temperature_CurrentState.channel_temperature_setpoint[1]);
*/
	
	UARTprintf("%d %d %d %d    %d %d %d %d    %d %d %d %d    %d %d %d %d    %d %d %d %d    %d %d %d %d\r\n",
    284a:	e8 2f       	mov	r30, r24
    284c:	f0 e0       	ldi	r31, 0x00	; 0
	s_Temperature_CurrentState.TEC_output_voltage[0],s_Temperature_CurrentState.TEC_output_voltage[1],
	s_Temperature_CurrentState.TEC_output_voltage[2],s_Temperature_CurrentState.TEC_output_voltage[3],
	((_status & (1 << TEC0_AUTO)) >> TEC0_AUTO), ((_status & (1 << TEC1_AUTO)) >> TEC1_AUTO),
	((_status & (1 << TEC2_AUTO)) >> TEC2_AUTO), ((_status & (1 << TEC3_AUTO)) >> TEC3_AUTO),
	((_status & (1 << TEC0_ENA)) >> TEC0_ENA), ((_status & (1 << TEC1_ENA)) >> TEC1_ENA),
	((_status & (1 << TEC2_ENA)) >> TEC2_ENA), ((_status & (1 <<TEC3_ENA)) >> TEC3_ENA),
    284e:	89 81       	ldd	r24, Y+1	; 0x01
    2850:	88 2f       	mov	r24, r24
    2852:	90 e0       	ldi	r25, 0x00	; 0
    2854:	80 74       	andi	r24, 0x40	; 64
    2856:	99 27       	eor	r25, r25
	((_status & (1 << TEC2_ENA)) >> TEC2_ENA), ((_status & (1 <<TEC3_ENA)) >> TEC3_ENA),
	s_Temperature_CurrentState.mode[0], s_Temperature_CurrentState.mode[1],
	s_Temperature_CurrentState.channel_temperature_setpoint[0], s_Temperature_CurrentState.channel_temperature_setpoint[1]);
*/
	
	UARTprintf("%d %d %d %d    %d %d %d %d    %d %d %d %d    %d %d %d %d    %d %d %d %d    %d %d %d %d\r\n",
    2858:	dc 01       	movw	r26, r24
    285a:	0a 2e       	mov	r0, r26
    285c:	ab 2f       	mov	r26, r27
    285e:	00 0c       	add	r0, r0
    2860:	aa 1f       	adc	r26, r26
    2862:	bb 0b       	sbc	r27, r27
    2864:	00 0c       	add	r0, r0
    2866:	aa 1f       	adc	r26, r26
    2868:	bb 1f       	adc	r27, r27
	s_Temperature_CurrentState.TEC_output_voltage[0],s_Temperature_CurrentState.TEC_output_voltage[1],
	s_Temperature_CurrentState.TEC_output_voltage[2],s_Temperature_CurrentState.TEC_output_voltage[3],
	((_status & (1 << TEC0_AUTO)) >> TEC0_AUTO), ((_status & (1 << TEC1_AUTO)) >> TEC1_AUTO),
	((_status & (1 << TEC2_AUTO)) >> TEC2_AUTO), ((_status & (1 << TEC3_AUTO)) >> TEC3_AUTO),
	((_status & (1 << TEC0_ENA)) >> TEC0_ENA), ((_status & (1 << TEC1_ENA)) >> TEC1_ENA),
	((_status & (1 << TEC2_ENA)) >> TEC2_ENA), ((_status & (1 <<TEC3_ENA)) >> TEC3_ENA),
    286a:	89 81       	ldd	r24, Y+1	; 0x01
    286c:	88 2f       	mov	r24, r24
    286e:	90 e0       	ldi	r25, 0x00	; 0
    2870:	80 71       	andi	r24, 0x10	; 16
    2872:	99 27       	eor	r25, r25
	((_status & (1 << TEC2_ENA)) >> TEC2_ENA), ((_status & (1 <<TEC3_ENA)) >> TEC3_ENA),
	s_Temperature_CurrentState.mode[0], s_Temperature_CurrentState.mode[1],
	s_Temperature_CurrentState.channel_temperature_setpoint[0], s_Temperature_CurrentState.channel_temperature_setpoint[1]);
*/
	
	UARTprintf("%d %d %d %d    %d %d %d %d    %d %d %d %d    %d %d %d %d    %d %d %d %d    %d %d %d %d\r\n",
    2874:	8c 01       	movw	r16, r24
    2876:	15 95       	asr	r17
    2878:	07 95       	ror	r16
    287a:	15 95       	asr	r17
    287c:	07 95       	ror	r16
    287e:	15 95       	asr	r17
    2880:	07 95       	ror	r16
    2882:	15 95       	asr	r17
    2884:	07 95       	ror	r16
	s_Temperature_CurrentState.TEC_output_voltage_now[2],s_Temperature_CurrentState.TEC_output_voltage_now[3],
	s_Temperature_CurrentState.TEC_output_voltage[0],s_Temperature_CurrentState.TEC_output_voltage[1],
	s_Temperature_CurrentState.TEC_output_voltage[2],s_Temperature_CurrentState.TEC_output_voltage[3],
	((_status & (1 << TEC0_AUTO)) >> TEC0_AUTO), ((_status & (1 << TEC1_AUTO)) >> TEC1_AUTO),
	((_status & (1 << TEC2_AUTO)) >> TEC2_AUTO), ((_status & (1 << TEC3_AUTO)) >> TEC3_AUTO),
	((_status & (1 << TEC0_ENA)) >> TEC0_ENA), ((_status & (1 << TEC1_ENA)) >> TEC1_ENA),
    2886:	89 81       	ldd	r24, Y+1	; 0x01
    2888:	88 2f       	mov	r24, r24
    288a:	90 e0       	ldi	r25, 0x00	; 0
    288c:	84 70       	andi	r24, 0x04	; 4
    288e:	99 27       	eor	r25, r25
	((_status & (1 << TEC2_ENA)) >> TEC2_ENA), ((_status & (1 <<TEC3_ENA)) >> TEC3_ENA),
	s_Temperature_CurrentState.mode[0], s_Temperature_CurrentState.mode[1],
	s_Temperature_CurrentState.channel_temperature_setpoint[0], s_Temperature_CurrentState.channel_temperature_setpoint[1]);
*/
	
	UARTprintf("%d %d %d %d    %d %d %d %d    %d %d %d %d    %d %d %d %d    %d %d %d %d    %d %d %d %d\r\n",
    2890:	7c 01       	movw	r14, r24
    2892:	f5 94       	asr	r15
    2894:	e7 94       	ror	r14
    2896:	f5 94       	asr	r15
    2898:	e7 94       	ror	r14
    289a:	89 81       	ldd	r24, Y+1	; 0x01
    289c:	c8 2e       	mov	r12, r24
    289e:	d1 2c       	mov	r13, r1
    28a0:	d9 8e       	std	Y+25, r13	; 0x19
    28a2:	c8 8e       	std	Y+24, r12	; 0x18
    28a4:	88 8c       	ldd	r8, Y+24	; 0x18
    28a6:	99 8c       	ldd	r9, Y+25	; 0x19
    28a8:	81 e0       	ldi	r24, 0x01	; 1
    28aa:	88 22       	and	r8, r24
    28ac:	99 24       	eor	r9, r9
	s_Temperature_CurrentState.TEC_output_voltage_now[0],s_Temperature_CurrentState.TEC_output_voltage_now[1],
	s_Temperature_CurrentState.TEC_output_voltage_now[2],s_Temperature_CurrentState.TEC_output_voltage_now[3],
	s_Temperature_CurrentState.TEC_output_voltage[0],s_Temperature_CurrentState.TEC_output_voltage[1],
	s_Temperature_CurrentState.TEC_output_voltage[2],s_Temperature_CurrentState.TEC_output_voltage[3],
	((_status & (1 << TEC0_AUTO)) >> TEC0_AUTO), ((_status & (1 << TEC1_AUTO)) >> TEC1_AUTO),
	((_status & (1 << TEC2_AUTO)) >> TEC2_AUTO), ((_status & (1 << TEC3_AUTO)) >> TEC3_AUTO),
    28ae:	89 81       	ldd	r24, Y+1	; 0x01
    28b0:	88 1f       	adc	r24, r24
    28b2:	88 27       	eor	r24, r24
    28b4:	88 1f       	adc	r24, r24
	((_status & (1 << TEC2_ENA)) >> TEC2_ENA), ((_status & (1 <<TEC3_ENA)) >> TEC3_ENA),
	s_Temperature_CurrentState.mode[0], s_Temperature_CurrentState.mode[1],
	s_Temperature_CurrentState.channel_temperature_setpoint[0], s_Temperature_CurrentState.channel_temperature_setpoint[1]);
*/
	
	UARTprintf("%d %d %d %d    %d %d %d %d    %d %d %d %d    %d %d %d %d    %d %d %d %d    %d %d %d %d\r\n",
    28b6:	c8 2e       	mov	r12, r24
    28b8:	d1 2c       	mov	r13, r1
    28ba:	db 82       	std	Y+3, r13	; 0x03
    28bc:	ca 82       	std	Y+2, r12	; 0x02
	s_Temperature_CurrentState.TEC_output_voltage_now[0],s_Temperature_CurrentState.TEC_output_voltage_now[1],
	s_Temperature_CurrentState.TEC_output_voltage_now[2],s_Temperature_CurrentState.TEC_output_voltage_now[3],
	s_Temperature_CurrentState.TEC_output_voltage[0],s_Temperature_CurrentState.TEC_output_voltage[1],
	s_Temperature_CurrentState.TEC_output_voltage[2],s_Temperature_CurrentState.TEC_output_voltage[3],
	((_status & (1 << TEC0_AUTO)) >> TEC0_AUTO), ((_status & (1 << TEC1_AUTO)) >> TEC1_AUTO),
	((_status & (1 << TEC2_AUTO)) >> TEC2_AUTO), ((_status & (1 << TEC3_AUTO)) >> TEC3_AUTO),
    28be:	89 81       	ldd	r24, Y+1	; 0x01
    28c0:	88 2f       	mov	r24, r24
    28c2:	90 e0       	ldi	r25, 0x00	; 0
    28c4:	80 72       	andi	r24, 0x20	; 32
    28c6:	99 27       	eor	r25, r25
	((_status & (1 << TEC2_ENA)) >> TEC2_ENA), ((_status & (1 <<TEC3_ENA)) >> TEC3_ENA),
	s_Temperature_CurrentState.mode[0], s_Temperature_CurrentState.mode[1],
	s_Temperature_CurrentState.channel_temperature_setpoint[0], s_Temperature_CurrentState.channel_temperature_setpoint[1]);
*/
	
	UARTprintf("%d %d %d %d    %d %d %d %d    %d %d %d %d    %d %d %d %d    %d %d %d %d    %d %d %d %d\r\n",
    28c8:	6c 01       	movw	r12, r24
    28ca:	d5 94       	asr	r13
    28cc:	c7 94       	ror	r12
    28ce:	d5 94       	asr	r13
    28d0:	c7 94       	ror	r12
    28d2:	d5 94       	asr	r13
    28d4:	c7 94       	ror	r12
    28d6:	d5 94       	asr	r13
    28d8:	c7 94       	ror	r12
    28da:	d5 94       	asr	r13
    28dc:	c7 94       	ror	r12
    28de:	dd 82       	std	Y+5, r13	; 0x05
    28e0:	cc 82       	std	Y+4, r12	; 0x04
	s_Temperature_CurrentState.NTC_channel_temperature[2],s_Temperature_CurrentState.NTC_channel_temperature[3],
	s_Temperature_CurrentState.TEC_output_voltage_now[0],s_Temperature_CurrentState.TEC_output_voltage_now[1],
	s_Temperature_CurrentState.TEC_output_voltage_now[2],s_Temperature_CurrentState.TEC_output_voltage_now[3],
	s_Temperature_CurrentState.TEC_output_voltage[0],s_Temperature_CurrentState.TEC_output_voltage[1],
	s_Temperature_CurrentState.TEC_output_voltage[2],s_Temperature_CurrentState.TEC_output_voltage[3],
	((_status & (1 << TEC0_AUTO)) >> TEC0_AUTO), ((_status & (1 << TEC1_AUTO)) >> TEC1_AUTO),
    28e2:	89 81       	ldd	r24, Y+1	; 0x01
    28e4:	88 2f       	mov	r24, r24
    28e6:	90 e0       	ldi	r25, 0x00	; 0
    28e8:	88 70       	andi	r24, 0x08	; 8
    28ea:	99 27       	eor	r25, r25
	((_status & (1 << TEC2_ENA)) >> TEC2_ENA), ((_status & (1 <<TEC3_ENA)) >> TEC3_ENA),
	s_Temperature_CurrentState.mode[0], s_Temperature_CurrentState.mode[1],
	s_Temperature_CurrentState.channel_temperature_setpoint[0], s_Temperature_CurrentState.channel_temperature_setpoint[1]);
*/
	
	UARTprintf("%d %d %d %d    %d %d %d %d    %d %d %d %d    %d %d %d %d    %d %d %d %d    %d %d %d %d\r\n",
    28ec:	6c 01       	movw	r12, r24
    28ee:	d5 94       	asr	r13
    28f0:	c7 94       	ror	r12
    28f2:	d5 94       	asr	r13
    28f4:	c7 94       	ror	r12
    28f6:	d5 94       	asr	r13
    28f8:	c7 94       	ror	r12
    28fa:	df 82       	std	Y+7, r13	; 0x07
    28fc:	ce 82       	std	Y+6, r12	; 0x06
	s_Temperature_CurrentState.NTC_channel_temperature[2],s_Temperature_CurrentState.NTC_channel_temperature[3],
	s_Temperature_CurrentState.TEC_output_voltage_now[0],s_Temperature_CurrentState.TEC_output_voltage_now[1],
	s_Temperature_CurrentState.TEC_output_voltage_now[2],s_Temperature_CurrentState.TEC_output_voltage_now[3],
	s_Temperature_CurrentState.TEC_output_voltage[0],s_Temperature_CurrentState.TEC_output_voltage[1],
	s_Temperature_CurrentState.TEC_output_voltage[2],s_Temperature_CurrentState.TEC_output_voltage[3],
	((_status & (1 << TEC0_AUTO)) >> TEC0_AUTO), ((_status & (1 << TEC1_AUTO)) >> TEC1_AUTO),
    28fe:	89 81       	ldd	r24, Y+1	; 0x01
    2900:	88 2f       	mov	r24, r24
    2902:	90 e0       	ldi	r25, 0x00	; 0
    2904:	82 70       	andi	r24, 0x02	; 2
    2906:	99 27       	eor	r25, r25
	((_status & (1 << TEC2_ENA)) >> TEC2_ENA), ((_status & (1 <<TEC3_ENA)) >> TEC3_ENA),
	s_Temperature_CurrentState.mode[0], s_Temperature_CurrentState.mode[1],
	s_Temperature_CurrentState.channel_temperature_setpoint[0], s_Temperature_CurrentState.channel_temperature_setpoint[1]);
*/
	
	UARTprintf("%d %d %d %d    %d %d %d %d    %d %d %d %d    %d %d %d %d    %d %d %d %d    %d %d %d %d\r\n",
    2908:	6c 01       	movw	r12, r24
    290a:	d5 94       	asr	r13
    290c:	c7 94       	ror	r12
    290e:	d9 86       	std	Y+9, r13	; 0x09
    2910:	c8 86       	std	Y+8, r12	; 0x08
    2912:	80 91 c5 01 	lds	r24, 0x01C5	; 0x8001c5 <s_Temperature_CurrentState+0x1c>
    2916:	90 91 c6 01 	lds	r25, 0x01C6	; 0x8001c6 <s_Temperature_CurrentState+0x1d>
    291a:	9b 87       	std	Y+11, r25	; 0x0b
    291c:	8a 87       	std	Y+10, r24	; 0x0a
    291e:	c0 90 c3 01 	lds	r12, 0x01C3	; 0x8001c3 <s_Temperature_CurrentState+0x1a>
    2922:	d0 90 c4 01 	lds	r13, 0x01C4	; 0x8001c4 <s_Temperature_CurrentState+0x1b>
    2926:	dd 86       	std	Y+13, r13	; 0x0d
    2928:	cc 86       	std	Y+12, r12	; 0x0c
    292a:	80 91 c1 01 	lds	r24, 0x01C1	; 0x8001c1 <s_Temperature_CurrentState+0x18>
    292e:	90 91 c2 01 	lds	r25, 0x01C2	; 0x8001c2 <s_Temperature_CurrentState+0x19>
    2932:	9f 87       	std	Y+15, r25	; 0x0f
    2934:	8e 87       	std	Y+14, r24	; 0x0e
    2936:	c0 90 bf 01 	lds	r12, 0x01BF	; 0x8001bf <s_Temperature_CurrentState+0x16>
    293a:	d0 90 c0 01 	lds	r13, 0x01C0	; 0x8001c0 <s_Temperature_CurrentState+0x17>
    293e:	d9 8a       	std	Y+17, r13	; 0x11
    2940:	c8 8a       	std	Y+16, r12	; 0x10
    2942:	80 91 cd 01 	lds	r24, 0x01CD	; 0x8001cd <s_Temperature_CurrentState+0x24>
    2946:	90 91 ce 01 	lds	r25, 0x01CE	; 0x8001ce <s_Temperature_CurrentState+0x25>
    294a:	9b 8b       	std	Y+19, r25	; 0x13
    294c:	8a 8b       	std	Y+18, r24	; 0x12
    294e:	c0 90 cb 01 	lds	r12, 0x01CB	; 0x8001cb <s_Temperature_CurrentState+0x22>
    2952:	d0 90 cc 01 	lds	r13, 0x01CC	; 0x8001cc <s_Temperature_CurrentState+0x23>
    2956:	dd 8a       	std	Y+21, r13	; 0x15
    2958:	cc 8a       	std	Y+20, r12	; 0x14
    295a:	80 91 c9 01 	lds	r24, 0x01C9	; 0x8001c9 <s_Temperature_CurrentState+0x20>
    295e:	90 91 ca 01 	lds	r25, 0x01CA	; 0x8001ca <s_Temperature_CurrentState+0x21>
    2962:	9f 8b       	std	Y+23, r25	; 0x17
    2964:	8e 8b       	std	Y+22, r24	; 0x16
    2966:	20 90 c7 01 	lds	r2, 0x01C7	; 0x8001c7 <s_Temperature_CurrentState+0x1e>
    296a:	30 90 c8 01 	lds	r3, 0x01C8	; 0x8001c8 <s_Temperature_CurrentState+0x1f>
    296e:	40 90 af 01 	lds	r4, 0x01AF	; 0x8001af <s_Temperature_CurrentState+0x6>
    2972:	50 90 b0 01 	lds	r5, 0x01B0	; 0x8001b0 <s_Temperature_CurrentState+0x7>
    2976:	60 90 ad 01 	lds	r6, 0x01AD	; 0x8001ad <s_Temperature_CurrentState+0x4>
    297a:	70 90 ae 01 	lds	r7, 0x01AE	; 0x8001ae <s_Temperature_CurrentState+0x5>
    297e:	a0 90 ab 01 	lds	r10, 0x01AB	; 0x8001ab <s_Temperature_CurrentState+0x2>
    2982:	b0 90 ac 01 	lds	r11, 0x01AC	; 0x8001ac <s_Temperature_CurrentState+0x3>
    2986:	c0 90 a9 01 	lds	r12, 0x01A9	; 0x8001a9 <s_Temperature_CurrentState>
    298a:	d0 90 aa 01 	lds	r13, 0x01AA	; 0x8001aa <s_Temperature_CurrentState+0x1>
    298e:	83 2f       	mov	r24, r19
    2990:	8f 93       	push	r24
    2992:	82 2f       	mov	r24, r18
    2994:	8f 93       	push	r24
    2996:	85 2f       	mov	r24, r21
    2998:	8f 93       	push	r24
    299a:	84 2f       	mov	r24, r20
    299c:	8f 93       	push	r24
    299e:	87 2f       	mov	r24, r23
    29a0:	8f 93       	push	r24
    29a2:	86 2f       	mov	r24, r22
    29a4:	8f 93       	push	r24
    29a6:	8f 2f       	mov	r24, r31
    29a8:	8f 93       	push	r24
    29aa:	8e 2f       	mov	r24, r30
    29ac:	8f 93       	push	r24
    29ae:	8b 2f       	mov	r24, r27
    29b0:	8f 93       	push	r24
    29b2:	8a 2f       	mov	r24, r26
    29b4:	8f 93       	push	r24
    29b6:	81 2f       	mov	r24, r17
    29b8:	8f 93       	push	r24
    29ba:	80 2f       	mov	r24, r16
    29bc:	8f 93       	push	r24
    29be:	8f 2d       	mov	r24, r15
    29c0:	8f 93       	push	r24
    29c2:	8e 2d       	mov	r24, r14
    29c4:	8f 93       	push	r24
    29c6:	89 2d       	mov	r24, r9
    29c8:	8f 93       	push	r24
    29ca:	88 2d       	mov	r24, r8
    29cc:	8f 93       	push	r24
    29ce:	8b 81       	ldd	r24, Y+3	; 0x03
    29d0:	8f 93       	push	r24
    29d2:	8a 81       	ldd	r24, Y+2	; 0x02
    29d4:	8f 93       	push	r24
    29d6:	8d 81       	ldd	r24, Y+5	; 0x05
    29d8:	8f 93       	push	r24
    29da:	8c 81       	ldd	r24, Y+4	; 0x04
    29dc:	8f 93       	push	r24
    29de:	8f 81       	ldd	r24, Y+7	; 0x07
    29e0:	8f 93       	push	r24
    29e2:	8e 81       	ldd	r24, Y+6	; 0x06
    29e4:	8f 93       	push	r24
    29e6:	89 85       	ldd	r24, Y+9	; 0x09
    29e8:	8f 93       	push	r24
    29ea:	88 85       	ldd	r24, Y+8	; 0x08
    29ec:	8f 93       	push	r24
    29ee:	8b 85       	ldd	r24, Y+11	; 0x0b
    29f0:	8f 93       	push	r24
    29f2:	8a 85       	ldd	r24, Y+10	; 0x0a
    29f4:	8f 93       	push	r24
    29f6:	8d 85       	ldd	r24, Y+13	; 0x0d
    29f8:	8f 93       	push	r24
    29fa:	8c 85       	ldd	r24, Y+12	; 0x0c
    29fc:	8f 93       	push	r24
    29fe:	8f 85       	ldd	r24, Y+15	; 0x0f
    2a00:	8f 93       	push	r24
    2a02:	8e 85       	ldd	r24, Y+14	; 0x0e
    2a04:	8f 93       	push	r24
    2a06:	89 89       	ldd	r24, Y+17	; 0x11
    2a08:	8f 93       	push	r24
    2a0a:	88 89       	ldd	r24, Y+16	; 0x10
    2a0c:	8f 93       	push	r24
    2a0e:	8b 89       	ldd	r24, Y+19	; 0x13
    2a10:	8f 93       	push	r24
    2a12:	8a 89       	ldd	r24, Y+18	; 0x12
    2a14:	8f 93       	push	r24
    2a16:	8d 89       	ldd	r24, Y+21	; 0x15
    2a18:	8f 93       	push	r24
    2a1a:	8c 89       	ldd	r24, Y+20	; 0x14
    2a1c:	8f 93       	push	r24
    2a1e:	8f 89       	ldd	r24, Y+23	; 0x17
    2a20:	8f 93       	push	r24
    2a22:	8e 89       	ldd	r24, Y+22	; 0x16
    2a24:	8f 93       	push	r24
    2a26:	83 2d       	mov	r24, r3
    2a28:	8f 93       	push	r24
    2a2a:	82 2d       	mov	r24, r2
    2a2c:	8f 93       	push	r24
    2a2e:	85 2d       	mov	r24, r5
    2a30:	8f 93       	push	r24
    2a32:	84 2d       	mov	r24, r4
    2a34:	8f 93       	push	r24
    2a36:	87 2d       	mov	r24, r7
    2a38:	8f 93       	push	r24
    2a3a:	86 2d       	mov	r24, r6
    2a3c:	8f 93       	push	r24
    2a3e:	8b 2d       	mov	r24, r11
    2a40:	8f 93       	push	r24
    2a42:	8a 2d       	mov	r24, r10
    2a44:	8f 93       	push	r24
    2a46:	8d 2d       	mov	r24, r13
    2a48:	8f 93       	push	r24
    2a4a:	8c 2d       	mov	r24, r12
    2a4c:	8f 93       	push	r24
    2a4e:	8f ee       	ldi	r24, 0xEF	; 239
    2a50:	9a e0       	ldi	r25, 0x0A	; 10
    2a52:	89 2f       	mov	r24, r25
    2a54:	8f 93       	push	r24
    2a56:	8f ee       	ldi	r24, 0xEF	; 239
    2a58:	9a e0       	ldi	r25, 0x0A	; 10
    2a5a:	8f 93       	push	r24
    2a5c:	0e 94 2c 21 	call	0x4258	; 0x4258 <UARTprintf>
    2a60:	8d b7       	in	r24, 0x3d	; 61
    2a62:	9e b7       	in	r25, 0x3e	; 62
    2a64:	c2 96       	adiw	r24, 0x32	; 50
    2a66:	0f b6       	in	r0, 0x3f	; 63
    2a68:	f8 94       	cli
    2a6a:	de bf       	out	0x3e, r29	; 62
    2a6c:	0f be       	out	0x3f, r0	; 63
    2a6e:	cd bf       	out	0x3d, r28	; 61
	((_status & (1 << TEC2_ENA)) >> TEC2_ENA), ((_status & (1 <<TEC3_ENA)) >> TEC3_ENA),
	s_Temperature_CurrentState.mode[0],s_Temperature_CurrentState.mode[1],
	s_Temperature_CurrentState.mode[2],s_Temperature_CurrentState.mode[3]
	);
	
}
    2a70:	00 00       	nop
    2a72:	69 96       	adiw	r28, 0x19	; 25
    2a74:	0f b6       	in	r0, 0x3f	; 63
    2a76:	f8 94       	cli
    2a78:	de bf       	out	0x3e, r29	; 62
    2a7a:	0f be       	out	0x3f, r0	; 63
    2a7c:	cd bf       	out	0x3d, r28	; 61
    2a7e:	df 91       	pop	r29
    2a80:	cf 91       	pop	r28
    2a82:	1f 91       	pop	r17
    2a84:	0f 91       	pop	r16
    2a86:	ff 90       	pop	r15
    2a88:	ef 90       	pop	r14
    2a8a:	df 90       	pop	r13
    2a8c:	cf 90       	pop	r12
    2a8e:	bf 90       	pop	r11
    2a90:	af 90       	pop	r10
    2a92:	9f 90       	pop	r9
    2a94:	8f 90       	pop	r8
    2a96:	7f 90       	pop	r7
    2a98:	6f 90       	pop	r6
    2a9a:	5f 90       	pop	r5
    2a9c:	4f 90       	pop	r4
    2a9e:	3f 90       	pop	r3
    2aa0:	2f 90       	pop	r2
    2aa2:	08 95       	ret

00002aa4 <temperature_enable_log>:

void	temperature_enable_log(void)
{
    2aa4:	cf 93       	push	r28
    2aa6:	df 93       	push	r29
    2aa8:	cd b7       	in	r28, 0x3d	; 61
    2aaa:	de b7       	in	r29, 0x3e	; 62
	sPrintLog  = 1;
    2aac:	81 e0       	ldi	r24, 0x01	; 1
    2aae:	80 93 c7 0b 	sts	0x0BC7, r24	; 0x800bc7 <sPrintLog>
}
    2ab2:	00 00       	nop
    2ab4:	df 91       	pop	r29
    2ab6:	cf 91       	pop	r28
    2ab8:	08 95       	ret

00002aba <temperature_disable_log>:

void	temperature_disable_log(void)
{
    2aba:	cf 93       	push	r28
    2abc:	df 93       	push	r29
    2abe:	cd b7       	in	r28, 0x3d	; 61
    2ac0:	de b7       	in	r29, 0x3e	; 62
	sPrintLog  = 0;
    2ac2:	10 92 c7 0b 	sts	0x0BC7, r1	; 0x800bc7 <sPrintLog>
    2ac6:	00 00       	nop
    2ac8:	df 91       	pop	r29
    2aca:	cf 91       	pop	r28
    2acc:	08 95       	ret

00002ace <watchdog_init>:
		100,                                 // timerPeriodInMS;
		watchdog_pulse         // timerCallbackFunction;
	}
};
void watchdog_init(void)
{
    2ace:	cf 93       	push	r28
    2ad0:	df 93       	push	r29
    2ad2:	cd b7       	in	r28, 0x3d	; 61
    2ad4:	de b7       	in	r29, 0x3e	; 62
	TPL5010_init();
    2ad6:	0e 94 e1 29 	call	0x53c2	; 0x53c2 <TPL5010_init>
}
    2ada:	00 00       	nop
    2adc:	df 91       	pop	r29
    2ade:	cf 91       	pop	r28
    2ae0:	08 95       	ret

00002ae2 <watchdog_pulse>:
static void watchdog_pulse(void)
{
    2ae2:	cf 93       	push	r28
    2ae4:	df 93       	push	r29
    2ae6:	cd b7       	in	r28, 0x3d	; 61
    2ae8:	de b7       	in	r29, 0x3e	; 62
	TPL5010_done_pulse ();
    2aea:	0e 94 0d 2a 	call	0x541a	; 0x541a <TPL5010_done_pulse>
}
    2aee:	00 00       	nop
    2af0:	df 91       	pop	r29
    2af2:	cf 91       	pop	r28
    2af4:	08 95       	ret

00002af6 <watchdog_create_timer>:

void	watchdog_create_timer(void)
{
    2af6:	cf 93       	push	r28
    2af8:	df 93       	push	r29
    2afa:	cd b7       	in	r28, 0x3d	; 61
    2afc:	de b7       	in	r29, 0x3e	; 62
	SCH_TIM_CreateTimer(&s_WatchdogTimerContext.timerHandle, &s_WatchdogTimerContext.timerProperty);
    2afe:	6e ed       	ldi	r22, 0xDE	; 222
    2b00:	71 e0       	ldi	r23, 0x01	; 1
    2b02:	8d ed       	ldi	r24, 0xDD	; 221
    2b04:	91 e0       	ldi	r25, 0x01	; 1
    2b06:	0e 94 e4 2a 	call	0x55c8	; 0x55c8 <SCH_TIM_CreateTimer>
	SCH_TIM_RestartTimer(s_WatchdogTimerContext.timerHandle);
    2b0a:	80 91 dd 01 	lds	r24, 0x01DD	; 0x8001dd <s_WatchdogTimerContext>
    2b0e:	0e 94 39 2b 	call	0x5672	; 0x5672 <SCH_TIM_RestartTimer>
    2b12:	00 00       	nop
    2b14:	df 91       	pop	r29
    2b16:	cf 91       	pop	r28
    2b18:	08 95       	ret

00002b1a <pwm1_set_DutyCyclePercent>:
	
	OCR1C = _DutyCyclePercent * ICR1 * 0.01;		// Output Compare
}

void pwm1_set_DutyCyclePercent(const uint8_t _DutyCyclePercent)
{
    2b1a:	0f 93       	push	r16
    2b1c:	1f 93       	push	r17
    2b1e:	cf 93       	push	r28
    2b20:	df 93       	push	r29
    2b22:	1f 92       	push	r1
    2b24:	cd b7       	in	r28, 0x3d	; 61
    2b26:	de b7       	in	r29, 0x3e	; 62
    2b28:	89 83       	std	Y+1, r24	; 0x01
	OCR1B = _DutyCyclePercent * ICR1 * 0.01;
    2b2a:	08 e4       	ldi	r16, 0x48	; 72
    2b2c:	10 e0       	ldi	r17, 0x00	; 0
    2b2e:	89 81       	ldd	r24, Y+1	; 0x01
    2b30:	48 2f       	mov	r20, r24
    2b32:	50 e0       	ldi	r21, 0x00	; 0
    2b34:	86 e4       	ldi	r24, 0x46	; 70
    2b36:	90 e0       	ldi	r25, 0x00	; 0
    2b38:	fc 01       	movw	r30, r24
    2b3a:	20 81       	ld	r18, Z
    2b3c:	31 81       	ldd	r19, Z+1	; 0x01
    2b3e:	42 9f       	mul	r20, r18
    2b40:	c0 01       	movw	r24, r0
    2b42:	43 9f       	mul	r20, r19
    2b44:	90 0d       	add	r25, r0
    2b46:	52 9f       	mul	r21, r18
    2b48:	90 0d       	add	r25, r0
    2b4a:	11 24       	eor	r1, r1
    2b4c:	cc 01       	movw	r24, r24
    2b4e:	a0 e0       	ldi	r26, 0x00	; 0
    2b50:	b0 e0       	ldi	r27, 0x00	; 0
    2b52:	bc 01       	movw	r22, r24
    2b54:	cd 01       	movw	r24, r26
    2b56:	0e 94 23 2e 	call	0x5c46	; 0x5c46 <__floatunsisf>
    2b5a:	dc 01       	movw	r26, r24
    2b5c:	cb 01       	movw	r24, r22
    2b5e:	2a e0       	ldi	r18, 0x0A	; 10
    2b60:	37 ed       	ldi	r19, 0xD7	; 215
    2b62:	43 e2       	ldi	r20, 0x23	; 35
    2b64:	5c e3       	ldi	r21, 0x3C	; 60
    2b66:	bc 01       	movw	r22, r24
    2b68:	cd 01       	movw	r24, r26
    2b6a:	0e 94 da 2e 	call	0x5db4	; 0x5db4 <__mulsf3>
    2b6e:	dc 01       	movw	r26, r24
    2b70:	cb 01       	movw	r24, r22
    2b72:	bc 01       	movw	r22, r24
    2b74:	cd 01       	movw	r24, r26
    2b76:	0e 94 f4 2d 	call	0x5be8	; 0x5be8 <__fixunssfsi>
    2b7a:	dc 01       	movw	r26, r24
    2b7c:	cb 01       	movw	r24, r22
    2b7e:	f8 01       	movw	r30, r16
    2b80:	91 83       	std	Z+1, r25	; 0x01
    2b82:	80 83       	st	Z, r24
}
    2b84:	00 00       	nop
    2b86:	0f 90       	pop	r0
    2b88:	df 91       	pop	r29
    2b8a:	cf 91       	pop	r28
    2b8c:	1f 91       	pop	r17
    2b8e:	0f 91       	pop	r16
    2b90:	08 95       	ret

00002b92 <SPI_Init>:
#include "spi.h"
#include <util/delay.h>

// Initialize the SPI as master
void SPI_Init(void)
{
    2b92:	cf 93       	push	r28
    2b94:	df 93       	push	r29
    2b96:	cd b7       	in	r28, 0x3d	; 61
    2b98:	de b7       	in	r29, 0x3e	; 62

// 	 	MCP2515_SS0_DDR |= (1 << MCP2515_SS0_PIN);
// 	 	MCP2515_SS0_PORT |= (1 << MCP2515_SS0_PIN);      //kh?i ??ng chn SS l output v xu?t 1 tr??c khi kh?i ??ng SPI
		   
	// make the MOSI, SCK, and SS pins outputs
	SPI_DDR |= ( 1 << SPI_MOSI ) | ( 1 << SPI_SCK ) | ( 1<<MCP2515_SS0_PIN);
    2b9a:	87 e3       	ldi	r24, 0x37	; 55
    2b9c:	90 e0       	ldi	r25, 0x00	; 0
    2b9e:	27 e3       	ldi	r18, 0x37	; 55
    2ba0:	30 e0       	ldi	r19, 0x00	; 0
    2ba2:	f9 01       	movw	r30, r18
    2ba4:	20 81       	ld	r18, Z
    2ba6:	27 60       	ori	r18, 0x07	; 7
    2ba8:	fc 01       	movw	r30, r24
    2baa:	20 83       	st	Z, r18

	// make sure the MISO pin is input
	SPI_DDR &= ~( 1 << SPI_MISO );
    2bac:	87 e3       	ldi	r24, 0x37	; 55
    2bae:	90 e0       	ldi	r25, 0x00	; 0
    2bb0:	27 e3       	ldi	r18, 0x37	; 55
    2bb2:	30 e0       	ldi	r19, 0x00	; 0
    2bb4:	f9 01       	movw	r30, r18
    2bb6:	20 81       	ld	r18, Z
    2bb8:	27 7f       	andi	r18, 0xF7	; 247
    2bba:	fc 01       	movw	r30, r24
    2bbc:	20 83       	st	Z, r18

	// set up the SPI module: SPI enabled, MSB first, master mode,
	//  clock polarity and phase = 0, F_osc/16
	SPI_SPCR |= ( 1 << SPI_SPE ) | ( 1 << SPI_MSTR ) | ( 1 << SPI_SPR0 );
    2bbe:	8d e2       	ldi	r24, 0x2D	; 45
    2bc0:	90 e0       	ldi	r25, 0x00	; 0
    2bc2:	2d e2       	ldi	r18, 0x2D	; 45
    2bc4:	30 e0       	ldi	r19, 0x00	; 0
    2bc6:	f9 01       	movw	r30, r18
    2bc8:	20 81       	ld	r18, Z
    2bca:	21 65       	ori	r18, 0x51	; 81
    2bcc:	fc 01       	movw	r30, r24
    2bce:	20 83       	st	Z, r18
	


}
    2bd0:	00 00       	nop
    2bd2:	df 91       	pop	r29
    2bd4:	cf 91       	pop	r28
    2bd6:	08 95       	ret

00002bd8 <SPI_SendByte>:

// Transfer a byte of data
uint8_t SPI_SendByte( uint8_t data )
{
    2bd8:	cf 93       	push	r28
    2bda:	df 93       	push	r29
    2bdc:	1f 92       	push	r1
    2bde:	cd b7       	in	r28, 0x3d	; 61
    2be0:	de b7       	in	r29, 0x3e	; 62
    2be2:	89 83       	std	Y+1, r24	; 0x01
	// Start transmission
	SPDR = data;
    2be4:	8f e2       	ldi	r24, 0x2F	; 47
    2be6:	90 e0       	ldi	r25, 0x00	; 0
    2be8:	29 81       	ldd	r18, Y+1	; 0x01
    2bea:	fc 01       	movw	r30, r24
    2bec:	20 83       	st	Z, r18
//	SPDR = 01;

	// Wait for the transmission to complete
	while (!(SPSR & (1 << SPIF)));
    2bee:	00 00       	nop
    2bf0:	8e e2       	ldi	r24, 0x2E	; 46
    2bf2:	90 e0       	ldi	r25, 0x00	; 0
    2bf4:	fc 01       	movw	r30, r24
    2bf6:	80 81       	ld	r24, Z
    2bf8:	88 23       	and	r24, r24
    2bfa:	d4 f7       	brge	.-12     	; 0x2bf0 <SPI_SendByte+0x18>

	// return the byte received from the slave
	return SPDR;
    2bfc:	8f e2       	ldi	r24, 0x2F	; 47
    2bfe:	90 e0       	ldi	r25, 0x00	; 0
    2c00:	fc 01       	movw	r30, r24
    2c02:	80 81       	ld	r24, Z
}
    2c04:	0f 90       	pop	r0
    2c06:	df 91       	pop	r29
    2c08:	cf 91       	pop	r28
    2c0a:	08 95       	ret

00002c0c <SPI_ReadByte>:


// Transfer a byte of data
uint8_t SPI_ReadByte( void )
{
    2c0c:	cf 93       	push	r28
    2c0e:	df 93       	push	r29
    2c10:	cd b7       	in	r28, 0x3d	; 61
    2c12:	de b7       	in	r29, 0x3e	; 62
	// Start transmission
	SPDR = 0xFF;
    2c14:	8f e2       	ldi	r24, 0x2F	; 47
    2c16:	90 e0       	ldi	r25, 0x00	; 0
    2c18:	2f ef       	ldi	r18, 0xFF	; 255
    2c1a:	fc 01       	movw	r30, r24
    2c1c:	20 83       	st	Z, r18

	// Wait for the transmission to complete
	spi_wait();
    2c1e:	00 00       	nop
    2c20:	8e e2       	ldi	r24, 0x2E	; 46
    2c22:	90 e0       	ldi	r25, 0x00	; 0
    2c24:	fc 01       	movw	r30, r24
    2c26:	80 81       	ld	r24, Z
    2c28:	88 23       	and	r24, r24
    2c2a:	d4 f7       	brge	.-12     	; 0x2c20 <SPI_ReadByte+0x14>

	// return the byte received from the slave
	return SPDR;
    2c2c:	8f e2       	ldi	r24, 0x2F	; 47
    2c2e:	90 e0       	ldi	r25, 0x00	; 0
    2c30:	fc 01       	movw	r30, r24
    2c32:	80 81       	ld	r24, Z
}
    2c34:	df 91       	pop	r29
    2c36:	cf 91       	pop	r28
    2c38:	08 95       	ret

00002c3a <SPI_RxBuffer>:

//new code 9/7/2024
void SPI_RxBuffer(uint8_t *buffer, uint8_t length)
{
    2c3a:	cf 93       	push	r28
    2c3c:	df 93       	push	r29
    2c3e:	cd b7       	in	r28, 0x3d	; 61
    2c40:	de b7       	in	r29, 0x3e	; 62
    2c42:	a8 97       	sbiw	r28, 0x28	; 40
    2c44:	0f b6       	in	r0, 0x3f	; 63
    2c46:	f8 94       	cli
    2c48:	de bf       	out	0x3e, r29	; 62
    2c4a:	0f be       	out	0x3f, r0	; 63
    2c4c:	cd bf       	out	0x3d, r28	; 61
    2c4e:	9f a3       	std	Y+39, r25	; 0x27
    2c50:	8e a3       	std	Y+38, r24	; 0x26
    2c52:	68 a7       	std	Y+40, r22	; 0x28
	uint8_t i;
	uint32_t timeout_counter;

	for (i = 0; i < length; i++) {
    2c54:	19 82       	std	Y+1, r1	; 0x01
    2c56:	26 c1       	rjmp	.+588    	; 0x2ea4 <SPI_RxBuffer+0x26a>
		// Send dummy data to initiate SPI clock
		SPDR = 0xFF;
    2c58:	8f e2       	ldi	r24, 0x2F	; 47
    2c5a:	90 e0       	ldi	r25, 0x00	; 0
    2c5c:	2f ef       	ldi	r18, 0xFF	; 255
    2c5e:	fc 01       	movw	r30, r24
    2c60:	20 83       	st	Z, r18
		
		// Wait for reception complete with timeout
		timeout_counter = 0;
    2c62:	1a 82       	std	Y+2, r1	; 0x02
    2c64:	1b 82       	std	Y+3, r1	; 0x03
    2c66:	1c 82       	std	Y+4, r1	; 0x04
    2c68:	1d 82       	std	Y+5, r1	; 0x05
		while (!(SPSR & (1<<SPIF))) {
    2c6a:	03 c1       	rjmp	.+518    	; 0x2e72 <SPI_RxBuffer+0x238>
    2c6c:	80 e0       	ldi	r24, 0x00	; 0
    2c6e:	90 e0       	ldi	r25, 0x00	; 0
    2c70:	a0 e8       	ldi	r26, 0x80	; 128
    2c72:	bf e3       	ldi	r27, 0x3F	; 63
    2c74:	8e 83       	std	Y+6, r24	; 0x06
    2c76:	9f 83       	std	Y+7, r25	; 0x07
    2c78:	a8 87       	std	Y+8, r26	; 0x08
    2c7a:	b9 87       	std	Y+9, r27	; 0x09
	__builtin_avr_delay_cycles(__ticks_dc);

#else
	uint8_t __ticks;
	double __tmp2 ;
	__tmp = ((F_CPU) / 3e6) * __us;
    2c7c:	2b ea       	ldi	r18, 0xAB	; 171
    2c7e:	3a ea       	ldi	r19, 0xAA	; 170
    2c80:	4a e2       	ldi	r20, 0x2A	; 42
    2c82:	50 e4       	ldi	r21, 0x40	; 64
    2c84:	6e 81       	ldd	r22, Y+6	; 0x06
    2c86:	7f 81       	ldd	r23, Y+7	; 0x07
    2c88:	88 85       	ldd	r24, Y+8	; 0x08
    2c8a:	99 85       	ldd	r25, Y+9	; 0x09
    2c8c:	0e 94 da 2e 	call	0x5db4	; 0x5db4 <__mulsf3>
    2c90:	dc 01       	movw	r26, r24
    2c92:	cb 01       	movw	r24, r22
    2c94:	8a 87       	std	Y+10, r24	; 0x0a
    2c96:	9b 87       	std	Y+11, r25	; 0x0b
    2c98:	ac 87       	std	Y+12, r26	; 0x0c
    2c9a:	bd 87       	std	Y+13, r27	; 0x0d
	__tmp2 = ((F_CPU) / 4e6) * __us;
    2c9c:	8e 81       	ldd	r24, Y+6	; 0x06
    2c9e:	9f 81       	ldd	r25, Y+7	; 0x07
    2ca0:	a8 85       	ldd	r26, Y+8	; 0x08
    2ca2:	b9 85       	ldd	r27, Y+9	; 0x09
    2ca4:	9c 01       	movw	r18, r24
    2ca6:	ad 01       	movw	r20, r26
    2ca8:	bc 01       	movw	r22, r24
    2caa:	cd 01       	movw	r24, r26
    2cac:	0e 94 0a 2d 	call	0x5a14	; 0x5a14 <__addsf3>
    2cb0:	dc 01       	movw	r26, r24
    2cb2:	cb 01       	movw	r24, r22
    2cb4:	8e 87       	std	Y+14, r24	; 0x0e
    2cb6:	9f 87       	std	Y+15, r25	; 0x0f
    2cb8:	a8 8b       	std	Y+16, r26	; 0x10
    2cba:	b9 8b       	std	Y+17, r27	; 0x11
	if (__tmp < 1.0)
    2cbc:	20 e0       	ldi	r18, 0x00	; 0
    2cbe:	30 e0       	ldi	r19, 0x00	; 0
    2cc0:	40 e8       	ldi	r20, 0x80	; 128
    2cc2:	5f e3       	ldi	r21, 0x3F	; 63
    2cc4:	6a 85       	ldd	r22, Y+10	; 0x0a
    2cc6:	7b 85       	ldd	r23, Y+11	; 0x0b
    2cc8:	8c 85       	ldd	r24, Y+12	; 0x0c
    2cca:	9d 85       	ldd	r25, Y+13	; 0x0d
    2ccc:	0e 94 76 2d 	call	0x5aec	; 0x5aec <__cmpsf2>
    2cd0:	88 23       	and	r24, r24
    2cd2:	1c f4       	brge	.+6      	; 0x2cda <SPI_RxBuffer+0xa0>
		__ticks = 1;
    2cd4:	81 e0       	ldi	r24, 0x01	; 1
    2cd6:	8a 8b       	std	Y+18, r24	; 0x12
    2cd8:	b2 c0       	rjmp	.+356    	; 0x2e3e <SPI_RxBuffer+0x204>
	else if (__tmp2 > 65535)
    2cda:	20 e0       	ldi	r18, 0x00	; 0
    2cdc:	3f ef       	ldi	r19, 0xFF	; 255
    2cde:	4f e7       	ldi	r20, 0x7F	; 127
    2ce0:	57 e4       	ldi	r21, 0x47	; 71
    2ce2:	6e 85       	ldd	r22, Y+14	; 0x0e
    2ce4:	7f 85       	ldd	r23, Y+15	; 0x0f
    2ce6:	88 89       	ldd	r24, Y+16	; 0x10
    2ce8:	99 89       	ldd	r25, Y+17	; 0x11
    2cea:	0e 94 d5 2e 	call	0x5daa	; 0x5daa <__gesf2>
    2cee:	18 16       	cp	r1, r24
    2cf0:	0c f0       	brlt	.+2      	; 0x2cf4 <SPI_RxBuffer+0xba>
    2cf2:	7b c0       	rjmp	.+246    	; 0x2dea <SPI_RxBuffer+0x1b0>
	{
		_delay_ms(__us / 1000.0);
    2cf4:	20 e0       	ldi	r18, 0x00	; 0
    2cf6:	30 e0       	ldi	r19, 0x00	; 0
    2cf8:	4a e7       	ldi	r20, 0x7A	; 122
    2cfa:	54 e4       	ldi	r21, 0x44	; 68
    2cfc:	6e 81       	ldd	r22, Y+6	; 0x06
    2cfe:	7f 81       	ldd	r23, Y+7	; 0x07
    2d00:	88 85       	ldd	r24, Y+8	; 0x08
    2d02:	99 85       	ldd	r25, Y+9	; 0x09
    2d04:	0e 94 7b 2d 	call	0x5af6	; 0x5af6 <__divsf3>
    2d08:	dc 01       	movw	r26, r24
    2d0a:	cb 01       	movw	r24, r22
    2d0c:	8b 8b       	std	Y+19, r24	; 0x13
    2d0e:	9c 8b       	std	Y+20, r25	; 0x14
    2d10:	ad 8b       	std	Y+21, r26	; 0x15
    2d12:	be 8b       	std	Y+22, r27	; 0x16

	__builtin_avr_delay_cycles(__ticks_dc);

#else
	uint16_t __ticks;
	__tmp = ((F_CPU) / 4e3) * __ms;
    2d14:	20 e0       	ldi	r18, 0x00	; 0
    2d16:	30 e0       	ldi	r19, 0x00	; 0
    2d18:	4a ef       	ldi	r20, 0xFA	; 250
    2d1a:	54 e4       	ldi	r21, 0x44	; 68
    2d1c:	6b 89       	ldd	r22, Y+19	; 0x13
    2d1e:	7c 89       	ldd	r23, Y+20	; 0x14
    2d20:	8d 89       	ldd	r24, Y+21	; 0x15
    2d22:	9e 89       	ldd	r25, Y+22	; 0x16
    2d24:	0e 94 da 2e 	call	0x5db4	; 0x5db4 <__mulsf3>
    2d28:	dc 01       	movw	r26, r24
    2d2a:	cb 01       	movw	r24, r22
    2d2c:	8f 8b       	std	Y+23, r24	; 0x17
    2d2e:	98 8f       	std	Y+24, r25	; 0x18
    2d30:	a9 8f       	std	Y+25, r26	; 0x19
    2d32:	ba 8f       	std	Y+26, r27	; 0x1a
	if (__tmp < 1.0)
    2d34:	20 e0       	ldi	r18, 0x00	; 0
    2d36:	30 e0       	ldi	r19, 0x00	; 0
    2d38:	40 e8       	ldi	r20, 0x80	; 128
    2d3a:	5f e3       	ldi	r21, 0x3F	; 63
    2d3c:	6f 89       	ldd	r22, Y+23	; 0x17
    2d3e:	78 8d       	ldd	r23, Y+24	; 0x18
    2d40:	89 8d       	ldd	r24, Y+25	; 0x19
    2d42:	9a 8d       	ldd	r25, Y+26	; 0x1a
    2d44:	0e 94 76 2d 	call	0x5aec	; 0x5aec <__cmpsf2>
    2d48:	88 23       	and	r24, r24
    2d4a:	2c f4       	brge	.+10     	; 0x2d56 <SPI_RxBuffer+0x11c>
		__ticks = 1;
    2d4c:	81 e0       	ldi	r24, 0x01	; 1
    2d4e:	90 e0       	ldi	r25, 0x00	; 0
    2d50:	9c 8f       	std	Y+28, r25	; 0x1c
    2d52:	8b 8f       	std	Y+27, r24	; 0x1b
    2d54:	3f c0       	rjmp	.+126    	; 0x2dd4 <SPI_RxBuffer+0x19a>
	else if (__tmp > 65535)
    2d56:	20 e0       	ldi	r18, 0x00	; 0
    2d58:	3f ef       	ldi	r19, 0xFF	; 255
    2d5a:	4f e7       	ldi	r20, 0x7F	; 127
    2d5c:	57 e4       	ldi	r21, 0x47	; 71
    2d5e:	6f 89       	ldd	r22, Y+23	; 0x17
    2d60:	78 8d       	ldd	r23, Y+24	; 0x18
    2d62:	89 8d       	ldd	r24, Y+25	; 0x19
    2d64:	9a 8d       	ldd	r25, Y+26	; 0x1a
    2d66:	0e 94 d5 2e 	call	0x5daa	; 0x5daa <__gesf2>
    2d6a:	18 16       	cp	r1, r24
    2d6c:	4c f5       	brge	.+82     	; 0x2dc0 <SPI_RxBuffer+0x186>
	{
		//	__ticks = requested delay in 1/10 ms
		__ticks = (uint16_t) (__ms * 10.0);
    2d6e:	20 e0       	ldi	r18, 0x00	; 0
    2d70:	30 e0       	ldi	r19, 0x00	; 0
    2d72:	40 e2       	ldi	r20, 0x20	; 32
    2d74:	51 e4       	ldi	r21, 0x41	; 65
    2d76:	6b 89       	ldd	r22, Y+19	; 0x13
    2d78:	7c 89       	ldd	r23, Y+20	; 0x14
    2d7a:	8d 89       	ldd	r24, Y+21	; 0x15
    2d7c:	9e 89       	ldd	r25, Y+22	; 0x16
    2d7e:	0e 94 da 2e 	call	0x5db4	; 0x5db4 <__mulsf3>
    2d82:	dc 01       	movw	r26, r24
    2d84:	cb 01       	movw	r24, r22
    2d86:	bc 01       	movw	r22, r24
    2d88:	cd 01       	movw	r24, r26
    2d8a:	0e 94 f4 2d 	call	0x5be8	; 0x5be8 <__fixunssfsi>
    2d8e:	dc 01       	movw	r26, r24
    2d90:	cb 01       	movw	r24, r22
    2d92:	9c 8f       	std	Y+28, r25	; 0x1c
    2d94:	8b 8f       	std	Y+27, r24	; 0x1b
    2d96:	0f c0       	rjmp	.+30     	; 0x2db6 <SPI_RxBuffer+0x17c>
    2d98:	88 ec       	ldi	r24, 0xC8	; 200
    2d9a:	90 e0       	ldi	r25, 0x00	; 0
    2d9c:	9e 8f       	std	Y+30, r25	; 0x1e
    2d9e:	8d 8f       	std	Y+29, r24	; 0x1d
    milliseconds can be achieved.
 */
void
_delay_loop_2(uint16_t __count)
{
	__asm__ volatile (
    2da0:	8d 8d       	ldd	r24, Y+29	; 0x1d
    2da2:	9e 8d       	ldd	r25, Y+30	; 0x1e
    2da4:	01 97       	sbiw	r24, 0x01	; 1
    2da6:	f1 f7       	brne	.-4      	; 0x2da4 <SPI_RxBuffer+0x16a>
    2da8:	9e 8f       	std	Y+30, r25	; 0x1e
    2daa:	8d 8f       	std	Y+29, r24	; 0x1d
		while(__ticks)
		{
			// wait 1/10 ms
			_delay_loop_2(((F_CPU) / 4e3) / 10);
			__ticks --;
    2dac:	8b 8d       	ldd	r24, Y+27	; 0x1b
    2dae:	9c 8d       	ldd	r25, Y+28	; 0x1c
    2db0:	01 97       	sbiw	r24, 0x01	; 1
    2db2:	9c 8f       	std	Y+28, r25	; 0x1c
    2db4:	8b 8f       	std	Y+27, r24	; 0x1b
		__ticks = 1;
	else if (__tmp > 65535)
	{
		//	__ticks = requested delay in 1/10 ms
		__ticks = (uint16_t) (__ms * 10.0);
		while(__ticks)
    2db6:	8b 8d       	ldd	r24, Y+27	; 0x1b
    2db8:	9c 8d       	ldd	r25, Y+28	; 0x1c
    2dba:	89 2b       	or	r24, r25
    2dbc:	69 f7       	brne	.-38     	; 0x2d98 <SPI_RxBuffer+0x15e>
    2dbe:	3f c0       	rjmp	.+126    	; 0x2e3e <SPI_RxBuffer+0x204>
			__ticks --;
		}
		return;
	}
	else
		__ticks = (uint16_t)__tmp;
    2dc0:	6f 89       	ldd	r22, Y+23	; 0x17
    2dc2:	78 8d       	ldd	r23, Y+24	; 0x18
    2dc4:	89 8d       	ldd	r24, Y+25	; 0x19
    2dc6:	9a 8d       	ldd	r25, Y+26	; 0x1a
    2dc8:	0e 94 f4 2d 	call	0x5be8	; 0x5be8 <__fixunssfsi>
    2dcc:	dc 01       	movw	r26, r24
    2dce:	cb 01       	movw	r24, r22
    2dd0:	9c 8f       	std	Y+28, r25	; 0x1c
    2dd2:	8b 8f       	std	Y+27, r24	; 0x1b
    2dd4:	8b 8d       	ldd	r24, Y+27	; 0x1b
    2dd6:	9c 8d       	ldd	r25, Y+28	; 0x1c
    2dd8:	98 a3       	std	Y+32, r25	; 0x20
    2dda:	8f 8f       	std	Y+31, r24	; 0x1f
    2ddc:	8f 8d       	ldd	r24, Y+31	; 0x1f
    2dde:	98 a1       	ldd	r25, Y+32	; 0x20
    2de0:	01 97       	sbiw	r24, 0x01	; 1
    2de2:	f1 f7       	brne	.-4      	; 0x2de0 <SPI_RxBuffer+0x1a6>
    2de4:	98 a3       	std	Y+32, r25	; 0x20
    2de6:	8f 8f       	std	Y+31, r24	; 0x1f
    2de8:	2a c0       	rjmp	.+84     	; 0x2e3e <SPI_RxBuffer+0x204>
		__ticks = 1;
	else if (__tmp2 > 65535)
	{
		_delay_ms(__us / 1000.0);
	}
	else if (__tmp > 255)
    2dea:	20 e0       	ldi	r18, 0x00	; 0
    2dec:	30 e0       	ldi	r19, 0x00	; 0
    2dee:	4f e7       	ldi	r20, 0x7F	; 127
    2df0:	53 e4       	ldi	r21, 0x43	; 67
    2df2:	6a 85       	ldd	r22, Y+10	; 0x0a
    2df4:	7b 85       	ldd	r23, Y+11	; 0x0b
    2df6:	8c 85       	ldd	r24, Y+12	; 0x0c
    2df8:	9d 85       	ldd	r25, Y+13	; 0x0d
    2dfa:	0e 94 d5 2e 	call	0x5daa	; 0x5daa <__gesf2>
    2dfe:	18 16       	cp	r1, r24
    2e00:	ac f4       	brge	.+42     	; 0x2e2c <SPI_RxBuffer+0x1f2>
	{
		uint16_t __ticks=(uint16_t)__tmp2;
    2e02:	6e 85       	ldd	r22, Y+14	; 0x0e
    2e04:	7f 85       	ldd	r23, Y+15	; 0x0f
    2e06:	88 89       	ldd	r24, Y+16	; 0x10
    2e08:	99 89       	ldd	r25, Y+17	; 0x11
    2e0a:	0e 94 f4 2d 	call	0x5be8	; 0x5be8 <__fixunssfsi>
    2e0e:	dc 01       	movw	r26, r24
    2e10:	cb 01       	movw	r24, r22
    2e12:	9a a3       	std	Y+34, r25	; 0x22
    2e14:	89 a3       	std	Y+33, r24	; 0x21
    2e16:	89 a1       	ldd	r24, Y+33	; 0x21
    2e18:	9a a1       	ldd	r25, Y+34	; 0x22
    2e1a:	9c a3       	std	Y+36, r25	; 0x24
    2e1c:	8b a3       	std	Y+35, r24	; 0x23
    2e1e:	8b a1       	ldd	r24, Y+35	; 0x23
    2e20:	9c a1       	ldd	r25, Y+36	; 0x24
    2e22:	01 97       	sbiw	r24, 0x01	; 1
    2e24:	f1 f7       	brne	.-4      	; 0x2e22 <SPI_RxBuffer+0x1e8>
    2e26:	9c a3       	std	Y+36, r25	; 0x24
    2e28:	8b a3       	std	Y+35, r24	; 0x23
    2e2a:	0f c0       	rjmp	.+30     	; 0x2e4a <SPI_RxBuffer+0x210>
		_delay_loop_2(__ticks);
		return;
	}
	else
		__ticks = (uint8_t)__tmp;
    2e2c:	6a 85       	ldd	r22, Y+10	; 0x0a
    2e2e:	7b 85       	ldd	r23, Y+11	; 0x0b
    2e30:	8c 85       	ldd	r24, Y+12	; 0x0c
    2e32:	9d 85       	ldd	r25, Y+13	; 0x0d
    2e34:	0e 94 f4 2d 	call	0x5be8	; 0x5be8 <__fixunssfsi>
    2e38:	dc 01       	movw	r26, r24
    2e3a:	cb 01       	movw	r24, r22
    2e3c:	8a 8b       	std	Y+18, r24	; 0x12
    2e3e:	8a 89       	ldd	r24, Y+18	; 0x12
    2e40:	8d a3       	std	Y+37, r24	; 0x25
    can be achieved.
*/
void
_delay_loop_1(uint8_t __count)
{
	__asm__ volatile (
    2e42:	8d a1       	ldd	r24, Y+37	; 0x25
    2e44:	8a 95       	dec	r24
    2e46:	f1 f7       	brne	.-4      	; 0x2e44 <SPI_RxBuffer+0x20a>
    2e48:	8d a3       	std	Y+37, r24	; 0x25
			_delay_us(1);
			timeout_counter++;
    2e4a:	8a 81       	ldd	r24, Y+2	; 0x02
    2e4c:	9b 81       	ldd	r25, Y+3	; 0x03
    2e4e:	ac 81       	ldd	r26, Y+4	; 0x04
    2e50:	bd 81       	ldd	r27, Y+5	; 0x05
    2e52:	01 96       	adiw	r24, 0x01	; 1
    2e54:	a1 1d       	adc	r26, r1
    2e56:	b1 1d       	adc	r27, r1
    2e58:	8a 83       	std	Y+2, r24	; 0x02
    2e5a:	9b 83       	std	Y+3, r25	; 0x03
    2e5c:	ac 83       	std	Y+4, r26	; 0x04
    2e5e:	bd 83       	std	Y+5, r27	; 0x05
			if (timeout_counter > 10000) {
    2e60:	8a 81       	ldd	r24, Y+2	; 0x02
    2e62:	9b 81       	ldd	r25, Y+3	; 0x03
    2e64:	ac 81       	ldd	r26, Y+4	; 0x04
    2e66:	bd 81       	ldd	r27, Y+5	; 0x05
    2e68:	81 31       	cpi	r24, 0x11	; 17
    2e6a:	97 42       	sbci	r25, 0x27	; 39
    2e6c:	a1 05       	cpc	r26, r1
    2e6e:	b1 05       	cpc	r27, r1
    2e70:	40 f4       	brcc	.+16     	; 0x2e82 <SPI_RxBuffer+0x248>
		// Send dummy data to initiate SPI clock
		SPDR = 0xFF;
		
		// Wait for reception complete with timeout
		timeout_counter = 0;
		while (!(SPSR & (1<<SPIF))) {
    2e72:	8e e2       	ldi	r24, 0x2E	; 46
    2e74:	90 e0       	ldi	r25, 0x00	; 0
    2e76:	fc 01       	movw	r30, r24
    2e78:	80 81       	ld	r24, Z
    2e7a:	88 23       	and	r24, r24
    2e7c:	0c f0       	brlt	.+2      	; 0x2e80 <SPI_RxBuffer+0x246>
    2e7e:	f6 ce       	rjmp	.-532    	; 0x2c6c <SPI_RxBuffer+0x32>
    2e80:	01 c0       	rjmp	.+2      	; 0x2e84 <SPI_RxBuffer+0x24a>
			_delay_us(1);
			timeout_counter++;
			if (timeout_counter > 10000) {
				// Handle timeout (e.g., set an error flag, break, etc.)
				// For now, we'll just break
				break;
    2e82:	00 00       	nop
			}
		}
		
		// Read received data
		buffer[i] = SPDR;
    2e84:	89 81       	ldd	r24, Y+1	; 0x01
    2e86:	88 2f       	mov	r24, r24
    2e88:	90 e0       	ldi	r25, 0x00	; 0
    2e8a:	2e a1       	ldd	r18, Y+38	; 0x26
    2e8c:	3f a1       	ldd	r19, Y+39	; 0x27
    2e8e:	82 0f       	add	r24, r18
    2e90:	93 1f       	adc	r25, r19
    2e92:	2f e2       	ldi	r18, 0x2F	; 47
    2e94:	30 e0       	ldi	r19, 0x00	; 0
    2e96:	f9 01       	movw	r30, r18
    2e98:	20 81       	ld	r18, Z
    2e9a:	fc 01       	movw	r30, r24
    2e9c:	20 83       	st	Z, r18
void SPI_RxBuffer(uint8_t *buffer, uint8_t length)
{
	uint8_t i;
	uint32_t timeout_counter;

	for (i = 0; i < length; i++) {
    2e9e:	89 81       	ldd	r24, Y+1	; 0x01
    2ea0:	8f 5f       	subi	r24, 0xFF	; 255
    2ea2:	89 83       	std	Y+1, r24	; 0x01
    2ea4:	99 81       	ldd	r25, Y+1	; 0x01
    2ea6:	88 a5       	ldd	r24, Y+40	; 0x28
    2ea8:	98 17       	cp	r25, r24
    2eaa:	08 f4       	brcc	.+2      	; 0x2eae <SPI_RxBuffer+0x274>
    2eac:	d5 ce       	rjmp	.-598    	; 0x2c58 <SPI_RxBuffer+0x1e>
		}
		
		// Read received data
		buffer[i] = SPDR;
	}
}
    2eae:	00 00       	nop
    2eb0:	a8 96       	adiw	r28, 0x28	; 40
    2eb2:	0f b6       	in	r0, 0x3f	; 63
    2eb4:	f8 94       	cli
    2eb6:	de bf       	out	0x3e, r29	; 62
    2eb8:	0f be       	out	0x3f, r0	; 63
    2eba:	cd bf       	out	0x3d, r28	; 61
    2ebc:	df 91       	pop	r29
    2ebe:	cf 91       	pop	r28
    2ec0:	08 95       	ret

00002ec2 <SPI_TxBuffer>:

void SPI_TxBuffer(uint8_t *buffer, uint8_t length)
{
    2ec2:	cf 93       	push	r28
    2ec4:	df 93       	push	r29
    2ec6:	cd b7       	in	r28, 0x3d	; 61
    2ec8:	de b7       	in	r29, 0x3e	; 62
    2eca:	a8 97       	sbiw	r28, 0x28	; 40
    2ecc:	0f b6       	in	r0, 0x3f	; 63
    2ece:	f8 94       	cli
    2ed0:	de bf       	out	0x3e, r29	; 62
    2ed2:	0f be       	out	0x3f, r0	; 63
    2ed4:	cd bf       	out	0x3d, r28	; 61
    2ed6:	9f a3       	std	Y+39, r25	; 0x27
    2ed8:	8e a3       	std	Y+38, r24	; 0x26
    2eda:	68 a7       	std	Y+40, r22	; 0x28
	uint8_t i;
	uint32_t timeout_counter;

	for (i = 0; i < length; i++)
    2edc:	19 82       	std	Y+1, r1	; 0x01
    2ede:	21 c1       	rjmp	.+578    	; 0x3122 <SPI_TxBuffer+0x260>
	{
		// Load data into the buffer
		SPDR = buffer[i];
    2ee0:	8f e2       	ldi	r24, 0x2F	; 47
    2ee2:	90 e0       	ldi	r25, 0x00	; 0
    2ee4:	29 81       	ldd	r18, Y+1	; 0x01
    2ee6:	22 2f       	mov	r18, r18
    2ee8:	30 e0       	ldi	r19, 0x00	; 0
    2eea:	4e a1       	ldd	r20, Y+38	; 0x26
    2eec:	5f a1       	ldd	r21, Y+39	; 0x27
    2eee:	24 0f       	add	r18, r20
    2ef0:	35 1f       	adc	r19, r21
    2ef2:	f9 01       	movw	r30, r18
    2ef4:	20 81       	ld	r18, Z
    2ef6:	fc 01       	movw	r30, r24
    2ef8:	20 83       	st	Z, r18

		// Wait for transmission complete with timeout
		timeout_counter = 0;
    2efa:	1a 82       	std	Y+2, r1	; 0x02
    2efc:	1b 82       	std	Y+3, r1	; 0x03
    2efe:	1c 82       	std	Y+4, r1	; 0x04
    2f00:	1d 82       	std	Y+5, r1	; 0x05
		while (!(SPSR & (1<<SPIF)))
    2f02:	03 c1       	rjmp	.+518    	; 0x310a <SPI_TxBuffer+0x248>
    2f04:	80 e0       	ldi	r24, 0x00	; 0
    2f06:	90 e0       	ldi	r25, 0x00	; 0
    2f08:	a0 e8       	ldi	r26, 0x80	; 128
    2f0a:	bf e3       	ldi	r27, 0x3F	; 63
    2f0c:	8e 83       	std	Y+6, r24	; 0x06
    2f0e:	9f 83       	std	Y+7, r25	; 0x07
    2f10:	a8 87       	std	Y+8, r26	; 0x08
    2f12:	b9 87       	std	Y+9, r27	; 0x09
	__builtin_avr_delay_cycles(__ticks_dc);

#else
	uint8_t __ticks;
	double __tmp2 ;
	__tmp = ((F_CPU) / 3e6) * __us;
    2f14:	2b ea       	ldi	r18, 0xAB	; 171
    2f16:	3a ea       	ldi	r19, 0xAA	; 170
    2f18:	4a e2       	ldi	r20, 0x2A	; 42
    2f1a:	50 e4       	ldi	r21, 0x40	; 64
    2f1c:	6e 81       	ldd	r22, Y+6	; 0x06
    2f1e:	7f 81       	ldd	r23, Y+7	; 0x07
    2f20:	88 85       	ldd	r24, Y+8	; 0x08
    2f22:	99 85       	ldd	r25, Y+9	; 0x09
    2f24:	0e 94 da 2e 	call	0x5db4	; 0x5db4 <__mulsf3>
    2f28:	dc 01       	movw	r26, r24
    2f2a:	cb 01       	movw	r24, r22
    2f2c:	8a 87       	std	Y+10, r24	; 0x0a
    2f2e:	9b 87       	std	Y+11, r25	; 0x0b
    2f30:	ac 87       	std	Y+12, r26	; 0x0c
    2f32:	bd 87       	std	Y+13, r27	; 0x0d
	__tmp2 = ((F_CPU) / 4e6) * __us;
    2f34:	8e 81       	ldd	r24, Y+6	; 0x06
    2f36:	9f 81       	ldd	r25, Y+7	; 0x07
    2f38:	a8 85       	ldd	r26, Y+8	; 0x08
    2f3a:	b9 85       	ldd	r27, Y+9	; 0x09
    2f3c:	9c 01       	movw	r18, r24
    2f3e:	ad 01       	movw	r20, r26
    2f40:	bc 01       	movw	r22, r24
    2f42:	cd 01       	movw	r24, r26
    2f44:	0e 94 0a 2d 	call	0x5a14	; 0x5a14 <__addsf3>
    2f48:	dc 01       	movw	r26, r24
    2f4a:	cb 01       	movw	r24, r22
    2f4c:	8e 87       	std	Y+14, r24	; 0x0e
    2f4e:	9f 87       	std	Y+15, r25	; 0x0f
    2f50:	a8 8b       	std	Y+16, r26	; 0x10
    2f52:	b9 8b       	std	Y+17, r27	; 0x11
	if (__tmp < 1.0)
    2f54:	20 e0       	ldi	r18, 0x00	; 0
    2f56:	30 e0       	ldi	r19, 0x00	; 0
    2f58:	40 e8       	ldi	r20, 0x80	; 128
    2f5a:	5f e3       	ldi	r21, 0x3F	; 63
    2f5c:	6a 85       	ldd	r22, Y+10	; 0x0a
    2f5e:	7b 85       	ldd	r23, Y+11	; 0x0b
    2f60:	8c 85       	ldd	r24, Y+12	; 0x0c
    2f62:	9d 85       	ldd	r25, Y+13	; 0x0d
    2f64:	0e 94 76 2d 	call	0x5aec	; 0x5aec <__cmpsf2>
    2f68:	88 23       	and	r24, r24
    2f6a:	1c f4       	brge	.+6      	; 0x2f72 <SPI_TxBuffer+0xb0>
		__ticks = 1;
    2f6c:	81 e0       	ldi	r24, 0x01	; 1
    2f6e:	8a 8b       	std	Y+18, r24	; 0x12
    2f70:	b2 c0       	rjmp	.+356    	; 0x30d6 <SPI_TxBuffer+0x214>
	else if (__tmp2 > 65535)
    2f72:	20 e0       	ldi	r18, 0x00	; 0
    2f74:	3f ef       	ldi	r19, 0xFF	; 255
    2f76:	4f e7       	ldi	r20, 0x7F	; 127
    2f78:	57 e4       	ldi	r21, 0x47	; 71
    2f7a:	6e 85       	ldd	r22, Y+14	; 0x0e
    2f7c:	7f 85       	ldd	r23, Y+15	; 0x0f
    2f7e:	88 89       	ldd	r24, Y+16	; 0x10
    2f80:	99 89       	ldd	r25, Y+17	; 0x11
    2f82:	0e 94 d5 2e 	call	0x5daa	; 0x5daa <__gesf2>
    2f86:	18 16       	cp	r1, r24
    2f88:	0c f0       	brlt	.+2      	; 0x2f8c <SPI_TxBuffer+0xca>
    2f8a:	7b c0       	rjmp	.+246    	; 0x3082 <SPI_TxBuffer+0x1c0>
	{
		_delay_ms(__us / 1000.0);
    2f8c:	20 e0       	ldi	r18, 0x00	; 0
    2f8e:	30 e0       	ldi	r19, 0x00	; 0
    2f90:	4a e7       	ldi	r20, 0x7A	; 122
    2f92:	54 e4       	ldi	r21, 0x44	; 68
    2f94:	6e 81       	ldd	r22, Y+6	; 0x06
    2f96:	7f 81       	ldd	r23, Y+7	; 0x07
    2f98:	88 85       	ldd	r24, Y+8	; 0x08
    2f9a:	99 85       	ldd	r25, Y+9	; 0x09
    2f9c:	0e 94 7b 2d 	call	0x5af6	; 0x5af6 <__divsf3>
    2fa0:	dc 01       	movw	r26, r24
    2fa2:	cb 01       	movw	r24, r22
    2fa4:	8b 8b       	std	Y+19, r24	; 0x13
    2fa6:	9c 8b       	std	Y+20, r25	; 0x14
    2fa8:	ad 8b       	std	Y+21, r26	; 0x15
    2faa:	be 8b       	std	Y+22, r27	; 0x16

	__builtin_avr_delay_cycles(__ticks_dc);

#else
	uint16_t __ticks;
	__tmp = ((F_CPU) / 4e3) * __ms;
    2fac:	20 e0       	ldi	r18, 0x00	; 0
    2fae:	30 e0       	ldi	r19, 0x00	; 0
    2fb0:	4a ef       	ldi	r20, 0xFA	; 250
    2fb2:	54 e4       	ldi	r21, 0x44	; 68
    2fb4:	6b 89       	ldd	r22, Y+19	; 0x13
    2fb6:	7c 89       	ldd	r23, Y+20	; 0x14
    2fb8:	8d 89       	ldd	r24, Y+21	; 0x15
    2fba:	9e 89       	ldd	r25, Y+22	; 0x16
    2fbc:	0e 94 da 2e 	call	0x5db4	; 0x5db4 <__mulsf3>
    2fc0:	dc 01       	movw	r26, r24
    2fc2:	cb 01       	movw	r24, r22
    2fc4:	8f 8b       	std	Y+23, r24	; 0x17
    2fc6:	98 8f       	std	Y+24, r25	; 0x18
    2fc8:	a9 8f       	std	Y+25, r26	; 0x19
    2fca:	ba 8f       	std	Y+26, r27	; 0x1a
	if (__tmp < 1.0)
    2fcc:	20 e0       	ldi	r18, 0x00	; 0
    2fce:	30 e0       	ldi	r19, 0x00	; 0
    2fd0:	40 e8       	ldi	r20, 0x80	; 128
    2fd2:	5f e3       	ldi	r21, 0x3F	; 63
    2fd4:	6f 89       	ldd	r22, Y+23	; 0x17
    2fd6:	78 8d       	ldd	r23, Y+24	; 0x18
    2fd8:	89 8d       	ldd	r24, Y+25	; 0x19
    2fda:	9a 8d       	ldd	r25, Y+26	; 0x1a
    2fdc:	0e 94 76 2d 	call	0x5aec	; 0x5aec <__cmpsf2>
    2fe0:	88 23       	and	r24, r24
    2fe2:	2c f4       	brge	.+10     	; 0x2fee <SPI_TxBuffer+0x12c>
		__ticks = 1;
    2fe4:	81 e0       	ldi	r24, 0x01	; 1
    2fe6:	90 e0       	ldi	r25, 0x00	; 0
    2fe8:	9c 8f       	std	Y+28, r25	; 0x1c
    2fea:	8b 8f       	std	Y+27, r24	; 0x1b
    2fec:	3f c0       	rjmp	.+126    	; 0x306c <SPI_TxBuffer+0x1aa>
	else if (__tmp > 65535)
    2fee:	20 e0       	ldi	r18, 0x00	; 0
    2ff0:	3f ef       	ldi	r19, 0xFF	; 255
    2ff2:	4f e7       	ldi	r20, 0x7F	; 127
    2ff4:	57 e4       	ldi	r21, 0x47	; 71
    2ff6:	6f 89       	ldd	r22, Y+23	; 0x17
    2ff8:	78 8d       	ldd	r23, Y+24	; 0x18
    2ffa:	89 8d       	ldd	r24, Y+25	; 0x19
    2ffc:	9a 8d       	ldd	r25, Y+26	; 0x1a
    2ffe:	0e 94 d5 2e 	call	0x5daa	; 0x5daa <__gesf2>
    3002:	18 16       	cp	r1, r24
    3004:	4c f5       	brge	.+82     	; 0x3058 <SPI_TxBuffer+0x196>
	{
		//	__ticks = requested delay in 1/10 ms
		__ticks = (uint16_t) (__ms * 10.0);
    3006:	20 e0       	ldi	r18, 0x00	; 0
    3008:	30 e0       	ldi	r19, 0x00	; 0
    300a:	40 e2       	ldi	r20, 0x20	; 32
    300c:	51 e4       	ldi	r21, 0x41	; 65
    300e:	6b 89       	ldd	r22, Y+19	; 0x13
    3010:	7c 89       	ldd	r23, Y+20	; 0x14
    3012:	8d 89       	ldd	r24, Y+21	; 0x15
    3014:	9e 89       	ldd	r25, Y+22	; 0x16
    3016:	0e 94 da 2e 	call	0x5db4	; 0x5db4 <__mulsf3>
    301a:	dc 01       	movw	r26, r24
    301c:	cb 01       	movw	r24, r22
    301e:	bc 01       	movw	r22, r24
    3020:	cd 01       	movw	r24, r26
    3022:	0e 94 f4 2d 	call	0x5be8	; 0x5be8 <__fixunssfsi>
    3026:	dc 01       	movw	r26, r24
    3028:	cb 01       	movw	r24, r22
    302a:	9c 8f       	std	Y+28, r25	; 0x1c
    302c:	8b 8f       	std	Y+27, r24	; 0x1b
    302e:	0f c0       	rjmp	.+30     	; 0x304e <SPI_TxBuffer+0x18c>
    3030:	88 ec       	ldi	r24, 0xC8	; 200
    3032:	90 e0       	ldi	r25, 0x00	; 0
    3034:	9e 8f       	std	Y+30, r25	; 0x1e
    3036:	8d 8f       	std	Y+29, r24	; 0x1d
    milliseconds can be achieved.
 */
void
_delay_loop_2(uint16_t __count)
{
	__asm__ volatile (
    3038:	8d 8d       	ldd	r24, Y+29	; 0x1d
    303a:	9e 8d       	ldd	r25, Y+30	; 0x1e
    303c:	01 97       	sbiw	r24, 0x01	; 1
    303e:	f1 f7       	brne	.-4      	; 0x303c <SPI_TxBuffer+0x17a>
    3040:	9e 8f       	std	Y+30, r25	; 0x1e
    3042:	8d 8f       	std	Y+29, r24	; 0x1d
		while(__ticks)
		{
			// wait 1/10 ms
			_delay_loop_2(((F_CPU) / 4e3) / 10);
			__ticks --;
    3044:	8b 8d       	ldd	r24, Y+27	; 0x1b
    3046:	9c 8d       	ldd	r25, Y+28	; 0x1c
    3048:	01 97       	sbiw	r24, 0x01	; 1
    304a:	9c 8f       	std	Y+28, r25	; 0x1c
    304c:	8b 8f       	std	Y+27, r24	; 0x1b
		__ticks = 1;
	else if (__tmp > 65535)
	{
		//	__ticks = requested delay in 1/10 ms
		__ticks = (uint16_t) (__ms * 10.0);
		while(__ticks)
    304e:	8b 8d       	ldd	r24, Y+27	; 0x1b
    3050:	9c 8d       	ldd	r25, Y+28	; 0x1c
    3052:	89 2b       	or	r24, r25
    3054:	69 f7       	brne	.-38     	; 0x3030 <SPI_TxBuffer+0x16e>
    3056:	3f c0       	rjmp	.+126    	; 0x30d6 <SPI_TxBuffer+0x214>
			__ticks --;
		}
		return;
	}
	else
		__ticks = (uint16_t)__tmp;
    3058:	6f 89       	ldd	r22, Y+23	; 0x17
    305a:	78 8d       	ldd	r23, Y+24	; 0x18
    305c:	89 8d       	ldd	r24, Y+25	; 0x19
    305e:	9a 8d       	ldd	r25, Y+26	; 0x1a
    3060:	0e 94 f4 2d 	call	0x5be8	; 0x5be8 <__fixunssfsi>
    3064:	dc 01       	movw	r26, r24
    3066:	cb 01       	movw	r24, r22
    3068:	9c 8f       	std	Y+28, r25	; 0x1c
    306a:	8b 8f       	std	Y+27, r24	; 0x1b
    306c:	8b 8d       	ldd	r24, Y+27	; 0x1b
    306e:	9c 8d       	ldd	r25, Y+28	; 0x1c
    3070:	98 a3       	std	Y+32, r25	; 0x20
    3072:	8f 8f       	std	Y+31, r24	; 0x1f
    3074:	8f 8d       	ldd	r24, Y+31	; 0x1f
    3076:	98 a1       	ldd	r25, Y+32	; 0x20
    3078:	01 97       	sbiw	r24, 0x01	; 1
    307a:	f1 f7       	brne	.-4      	; 0x3078 <SPI_TxBuffer+0x1b6>
    307c:	98 a3       	std	Y+32, r25	; 0x20
    307e:	8f 8f       	std	Y+31, r24	; 0x1f
    3080:	2a c0       	rjmp	.+84     	; 0x30d6 <SPI_TxBuffer+0x214>
		__ticks = 1;
	else if (__tmp2 > 65535)
	{
		_delay_ms(__us / 1000.0);
	}
	else if (__tmp > 255)
    3082:	20 e0       	ldi	r18, 0x00	; 0
    3084:	30 e0       	ldi	r19, 0x00	; 0
    3086:	4f e7       	ldi	r20, 0x7F	; 127
    3088:	53 e4       	ldi	r21, 0x43	; 67
    308a:	6a 85       	ldd	r22, Y+10	; 0x0a
    308c:	7b 85       	ldd	r23, Y+11	; 0x0b
    308e:	8c 85       	ldd	r24, Y+12	; 0x0c
    3090:	9d 85       	ldd	r25, Y+13	; 0x0d
    3092:	0e 94 d5 2e 	call	0x5daa	; 0x5daa <__gesf2>
    3096:	18 16       	cp	r1, r24
    3098:	ac f4       	brge	.+42     	; 0x30c4 <SPI_TxBuffer+0x202>
	{
		uint16_t __ticks=(uint16_t)__tmp2;
    309a:	6e 85       	ldd	r22, Y+14	; 0x0e
    309c:	7f 85       	ldd	r23, Y+15	; 0x0f
    309e:	88 89       	ldd	r24, Y+16	; 0x10
    30a0:	99 89       	ldd	r25, Y+17	; 0x11
    30a2:	0e 94 f4 2d 	call	0x5be8	; 0x5be8 <__fixunssfsi>
    30a6:	dc 01       	movw	r26, r24
    30a8:	cb 01       	movw	r24, r22
    30aa:	9a a3       	std	Y+34, r25	; 0x22
    30ac:	89 a3       	std	Y+33, r24	; 0x21
    30ae:	89 a1       	ldd	r24, Y+33	; 0x21
    30b0:	9a a1       	ldd	r25, Y+34	; 0x22
    30b2:	9c a3       	std	Y+36, r25	; 0x24
    30b4:	8b a3       	std	Y+35, r24	; 0x23
    30b6:	8b a1       	ldd	r24, Y+35	; 0x23
    30b8:	9c a1       	ldd	r25, Y+36	; 0x24
    30ba:	01 97       	sbiw	r24, 0x01	; 1
    30bc:	f1 f7       	brne	.-4      	; 0x30ba <SPI_TxBuffer+0x1f8>
    30be:	9c a3       	std	Y+36, r25	; 0x24
    30c0:	8b a3       	std	Y+35, r24	; 0x23
    30c2:	0f c0       	rjmp	.+30     	; 0x30e2 <SPI_TxBuffer+0x220>
		_delay_loop_2(__ticks);
		return;
	}
	else
		__ticks = (uint8_t)__tmp;
    30c4:	6a 85       	ldd	r22, Y+10	; 0x0a
    30c6:	7b 85       	ldd	r23, Y+11	; 0x0b
    30c8:	8c 85       	ldd	r24, Y+12	; 0x0c
    30ca:	9d 85       	ldd	r25, Y+13	; 0x0d
    30cc:	0e 94 f4 2d 	call	0x5be8	; 0x5be8 <__fixunssfsi>
    30d0:	dc 01       	movw	r26, r24
    30d2:	cb 01       	movw	r24, r22
    30d4:	8a 8b       	std	Y+18, r24	; 0x12
    30d6:	8a 89       	ldd	r24, Y+18	; 0x12
    30d8:	8d a3       	std	Y+37, r24	; 0x25
    can be achieved.
*/
void
_delay_loop_1(uint8_t __count)
{
	__asm__ volatile (
    30da:	8d a1       	ldd	r24, Y+37	; 0x25
    30dc:	8a 95       	dec	r24
    30de:	f1 f7       	brne	.-4      	; 0x30dc <SPI_TxBuffer+0x21a>
    30e0:	8d a3       	std	Y+37, r24	; 0x25
		{
			_delay_us(1);
			timeout_counter++;
    30e2:	8a 81       	ldd	r24, Y+2	; 0x02
    30e4:	9b 81       	ldd	r25, Y+3	; 0x03
    30e6:	ac 81       	ldd	r26, Y+4	; 0x04
    30e8:	bd 81       	ldd	r27, Y+5	; 0x05
    30ea:	01 96       	adiw	r24, 0x01	; 1
    30ec:	a1 1d       	adc	r26, r1
    30ee:	b1 1d       	adc	r27, r1
    30f0:	8a 83       	std	Y+2, r24	; 0x02
    30f2:	9b 83       	std	Y+3, r25	; 0x03
    30f4:	ac 83       	std	Y+4, r26	; 0x04
    30f6:	bd 83       	std	Y+5, r27	; 0x05
			if (timeout_counter > 10000)
    30f8:	8a 81       	ldd	r24, Y+2	; 0x02
    30fa:	9b 81       	ldd	r25, Y+3	; 0x03
    30fc:	ac 81       	ldd	r26, Y+4	; 0x04
    30fe:	bd 81       	ldd	r27, Y+5	; 0x05
    3100:	81 31       	cpi	r24, 0x11	; 17
    3102:	97 42       	sbci	r25, 0x27	; 39
    3104:	a1 05       	cpc	r26, r1
    3106:	b1 05       	cpc	r27, r1
    3108:	40 f4       	brcc	.+16     	; 0x311a <SPI_TxBuffer+0x258>
		// Load data into the buffer
		SPDR = buffer[i];

		// Wait for transmission complete with timeout
		timeout_counter = 0;
		while (!(SPSR & (1<<SPIF)))
    310a:	8e e2       	ldi	r24, 0x2E	; 46
    310c:	90 e0       	ldi	r25, 0x00	; 0
    310e:	fc 01       	movw	r30, r24
    3110:	80 81       	ld	r24, Z
    3112:	88 23       	and	r24, r24
    3114:	0c f0       	brlt	.+2      	; 0x3118 <SPI_TxBuffer+0x256>
    3116:	f6 ce       	rjmp	.-532    	; 0x2f04 <SPI_TxBuffer+0x42>
    3118:	01 c0       	rjmp	.+2      	; 0x311c <SPI_TxBuffer+0x25a>
			timeout_counter++;
			if (timeout_counter > 10000)
			{
				// Handle timeout (e.g., set an error flag, break, etc.)
				// For now, we'll just break
				break;
    311a:	00 00       	nop
void SPI_TxBuffer(uint8_t *buffer, uint8_t length)
{
	uint8_t i;
	uint32_t timeout_counter;

	for (i = 0; i < length; i++)
    311c:	89 81       	ldd	r24, Y+1	; 0x01
    311e:	8f 5f       	subi	r24, 0xFF	; 255
    3120:	89 83       	std	Y+1, r24	; 0x01
    3122:	99 81       	ldd	r25, Y+1	; 0x01
    3124:	88 a5       	ldd	r24, Y+40	; 0x28
    3126:	98 17       	cp	r25, r24
    3128:	08 f4       	brcc	.+2      	; 0x312c <SPI_TxBuffer+0x26a>
    312a:	da ce       	rjmp	.-588    	; 0x2ee0 <SPI_TxBuffer+0x1e>
				// For now, we'll just break
				break;
			}
		}
	}
}
    312c:	00 00       	nop
    312e:	a8 96       	adiw	r28, 0x28	; 40
    3130:	0f b6       	in	r0, 0x3f	; 63
    3132:	f8 94       	cli
    3134:	de bf       	out	0x3e, r29	; 62
    3136:	0f be       	out	0x3f, r0	; 63
    3138:	cd bf       	out	0x3d, r28	; 61
    313a:	df 91       	pop	r29
    313c:	cf 91       	pop	r28
    313e:	08 95       	ret

00003140 <timer_start_timer0>:
	sei();
}
void	timer_stop_timer0(void)
{
	TCCR0 &= ~((1 << CS02) | (1 << CS01) | (1 << CS00));	
}
    3140:	cf 93       	push	r28
    3142:	df 93       	push	r29
    3144:	cd b7       	in	r28, 0x3d	; 61
    3146:	de b7       	in	r29, 0x3e	; 62
    3148:	83 e5       	ldi	r24, 0x53	; 83
    314a:	90 e0       	ldi	r25, 0x00	; 0
    314c:	23 e5       	ldi	r18, 0x53	; 83
    314e:	30 e0       	ldi	r19, 0x00	; 0
    3150:	f9 01       	movw	r30, r18
    3152:	20 81       	ld	r18, Z
    3154:	24 60       	ori	r18, 0x04	; 4
    3156:	fc 01       	movw	r30, r24
    3158:	20 83       	st	Z, r18
    315a:	87 e5       	ldi	r24, 0x57	; 87
    315c:	90 e0       	ldi	r25, 0x00	; 0
    315e:	27 e5       	ldi	r18, 0x57	; 87
    3160:	30 e0       	ldi	r19, 0x00	; 0
    3162:	f9 01       	movw	r30, r18
    3164:	20 81       	ld	r18, Z
    3166:	22 60       	ori	r18, 0x02	; 2
    3168:	fc 01       	movw	r30, r24
    316a:	20 83       	st	Z, r18
    316c:	78 94       	sei
    316e:	00 00       	nop
    3170:	df 91       	pop	r29
    3172:	cf 91       	pop	r28
    3174:	08 95       	ret

00003176 <timer_timer0_init>:
void timer_timer0_init(void)
{
    3176:	cf 93       	push	r28
    3178:	df 93       	push	r29
    317a:	cd b7       	in	r28, 0x3d	; 61
    317c:	de b7       	in	r29, 0x3e	; 62
	  // set up timer with prescaler = 64 and CTC mode
	  TCCR0 |= (1 << WGM01);
    317e:	83 e5       	ldi	r24, 0x53	; 83
    3180:	90 e0       	ldi	r25, 0x00	; 0
    3182:	23 e5       	ldi	r18, 0x53	; 83
    3184:	30 e0       	ldi	r19, 0x00	; 0
    3186:	f9 01       	movw	r30, r18
    3188:	20 81       	ld	r18, Z
    318a:	28 60       	ori	r18, 0x08	; 8
    318c:	fc 01       	movw	r30, r24
    318e:	20 83       	st	Z, r18

	  // initialize counter
	  TCNT0 = 0;
    3190:	82 e5       	ldi	r24, 0x52	; 82
    3192:	90 e0       	ldi	r25, 0x00	; 0
    3194:	fc 01       	movw	r30, r24
    3196:	10 82       	st	Z, r1

	  // initialize compare value (tick every 1ms)
	  OCR0 = 125 - 1;
    3198:	81 e5       	ldi	r24, 0x51	; 81
    319a:	90 e0       	ldi	r25, 0x00	; 0
    319c:	2c e7       	ldi	r18, 0x7C	; 124
    319e:	fc 01       	movw	r30, r24
    31a0:	20 83       	st	Z, r18
}
    31a2:	00 00       	nop
    31a4:	df 91       	pop	r29
    31a6:	cf 91       	pop	r28
    31a8:	08 95       	ret

000031aa <twi_stop>:
  bool flag = twi_timed_out_flag;
  if (clear_flag){
    twi_timed_out_flag = false;
  }
  return(flag);
}
    31aa:	cf 93       	push	r28
    31ac:	df 93       	push	r29
    31ae:	cd b7       	in	r28, 0x3d	; 61
    31b0:	de b7       	in	r29, 0x3e	; 62
    31b2:	84 e7       	ldi	r24, 0x74	; 116
    31b4:	90 e0       	ldi	r25, 0x00	; 0
    31b6:	24 e9       	ldi	r18, 0x94	; 148
    31b8:	fc 01       	movw	r30, r24
    31ba:	20 83       	st	Z, r18
    31bc:	00 00       	nop
    31be:	84 e7       	ldi	r24, 0x74	; 116
    31c0:	90 e0       	ldi	r25, 0x00	; 0
    31c2:	fc 01       	movw	r30, r24
    31c4:	80 81       	ld	r24, Z
    31c6:	88 2f       	mov	r24, r24
    31c8:	90 e0       	ldi	r25, 0x00	; 0
    31ca:	80 71       	andi	r24, 0x10	; 16
    31cc:	99 27       	eor	r25, r25
    31ce:	89 2b       	or	r24, r25
    31d0:	b1 f7       	brne	.-20     	; 0x31be <twi_stop+0x14>
    31d2:	00 00       	nop
    31d4:	df 91       	pop	r29
    31d6:	cf 91       	pop	r28
    31d8:	08 95       	ret

000031da <twi_reply>:
    31da:	cf 93       	push	r28
    31dc:	df 93       	push	r29
    31de:	1f 92       	push	r1
    31e0:	cd b7       	in	r28, 0x3d	; 61
    31e2:	de b7       	in	r29, 0x3e	; 62
    31e4:	89 83       	std	Y+1, r24	; 0x01
    31e6:	89 81       	ldd	r24, Y+1	; 0x01
    31e8:	88 23       	and	r24, r24
    31ea:	31 f0       	breq	.+12     	; 0x31f8 <twi_reply+0x1e>
    31ec:	84 e7       	ldi	r24, 0x74	; 116
    31ee:	90 e0       	ldi	r25, 0x00	; 0
    31f0:	25 ec       	ldi	r18, 0xC5	; 197
    31f2:	fc 01       	movw	r30, r24
    31f4:	20 83       	st	Z, r18
    31f6:	05 c0       	rjmp	.+10     	; 0x3202 <twi_reply+0x28>
    31f8:	84 e7       	ldi	r24, 0x74	; 116
    31fa:	90 e0       	ldi	r25, 0x00	; 0
    31fc:	25 e8       	ldi	r18, 0x85	; 133
    31fe:	fc 01       	movw	r30, r24
    3200:	20 83       	st	Z, r18
    3202:	00 00       	nop
    3204:	0f 90       	pop	r0
    3206:	df 91       	pop	r29
    3208:	cf 91       	pop	r28
    320a:	08 95       	ret

0000320c <twi_releaseBus>:
    320c:	cf 93       	push	r28
    320e:	df 93       	push	r29
    3210:	cd b7       	in	r28, 0x3d	; 61
    3212:	de b7       	in	r29, 0x3e	; 62
    3214:	84 e7       	ldi	r24, 0x74	; 116
    3216:	90 e0       	ldi	r25, 0x00	; 0
    3218:	25 ec       	ldi	r18, 0xC5	; 197
    321a:	fc 01       	movw	r30, r24
    321c:	20 83       	st	Z, r18
    321e:	10 92 c8 0b 	sts	0x0BC8, r1	; 0x800bc8 <twi_state>
    3222:	00 00       	nop
    3224:	df 91       	pop	r29
    3226:	cf 91       	pop	r28
    3228:	08 95       	ret

0000322a <__vector_33>:

ISR(TWI_vect)
{
    322a:	1f 92       	push	r1
    322c:	0f 92       	push	r0
    322e:	00 90 5f 00 	lds	r0, 0x005F	; 0x80005f <__TEXT_REGION_LENGTH__+0x7f005f>
    3232:	0f 92       	push	r0
    3234:	11 24       	eor	r1, r1
    3236:	2f 93       	push	r18
    3238:	3f 93       	push	r19
    323a:	4f 93       	push	r20
    323c:	5f 93       	push	r21
    323e:	6f 93       	push	r22
    3240:	7f 93       	push	r23
    3242:	8f 93       	push	r24
    3244:	9f 93       	push	r25
    3246:	af 93       	push	r26
    3248:	bf 93       	push	r27
    324a:	ef 93       	push	r30
    324c:	ff 93       	push	r31
    324e:	cf 93       	push	r28
    3250:	df 93       	push	r29
    3252:	cd b7       	in	r28, 0x3d	; 61
    3254:	de b7       	in	r29, 0x3e	; 62
  switch(TW_STATUS){
    3256:	81 e7       	ldi	r24, 0x71	; 113
    3258:	90 e0       	ldi	r25, 0x00	; 0
    325a:	fc 01       	movw	r30, r24
    325c:	80 81       	ld	r24, Z
    325e:	88 2f       	mov	r24, r24
    3260:	90 e0       	ldi	r25, 0x00	; 0
    3262:	88 7f       	andi	r24, 0xF8	; 248
    3264:	99 27       	eor	r25, r25
    3266:	09 2e       	mov	r0, r25
    3268:	00 0c       	add	r0, r0
    326a:	aa 0b       	sbc	r26, r26
    326c:	bb 0b       	sbc	r27, r27
    326e:	40 e0       	ldi	r20, 0x00	; 0
    3270:	50 e0       	ldi	r21, 0x00	; 0
    3272:	28 ef       	ldi	r18, 0xF8	; 248
    3274:	30 e0       	ldi	r19, 0x00	; 0
    3276:	84 1b       	sub	r24, r20
    3278:	95 0b       	sbc	r25, r21
    327a:	28 17       	cp	r18, r24
    327c:	39 07       	cpc	r19, r25
    327e:	08 f4       	brcc	.+2      	; 0x3282 <__vector_33+0x58>
    3280:	19 c1       	rjmp	.+562    	; 0x34b4 <__vector_33+0x28a>
    3282:	8a 5b       	subi	r24, 0xBA	; 186
    3284:	9f 4f       	sbci	r25, 0xFF	; 255
    3286:	fc 01       	movw	r30, r24
    3288:	0c 94 f6 32 	jmp	0x65ec	; 0x65ec <__tablejump2__>
    case TW_START:     // sent start condition
    case TW_REP_START: // sent repeated start condition
      // copy device address and r/w bit to output register and ack
	  //twi_slarw = TW_WRITE;
	  //twi_slarw |= SLV_ADDRESS << 1;
      TWDR = twi_slarw;
    328c:	83 e7       	ldi	r24, 0x73	; 115
    328e:	90 e0       	ldi	r25, 0x00	; 0
    3290:	20 91 c9 0b 	lds	r18, 0x0BC9	; 0x800bc9 <twi_slarw>
    3294:	fc 01       	movw	r30, r24
    3296:	20 83       	st	Z, r18
      TWCR=(1<<TWEN)|(0<<TWSTA)|(1<<TWINT)|(1<<TWIE);
    3298:	84 e7       	ldi	r24, 0x74	; 116
    329a:	90 e0       	ldi	r25, 0x00	; 0
    329c:	25 e8       	ldi	r18, 0x85	; 133
    329e:	fc 01       	movw	r30, r24
    32a0:	20 83       	st	Z, r18
	  //twi_reply(1);
      break;
    32a2:	08 c1       	rjmp	.+528    	; 0x34b4 <__vector_33+0x28a>
    // Master Transmitter
	//-------------------------------------------------------------------------------------------------------------------------------
    case TW_MT_SLA_ACK:  // slave receiver acked address
    case TW_MT_DATA_ACK: // slave receiver acked data
      // if there is data to send, send it, otherwise stop 
      if(twi_master_txBufferIndex < twi_master_txBufferLength){
    32a4:	90 91 d8 0b 	lds	r25, 0x0BD8	; 0x800bd8 <twi_master_txBufferIndex>
    32a8:	80 91 d9 0b 	lds	r24, 0x0BD9	; 0x800bd9 <twi_master_txBufferLength>
    32ac:	98 17       	cp	r25, r24
    32ae:	a0 f4       	brcc	.+40     	; 0x32d8 <__vector_33+0xae>
        // copy data to output register and ack
        TWDR = twi_master_txBuffer[twi_master_txBufferIndex++];
    32b0:	83 e7       	ldi	r24, 0x73	; 115
    32b2:	90 e0       	ldi	r25, 0x00	; 0
    32b4:	20 91 d8 0b 	lds	r18, 0x0BD8	; 0x800bd8 <twi_master_txBufferIndex>
    32b8:	31 e0       	ldi	r19, 0x01	; 1
    32ba:	32 0f       	add	r19, r18
    32bc:	30 93 d8 0b 	sts	0x0BD8, r19	; 0x800bd8 <twi_master_txBufferIndex>
    32c0:	22 2f       	mov	r18, r18
    32c2:	30 e0       	ldi	r19, 0x00	; 0
    32c4:	20 53       	subi	r18, 0x30	; 48
    32c6:	34 4f       	sbci	r19, 0xF4	; 244
    32c8:	f9 01       	movw	r30, r18
    32ca:	20 81       	ld	r18, Z
    32cc:	fc 01       	movw	r30, r24
    32ce:	20 83       	st	Z, r18
        twi_reply(1);
    32d0:	81 e0       	ldi	r24, 0x01	; 1
    32d2:	0e 94 ed 18 	call	0x31da	; 0x31da <twi_reply>
         // at the point where we would normally issue the start.
         TWCR = (1<<TWINT) | (1<<TWSTA)| (1<<TWEN) ;
         twi_state = TWI_READY;
        }
      }
      break;
    32d6:	ee c0       	rjmp	.+476    	; 0x34b4 <__vector_33+0x28a>
      if(twi_master_txBufferIndex < twi_master_txBufferLength){
        // copy data to output register and ack
        TWDR = twi_master_txBuffer[twi_master_txBufferIndex++];
        twi_reply(1);
      }else{
        if (twi_sendStop){
    32d8:	80 91 ca 0b 	lds	r24, 0x0BCA	; 0x800bca <twi_sendStop>
    32dc:	88 23       	and	r24, r24
    32de:	19 f0       	breq	.+6      	; 0x32e6 <__vector_33+0xbc>
          twi_stop();
    32e0:	0e 94 d5 18 	call	0x31aa	; 0x31aa <twi_stop>
         // at the point where we would normally issue the start.
         TWCR = (1<<TWINT) | (1<<TWSTA)| (1<<TWEN) ;
         twi_state = TWI_READY;
        }
      }
      break;
    32e4:	e7 c0       	rjmp	.+462    	; 0x34b4 <__vector_33+0x28a>
        twi_reply(1);
      }else{
        if (twi_sendStop){
          twi_stop();
       } else {
         twi_inRepStart = true;	// we're gonna send the START
    32e6:	81 e0       	ldi	r24, 0x01	; 1
    32e8:	80 93 cb 0b 	sts	0x0BCB, r24	; 0x800bcb <twi_inRepStart>
         // don't enable the interrupt. We'll generate the start, but we
         // avoid handling the interrupt until we're in the next transaction,
         // at the point where we would normally issue the start.
         TWCR = (1<<TWINT) | (1<<TWSTA)| (1<<TWEN) ;
    32ec:	84 e7       	ldi	r24, 0x74	; 116
    32ee:	90 e0       	ldi	r25, 0x00	; 0
    32f0:	24 ea       	ldi	r18, 0xA4	; 164
    32f2:	fc 01       	movw	r30, r24
    32f4:	20 83       	st	Z, r18
         twi_state = TWI_READY;
    32f6:	10 92 c8 0b 	sts	0x0BC8, r1	; 0x800bc8 <twi_state>
        }
      }
      break;
    32fa:	dc c0       	rjmp	.+440    	; 0x34b4 <__vector_33+0x28a>
    case TW_MT_SLA_NACK:  // address sent, nack received
      twi_error = TW_MT_SLA_NACK;
    32fc:	80 e2       	ldi	r24, 0x20	; 32
    32fe:	80 93 f7 0b 	sts	0x0BF7, r24	; 0x800bf7 <twi_error>
      twi_stop();
    3302:	0e 94 d5 18 	call	0x31aa	; 0x31aa <twi_stop>
      break;
    3306:	d6 c0       	rjmp	.+428    	; 0x34b4 <__vector_33+0x28a>
    case TW_MT_DATA_NACK: // data sent, nack received
      twi_error = TW_MT_DATA_NACK;
    3308:	80 e3       	ldi	r24, 0x30	; 48
    330a:	80 93 f7 0b 	sts	0x0BF7, r24	; 0x800bf7 <twi_error>
      twi_stop();
    330e:	0e 94 d5 18 	call	0x31aa	; 0x31aa <twi_stop>
      break;
    3312:	d0 c0       	rjmp	.+416    	; 0x34b4 <__vector_33+0x28a>
    case TW_MT_ARB_LOST: // lost bus arbitration
      twi_error = TW_MT_ARB_LOST;
    3314:	88 e3       	ldi	r24, 0x38	; 56
    3316:	80 93 f7 0b 	sts	0x0BF7, r24	; 0x800bf7 <twi_error>
      twi_releaseBus();
    331a:	0e 94 06 19 	call	0x320c	; 0x320c <twi_releaseBus>
      break;
    331e:	ca c0       	rjmp	.+404    	; 0x34b4 <__vector_33+0x28a>
	//-------------------------------------------------------------------------------------------------------------------------------
    // Master Receiver
	//-------------------------------------------------------------------------------------------------------------------------------
    case TW_MR_DATA_ACK: // data received, ack sent
      // put byte into buffer
      twi_master_rxBuffer[twi_master_rxBufferIndex++] = TWDR;
    3320:	80 91 e2 0b 	lds	r24, 0x0BE2	; 0x800be2 <twi_master_rxBufferIndex>
    3324:	91 e0       	ldi	r25, 0x01	; 1
    3326:	98 0f       	add	r25, r24
    3328:	90 93 e2 0b 	sts	0x0BE2, r25	; 0x800be2 <twi_master_rxBufferIndex>
    332c:	88 2f       	mov	r24, r24
    332e:	90 e0       	ldi	r25, 0x00	; 0
    3330:	23 e7       	ldi	r18, 0x73	; 115
    3332:	30 e0       	ldi	r19, 0x00	; 0
    3334:	f9 01       	movw	r30, r18
    3336:	20 81       	ld	r18, Z
    3338:	86 52       	subi	r24, 0x26	; 38
    333a:	94 4f       	sbci	r25, 0xF4	; 244
    333c:	fc 01       	movw	r30, r24
    333e:	20 83       	st	Z, r18
      //__attribute__ ((fallthrough));
    case TW_MR_SLA_ACK:  // address sent, ack received
      // ack if more bytes are expected, otherwise nack
      if(twi_master_rxBufferIndex < twi_master_rxBufferLength){
    3340:	90 91 e2 0b 	lds	r25, 0x0BE2	; 0x800be2 <twi_master_rxBufferIndex>
    3344:	80 91 e3 0b 	lds	r24, 0x0BE3	; 0x800be3 <twi_master_rxBufferLength>
    3348:	98 17       	cp	r25, r24
    334a:	20 f4       	brcc	.+8      	; 0x3354 <__vector_33+0x12a>
        twi_reply(1);
    334c:	81 e0       	ldi	r24, 0x01	; 1
    334e:	0e 94 ed 18 	call	0x31da	; 0x31da <twi_reply>
      }else{
        twi_reply(0);
      }
      break;
    3352:	b0 c0       	rjmp	.+352    	; 0x34b4 <__vector_33+0x28a>
    case TW_MR_SLA_ACK:  // address sent, ack received
      // ack if more bytes are expected, otherwise nack
      if(twi_master_rxBufferIndex < twi_master_rxBufferLength){
        twi_reply(1);
      }else{
        twi_reply(0);
    3354:	80 e0       	ldi	r24, 0x00	; 0
    3356:	0e 94 ed 18 	call	0x31da	; 0x31da <twi_reply>
      }
      break;
    335a:	ac c0       	rjmp	.+344    	; 0x34b4 <__vector_33+0x28a>
    case TW_MR_DATA_NACK: // data received, nack sent
      // put final byte into buffer
      twi_master_rxBuffer[twi_master_rxBufferIndex++] = TWDR;
    335c:	80 91 e2 0b 	lds	r24, 0x0BE2	; 0x800be2 <twi_master_rxBufferIndex>
    3360:	91 e0       	ldi	r25, 0x01	; 1
    3362:	98 0f       	add	r25, r24
    3364:	90 93 e2 0b 	sts	0x0BE2, r25	; 0x800be2 <twi_master_rxBufferIndex>
    3368:	88 2f       	mov	r24, r24
    336a:	90 e0       	ldi	r25, 0x00	; 0
    336c:	23 e7       	ldi	r18, 0x73	; 115
    336e:	30 e0       	ldi	r19, 0x00	; 0
    3370:	f9 01       	movw	r30, r18
    3372:	20 81       	ld	r18, Z
    3374:	86 52       	subi	r24, 0x26	; 38
    3376:	94 4f       	sbci	r25, 0xF4	; 244
    3378:	fc 01       	movw	r30, r24
    337a:	20 83       	st	Z, r18
      if (twi_sendStop){
    337c:	80 91 ca 0b 	lds	r24, 0x0BCA	; 0x800bca <twi_sendStop>
    3380:	88 23       	and	r24, r24
    3382:	19 f0       	breq	.+6      	; 0x338a <__vector_33+0x160>
        twi_stop();
    3384:	0e 94 d5 18 	call	0x31aa	; 0x31aa <twi_stop>
        // avoid handling the interrupt until we're in the next transaction,
        // at the point where we would normally issue the start.
        TWCR = (1<<TWINT) | (1<<TWSTA)| (1<<TWEN) ;
        twi_state = TWI_READY;
      }
      break;
    3388:	95 c0       	rjmp	.+298    	; 0x34b4 <__vector_33+0x28a>
      // put final byte into buffer
      twi_master_rxBuffer[twi_master_rxBufferIndex++] = TWDR;
      if (twi_sendStop){
        twi_stop();
      } else {
        twi_inRepStart = true;	// we're gonna send the START
    338a:	81 e0       	ldi	r24, 0x01	; 1
    338c:	80 93 cb 0b 	sts	0x0BCB, r24	; 0x800bcb <twi_inRepStart>
        // don't enable the interrupt. We'll generate the start, but we
        // avoid handling the interrupt until we're in the next transaction,
        // at the point where we would normally issue the start.
        TWCR = (1<<TWINT) | (1<<TWSTA)| (1<<TWEN) ;
    3390:	84 e7       	ldi	r24, 0x74	; 116
    3392:	90 e0       	ldi	r25, 0x00	; 0
    3394:	24 ea       	ldi	r18, 0xA4	; 164
    3396:	fc 01       	movw	r30, r24
    3398:	20 83       	st	Z, r18
        twi_state = TWI_READY;
    339a:	10 92 c8 0b 	sts	0x0BC8, r1	; 0x800bc8 <twi_state>
      }
      break;
    339e:	8a c0       	rjmp	.+276    	; 0x34b4 <__vector_33+0x28a>
    case TW_MR_SLA_NACK: // address sent, nack received
      twi_stop();
    33a0:	0e 94 d5 18 	call	0x31aa	; 0x31aa <twi_stop>
      break;
    33a4:	87 c0       	rjmp	.+270    	; 0x34b4 <__vector_33+0x28a>
    case TW_SR_SLA_ACK:   // addressed, returned ack
    case TW_SR_GCALL_ACK: // addressed generally, returned ack
    case TW_SR_ARB_LOST_SLA_ACK:   // lost arbitration, returned ack
    case TW_SR_ARB_LOST_GCALL_ACK: // lost arbitration, returned ack
      // enter slave receiver mode
      twi_state = TWI_SRX;
    33a6:	83 e0       	ldi	r24, 0x03	; 3
    33a8:	80 93 c8 0b 	sts	0x0BC8, r24	; 0x800bc8 <twi_state>
      // indicate that rx buffer can be overwritten and ack
      twi_slv_rxBufferIndex = 0;
    33ac:	10 92 f6 0b 	sts	0x0BF6, r1	; 0x800bf6 <twi_slv_rxBufferIndex>
      twi_reply(1);
    33b0:	81 e0       	ldi	r24, 0x01	; 1
    33b2:	0e 94 ed 18 	call	0x31da	; 0x31da <twi_reply>
      break;
    33b6:	7e c0       	rjmp	.+252    	; 0x34b4 <__vector_33+0x28a>
    case TW_SR_DATA_ACK:       // data received, returned ack
    case TW_SR_GCALL_DATA_ACK: // data received generally, returned ack
      // if there is still room in the rx buffer
      if(twi_slv_rxBufferIndex < TWI_BUFFER_LENGTH){
    33b8:	80 91 f6 0b 	lds	r24, 0x0BF6	; 0x800bf6 <twi_slv_rxBufferIndex>
    33bc:	88 30       	cpi	r24, 0x08	; 8
    33be:	a0 f4       	brcc	.+40     	; 0x33e8 <__vector_33+0x1be>
        // put byte in buffer and ack
        twi_slv_rxBuffer[twi_slv_rxBufferIndex++] = TWDR;
    33c0:	80 91 f6 0b 	lds	r24, 0x0BF6	; 0x800bf6 <twi_slv_rxBufferIndex>
    33c4:	91 e0       	ldi	r25, 0x01	; 1
    33c6:	98 0f       	add	r25, r24
    33c8:	90 93 f6 0b 	sts	0x0BF6, r25	; 0x800bf6 <twi_slv_rxBufferIndex>
    33cc:	88 2f       	mov	r24, r24
    33ce:	90 e0       	ldi	r25, 0x00	; 0
    33d0:	23 e7       	ldi	r18, 0x73	; 115
    33d2:	30 e0       	ldi	r19, 0x00	; 0
    33d4:	f9 01       	movw	r30, r18
    33d6:	20 81       	ld	r18, Z
    33d8:	82 51       	subi	r24, 0x12	; 18
    33da:	94 4f       	sbci	r25, 0xF4	; 244
    33dc:	fc 01       	movw	r30, r24
    33de:	20 83       	st	Z, r18
        twi_reply(1);
    33e0:	81 e0       	ldi	r24, 0x01	; 1
    33e2:	0e 94 ed 18 	call	0x31da	; 0x31da <twi_reply>
      }else{
        // otherwise nack
        twi_reply(0);
      }
      break;
    33e6:	66 c0       	rjmp	.+204    	; 0x34b4 <__vector_33+0x28a>
        // put byte in buffer and ack
        twi_slv_rxBuffer[twi_slv_rxBufferIndex++] = TWDR;
        twi_reply(1);
      }else{
        // otherwise nack
        twi_reply(0);
    33e8:	80 e0       	ldi	r24, 0x00	; 0
    33ea:	0e 94 ed 18 	call	0x31da	; 0x31da <twi_reply>
      }
      break;
    33ee:	62 c0       	rjmp	.+196    	; 0x34b4 <__vector_33+0x28a>
    case TW_SR_STOP: // stop or repeated start condition received
      // ack future responses and leave slave receiver state
      twi_releaseBus();
    33f0:	0e 94 06 19 	call	0x320c	; 0x320c <twi_releaseBus>
      // put a null char after data if there's room
      if(twi_slv_rxBufferIndex < TWI_BUFFER_LENGTH){
    33f4:	80 91 f6 0b 	lds	r24, 0x0BF6	; 0x800bf6 <twi_slv_rxBufferIndex>
    33f8:	88 30       	cpi	r24, 0x08	; 8
    33fa:	40 f4       	brcc	.+16     	; 0x340c <__vector_33+0x1e2>
        twi_slv_rxBuffer[twi_slv_rxBufferIndex] = '\0';
    33fc:	80 91 f6 0b 	lds	r24, 0x0BF6	; 0x800bf6 <twi_slv_rxBufferIndex>
    3400:	88 2f       	mov	r24, r24
    3402:	90 e0       	ldi	r25, 0x00	; 0
    3404:	82 51       	subi	r24, 0x12	; 18
    3406:	94 4f       	sbci	r25, 0xF4	; 244
    3408:	fc 01       	movw	r30, r24
    340a:	10 82       	st	Z, r1
      }
      // callback to user defined callback
      twi_onSlaveReceive(twi_slv_rxBuffer, twi_slv_rxBufferIndex);
    340c:	20 91 ce 0b 	lds	r18, 0x0BCE	; 0x800bce <twi_onSlaveReceive>
    3410:	30 91 cf 0b 	lds	r19, 0x0BCF	; 0x800bcf <twi_onSlaveReceive+0x1>
    3414:	80 91 f6 0b 	lds	r24, 0x0BF6	; 0x800bf6 <twi_slv_rxBufferIndex>
    3418:	88 2f       	mov	r24, r24
    341a:	90 e0       	ldi	r25, 0x00	; 0
    341c:	bc 01       	movw	r22, r24
    341e:	8e ee       	ldi	r24, 0xEE	; 238
    3420:	9b e0       	ldi	r25, 0x0B	; 11
    3422:	f9 01       	movw	r30, r18
    3424:	09 95       	icall
      // since we submit rx buffer to "wire" library, we can reset it
      twi_slv_rxBufferIndex = 0;
    3426:	10 92 f6 0b 	sts	0x0BF6, r1	; 0x800bf6 <twi_slv_rxBufferIndex>
      break;
    342a:	44 c0       	rjmp	.+136    	; 0x34b4 <__vector_33+0x28a>
    case TW_SR_DATA_NACK:       // data received, returned nack
    case TW_SR_GCALL_DATA_NACK: // data received generally, returned nack
      // nack back at master
      twi_reply(0);
    342c:	80 e0       	ldi	r24, 0x00	; 0
    342e:	0e 94 ed 18 	call	0x31da	; 0x31da <twi_reply>
      break;
    3432:	40 c0       	rjmp	.+128    	; 0x34b4 <__vector_33+0x28a>
    // Slave Transmitter
	//-------------------------------------------------------------------------------------------------------------------------------
    case TW_ST_SLA_ACK:          // addressed, returned ack
    case TW_ST_ARB_LOST_SLA_ACK: // arbitration lost, returned ack
      // enter slave transmitter mode
      twi_state = TWI_STX;
    3434:	84 e0       	ldi	r24, 0x04	; 4
    3436:	80 93 c8 0b 	sts	0x0BC8, r24	; 0x800bc8 <twi_state>
      // ready the tx buffer index for iteration
      twi_slv_txBufferIndex = 0;
    343a:	10 92 ec 0b 	sts	0x0BEC, r1	; 0x800bec <twi_slv_txBufferIndex>
      // set tx buffer length to be zero, to verify if user changes it
      twi_slv_txBufferLength = 0;
    343e:	10 92 ed 0b 	sts	0x0BED, r1	; 0x800bed <twi_slv_txBufferLength>
      // request for txBuffer to be filled and length to be set
      // note: user must call twi_transmit(bytes, length) to do this
      twi_onSlaveTransmit();
    3442:	80 91 cc 0b 	lds	r24, 0x0BCC	; 0x800bcc <twi_onSlaveTransmit>
    3446:	90 91 cd 0b 	lds	r25, 0x0BCD	; 0x800bcd <twi_onSlaveTransmit+0x1>
    344a:	fc 01       	movw	r30, r24
    344c:	09 95       	icall
      // if they didn't change buffer & length, initialize it
      if(0 == twi_slv_txBufferLength){
    344e:	80 91 ed 0b 	lds	r24, 0x0BED	; 0x800bed <twi_slv_txBufferLength>
    3452:	88 23       	and	r24, r24
    3454:	29 f4       	brne	.+10     	; 0x3460 <__vector_33+0x236>
        twi_slv_txBufferLength = 1;
    3456:	81 e0       	ldi	r24, 0x01	; 1
    3458:	80 93 ed 0b 	sts	0x0BED, r24	; 0x800bed <twi_slv_txBufferLength>
        twi_slv_txBuffer[0] = 0x00;
    345c:	10 92 e4 0b 	sts	0x0BE4, r1	; 0x800be4 <twi_slv_txBuffer>
      }
      //__attribute__ ((fallthrough));		  
      // transmit first byte from buffer, fall
    case TW_ST_DATA_ACK: // byte sent, ack returned
      // copy data to output register
      TWDR = twi_slv_txBuffer[twi_slv_txBufferIndex++];
    3460:	83 e7       	ldi	r24, 0x73	; 115
    3462:	90 e0       	ldi	r25, 0x00	; 0
    3464:	20 91 ec 0b 	lds	r18, 0x0BEC	; 0x800bec <twi_slv_txBufferIndex>
    3468:	31 e0       	ldi	r19, 0x01	; 1
    346a:	32 0f       	add	r19, r18
    346c:	30 93 ec 0b 	sts	0x0BEC, r19	; 0x800bec <twi_slv_txBufferIndex>
    3470:	22 2f       	mov	r18, r18
    3472:	30 e0       	ldi	r19, 0x00	; 0
    3474:	2c 51       	subi	r18, 0x1C	; 28
    3476:	34 4f       	sbci	r19, 0xF4	; 244
    3478:	f9 01       	movw	r30, r18
    347a:	20 81       	ld	r18, Z
    347c:	fc 01       	movw	r30, r24
    347e:	20 83       	st	Z, r18
      // if there is more to send, ack, otherwise nack
      if(twi_slv_txBufferIndex < twi_slv_txBufferLength){
    3480:	90 91 ec 0b 	lds	r25, 0x0BEC	; 0x800bec <twi_slv_txBufferIndex>
    3484:	80 91 ed 0b 	lds	r24, 0x0BED	; 0x800bed <twi_slv_txBufferLength>
    3488:	98 17       	cp	r25, r24
    348a:	20 f4       	brcc	.+8      	; 0x3494 <__vector_33+0x26a>
        twi_reply(1);
    348c:	81 e0       	ldi	r24, 0x01	; 1
    348e:	0e 94 ed 18 	call	0x31da	; 0x31da <twi_reply>
      }else{
        twi_reply(0);
      }
      break;
    3492:	10 c0       	rjmp	.+32     	; 0x34b4 <__vector_33+0x28a>
      TWDR = twi_slv_txBuffer[twi_slv_txBufferIndex++];
      // if there is more to send, ack, otherwise nack
      if(twi_slv_txBufferIndex < twi_slv_txBufferLength){
        twi_reply(1);
      }else{
        twi_reply(0);
    3494:	80 e0       	ldi	r24, 0x00	; 0
    3496:	0e 94 ed 18 	call	0x31da	; 0x31da <twi_reply>
      }
      break;
    349a:	0c c0       	rjmp	.+24     	; 0x34b4 <__vector_33+0x28a>
    case TW_ST_DATA_NACK: // received nack, we are done 
    case TW_ST_LAST_DATA: // received ack, but we are done already!
      // ack future responses
      twi_reply(1);
    349c:	81 e0       	ldi	r24, 0x01	; 1
    349e:	0e 94 ed 18 	call	0x31da	; 0x31da <twi_reply>
      // leave slave receiver state
      twi_state = TWI_READY;
    34a2:	10 92 c8 0b 	sts	0x0BC8, r1	; 0x800bc8 <twi_state>
      break;
    34a6:	06 c0       	rjmp	.+12     	; 0x34b4 <__vector_33+0x28a>

    // All
    case TW_NO_INFO:   // no state information
      break;
    case TW_BUS_ERROR: // bus error, illegal stop/start
      twi_error = TW_BUS_ERROR;
    34a8:	10 92 f7 0b 	sts	0x0BF7, r1	; 0x800bf7 <twi_error>
      twi_stop();
    34ac:	0e 94 d5 18 	call	0x31aa	; 0x31aa <twi_stop>
      break;
    34b0:	01 c0       	rjmp	.+2      	; 0x34b4 <__vector_33+0x28a>
      twi_state = TWI_READY;
      break;

    // All
    case TW_NO_INFO:   // no state information
      break;
    34b2:	00 00       	nop
    case TW_BUS_ERROR: // bus error, illegal stop/start
      twi_error = TW_BUS_ERROR;
      twi_stop();
      break;
  }
}
    34b4:	00 00       	nop
    34b6:	df 91       	pop	r29
    34b8:	cf 91       	pop	r28
    34ba:	ff 91       	pop	r31
    34bc:	ef 91       	pop	r30
    34be:	bf 91       	pop	r27
    34c0:	af 91       	pop	r26
    34c2:	9f 91       	pop	r25
    34c4:	8f 91       	pop	r24
    34c6:	7f 91       	pop	r23
    34c8:	6f 91       	pop	r22
    34ca:	5f 91       	pop	r21
    34cc:	4f 91       	pop	r20
    34ce:	3f 91       	pop	r19
    34d0:	2f 91       	pop	r18
    34d2:	0f 90       	pop	r0
    34d4:	00 92 5f 00 	sts	0x005F, r0	; 0x80005f <__TEXT_REGION_LENGTH__+0x7f005f>
    34d8:	0f 90       	pop	r0
    34da:	1f 90       	pop	r1
    34dc:	18 95       	reti

000034de <__iCliRetVal>:


volatile ringbuffer_t * uart_get_uart1_rx_buffer_address(void)
{
	return &(p_UART1_meta->rb_rx);
}
    34de:	cf 93       	push	r28
    34e0:	df 93       	push	r29
    34e2:	cd b7       	in	r28, 0x3d	; 61
    34e4:	de b7       	in	r29, 0x3e	; 62
    34e6:	f8 94       	cli
    34e8:	81 e0       	ldi	r24, 0x01	; 1
    34ea:	df 91       	pop	r29
    34ec:	cf 91       	pop	r28
    34ee:	08 95       	ret

000034f0 <__iRestore>:
    34f0:	cf 93       	push	r28
    34f2:	df 93       	push	r29
    34f4:	00 d0       	rcall	.+0      	; 0x34f6 <__iRestore+0x6>
    34f6:	cd b7       	in	r28, 0x3d	; 61
    34f8:	de b7       	in	r29, 0x3e	; 62
    34fa:	9a 83       	std	Y+2, r25	; 0x02
    34fc:	89 83       	std	Y+1, r24	; 0x01
    34fe:	8f e5       	ldi	r24, 0x5F	; 95
    3500:	90 e0       	ldi	r25, 0x00	; 0
    3502:	29 81       	ldd	r18, Y+1	; 0x01
    3504:	3a 81       	ldd	r19, Y+2	; 0x02
    3506:	f9 01       	movw	r30, r18
    3508:	20 81       	ld	r18, Z
    350a:	fc 01       	movw	r30, r24
    350c:	20 83       	st	Z, r18
    350e:	00 00       	nop
    3510:	0f 90       	pop	r0
    3512:	0f 90       	pop	r0
    3514:	df 91       	pop	r29
    3516:	cf 91       	pop	r28
    3518:	08 95       	ret

0000351a <rbuffer_init>:
    351a:	cf 93       	push	r28
    351c:	df 93       	push	r29
    351e:	00 d0       	rcall	.+0      	; 0x3520 <rbuffer_init+0x6>
    3520:	00 d0       	rcall	.+0      	; 0x3522 <rbuffer_init+0x8>
    3522:	cd b7       	in	r28, 0x3d	; 61
    3524:	de b7       	in	r29, 0x3e	; 62
    3526:	9c 83       	std	Y+4, r25	; 0x04
    3528:	8b 83       	std	Y+3, r24	; 0x03
    352a:	8f e5       	ldi	r24, 0x5F	; 95
    352c:	90 e0       	ldi	r25, 0x00	; 0
    352e:	fc 01       	movw	r30, r24
    3530:	80 81       	ld	r24, Z
    3532:	8a 83       	std	Y+2, r24	; 0x02
    3534:	0e 94 6f 1a 	call	0x34de	; 0x34de <__iCliRetVal>
    3538:	89 83       	std	Y+1, r24	; 0x01
    353a:	13 c0       	rjmp	.+38     	; 0x3562 <rbuffer_init+0x48>
    353c:	8b 81       	ldd	r24, Y+3	; 0x03
    353e:	9c 81       	ldd	r25, Y+4	; 0x04
    3540:	80 58       	subi	r24, 0x80	; 128
    3542:	9f 4f       	sbci	r25, 0xFF	; 255
    3544:	fc 01       	movw	r30, r24
    3546:	10 82       	st	Z, r1
    3548:	8b 81       	ldd	r24, Y+3	; 0x03
    354a:	9c 81       	ldd	r25, Y+4	; 0x04
    354c:	8f 57       	subi	r24, 0x7F	; 127
    354e:	9f 4f       	sbci	r25, 0xFF	; 255
    3550:	fc 01       	movw	r30, r24
    3552:	10 82       	st	Z, r1
    3554:	8b 81       	ldd	r24, Y+3	; 0x03
    3556:	9c 81       	ldd	r25, Y+4	; 0x04
    3558:	8e 57       	subi	r24, 0x7E	; 126
    355a:	9f 4f       	sbci	r25, 0xFF	; 255
    355c:	fc 01       	movw	r30, r24
    355e:	10 82       	st	Z, r1
    3560:	19 82       	std	Y+1, r1	; 0x01
    3562:	89 81       	ldd	r24, Y+1	; 0x01
    3564:	88 23       	and	r24, r24
    3566:	51 f7       	brne	.-44     	; 0x353c <rbuffer_init+0x22>
    3568:	ce 01       	movw	r24, r28
    356a:	02 96       	adiw	r24, 0x02	; 2
    356c:	0e 94 78 1a 	call	0x34f0	; 0x34f0 <__iRestore>
    3570:	00 00       	nop
    3572:	0f 90       	pop	r0
    3574:	0f 90       	pop	r0
    3576:	0f 90       	pop	r0
    3578:	0f 90       	pop	r0
    357a:	df 91       	pop	r29
    357c:	cf 91       	pop	r28
    357e:	08 95       	ret

00003580 <rbuffer_full>:
    3580:	cf 93       	push	r28
    3582:	df 93       	push	r29
    3584:	00 d0       	rcall	.+0      	; 0x3586 <rbuffer_full+0x6>
    3586:	cd b7       	in	r28, 0x3d	; 61
    3588:	de b7       	in	r29, 0x3e	; 62
    358a:	9a 83       	std	Y+2, r25	; 0x02
    358c:	89 83       	std	Y+1, r24	; 0x01
    358e:	89 81       	ldd	r24, Y+1	; 0x01
    3590:	9a 81       	ldd	r25, Y+2	; 0x02
    3592:	8e 57       	subi	r24, 0x7E	; 126
    3594:	9f 4f       	sbci	r25, 0xFF	; 255
    3596:	fc 01       	movw	r30, r24
    3598:	90 81       	ld	r25, Z
    359a:	81 e0       	ldi	r24, 0x01	; 1
    359c:	90 38       	cpi	r25, 0x80	; 128
    359e:	09 f0       	breq	.+2      	; 0x35a2 <rbuffer_full+0x22>
    35a0:	80 e0       	ldi	r24, 0x00	; 0
    35a2:	0f 90       	pop	r0
    35a4:	0f 90       	pop	r0
    35a6:	df 91       	pop	r29
    35a8:	cf 91       	pop	r28
    35aa:	08 95       	ret

000035ac <rbuffer_empty>:
    35ac:	cf 93       	push	r28
    35ae:	df 93       	push	r29
    35b0:	00 d0       	rcall	.+0      	; 0x35b2 <rbuffer_empty+0x6>
    35b2:	cd b7       	in	r28, 0x3d	; 61
    35b4:	de b7       	in	r29, 0x3e	; 62
    35b6:	9a 83       	std	Y+2, r25	; 0x02
    35b8:	89 83       	std	Y+1, r24	; 0x01
    35ba:	89 81       	ldd	r24, Y+1	; 0x01
    35bc:	9a 81       	ldd	r25, Y+2	; 0x02
    35be:	8e 57       	subi	r24, 0x7E	; 126
    35c0:	9f 4f       	sbci	r25, 0xFF	; 255
    35c2:	fc 01       	movw	r30, r24
    35c4:	90 81       	ld	r25, Z
    35c6:	81 e0       	ldi	r24, 0x01	; 1
    35c8:	99 23       	and	r25, r25
    35ca:	09 f0       	breq	.+2      	; 0x35ce <rbuffer_empty+0x22>
    35cc:	80 e0       	ldi	r24, 0x00	; 0
    35ce:	0f 90       	pop	r0
    35d0:	0f 90       	pop	r0
    35d2:	df 91       	pop	r29
    35d4:	cf 91       	pop	r28
    35d6:	08 95       	ret

000035d8 <rbuffer_insert>:
    35d8:	cf 93       	push	r28
    35da:	df 93       	push	r29
    35dc:	00 d0       	rcall	.+0      	; 0x35de <rbuffer_insert+0x6>
    35de:	00 d0       	rcall	.+0      	; 0x35e0 <rbuffer_insert+0x8>
    35e0:	1f 92       	push	r1
    35e2:	cd b7       	in	r28, 0x3d	; 61
    35e4:	de b7       	in	r29, 0x3e	; 62
    35e6:	8b 83       	std	Y+3, r24	; 0x03
    35e8:	7d 83       	std	Y+5, r23	; 0x05
    35ea:	6c 83       	std	Y+4, r22	; 0x04
    35ec:	2c 81       	ldd	r18, Y+4	; 0x04
    35ee:	3d 81       	ldd	r19, Y+5	; 0x05
    35f0:	8c 81       	ldd	r24, Y+4	; 0x04
    35f2:	9d 81       	ldd	r25, Y+5	; 0x05
    35f4:	80 58       	subi	r24, 0x80	; 128
    35f6:	9f 4f       	sbci	r25, 0xFF	; 255
    35f8:	fc 01       	movw	r30, r24
    35fa:	80 81       	ld	r24, Z
    35fc:	88 2f       	mov	r24, r24
    35fe:	90 e0       	ldi	r25, 0x00	; 0
    3600:	82 0f       	add	r24, r18
    3602:	93 1f       	adc	r25, r19
    3604:	2b 81       	ldd	r18, Y+3	; 0x03
    3606:	fc 01       	movw	r30, r24
    3608:	20 83       	st	Z, r18
    360a:	8f e5       	ldi	r24, 0x5F	; 95
    360c:	90 e0       	ldi	r25, 0x00	; 0
    360e:	fc 01       	movw	r30, r24
    3610:	80 81       	ld	r24, Z
    3612:	8a 83       	std	Y+2, r24	; 0x02
    3614:	0e 94 6f 1a 	call	0x34de	; 0x34de <__iCliRetVal>
    3618:	89 83       	std	Y+1, r24	; 0x01
    361a:	1e c0       	rjmp	.+60     	; 0x3658 <rbuffer_insert+0x80>
    361c:	8c 81       	ldd	r24, Y+4	; 0x04
    361e:	9d 81       	ldd	r25, Y+5	; 0x05
    3620:	80 58       	subi	r24, 0x80	; 128
    3622:	9f 4f       	sbci	r25, 0xFF	; 255
    3624:	fc 01       	movw	r30, r24
    3626:	80 81       	ld	r24, Z
    3628:	8f 5f       	subi	r24, 0xFF	; 255
    362a:	28 2f       	mov	r18, r24
    362c:	2f 77       	andi	r18, 0x7F	; 127
    362e:	8c 81       	ldd	r24, Y+4	; 0x04
    3630:	9d 81       	ldd	r25, Y+5	; 0x05
    3632:	80 58       	subi	r24, 0x80	; 128
    3634:	9f 4f       	sbci	r25, 0xFF	; 255
    3636:	fc 01       	movw	r30, r24
    3638:	20 83       	st	Z, r18
    363a:	8c 81       	ldd	r24, Y+4	; 0x04
    363c:	9d 81       	ldd	r25, Y+5	; 0x05
    363e:	8e 57       	subi	r24, 0x7E	; 126
    3640:	9f 4f       	sbci	r25, 0xFF	; 255
    3642:	fc 01       	movw	r30, r24
    3644:	80 81       	ld	r24, Z
    3646:	21 e0       	ldi	r18, 0x01	; 1
    3648:	28 0f       	add	r18, r24
    364a:	8c 81       	ldd	r24, Y+4	; 0x04
    364c:	9d 81       	ldd	r25, Y+5	; 0x05
    364e:	8e 57       	subi	r24, 0x7E	; 126
    3650:	9f 4f       	sbci	r25, 0xFF	; 255
    3652:	fc 01       	movw	r30, r24
    3654:	20 83       	st	Z, r18
    3656:	19 82       	std	Y+1, r1	; 0x01
    3658:	89 81       	ldd	r24, Y+1	; 0x01
    365a:	88 23       	and	r24, r24
    365c:	f9 f6       	brne	.-66     	; 0x361c <rbuffer_insert+0x44>
    365e:	ce 01       	movw	r24, r28
    3660:	02 96       	adiw	r24, 0x02	; 2
    3662:	0e 94 78 1a 	call	0x34f0	; 0x34f0 <__iRestore>
    3666:	00 00       	nop
    3668:	0f 90       	pop	r0
    366a:	0f 90       	pop	r0
    366c:	0f 90       	pop	r0
    366e:	0f 90       	pop	r0
    3670:	0f 90       	pop	r0
    3672:	df 91       	pop	r29
    3674:	cf 91       	pop	r28
    3676:	08 95       	ret

00003678 <rbuffer_remove>:
    3678:	cf 93       	push	r28
    367a:	df 93       	push	r29
    367c:	00 d0       	rcall	.+0      	; 0x367e <rbuffer_remove+0x6>
    367e:	00 d0       	rcall	.+0      	; 0x3680 <rbuffer_remove+0x8>
    3680:	1f 92       	push	r1
    3682:	cd b7       	in	r28, 0x3d	; 61
    3684:	de b7       	in	r29, 0x3e	; 62
    3686:	9d 83       	std	Y+5, r25	; 0x05
    3688:	8c 83       	std	Y+4, r24	; 0x04
    368a:	2c 81       	ldd	r18, Y+4	; 0x04
    368c:	3d 81       	ldd	r19, Y+5	; 0x05
    368e:	8c 81       	ldd	r24, Y+4	; 0x04
    3690:	9d 81       	ldd	r25, Y+5	; 0x05
    3692:	8f 57       	subi	r24, 0x7F	; 127
    3694:	9f 4f       	sbci	r25, 0xFF	; 255
    3696:	fc 01       	movw	r30, r24
    3698:	80 81       	ld	r24, Z
    369a:	88 2f       	mov	r24, r24
    369c:	90 e0       	ldi	r25, 0x00	; 0
    369e:	82 0f       	add	r24, r18
    36a0:	93 1f       	adc	r25, r19
    36a2:	fc 01       	movw	r30, r24
    36a4:	80 81       	ld	r24, Z
    36a6:	8a 83       	std	Y+2, r24	; 0x02
    36a8:	8f e5       	ldi	r24, 0x5F	; 95
    36aa:	90 e0       	ldi	r25, 0x00	; 0
    36ac:	fc 01       	movw	r30, r24
    36ae:	80 81       	ld	r24, Z
    36b0:	8b 83       	std	Y+3, r24	; 0x03
    36b2:	0e 94 6f 1a 	call	0x34de	; 0x34de <__iCliRetVal>
    36b6:	89 83       	std	Y+1, r24	; 0x01
    36b8:	1e c0       	rjmp	.+60     	; 0x36f6 <rbuffer_remove+0x7e>
    36ba:	8c 81       	ldd	r24, Y+4	; 0x04
    36bc:	9d 81       	ldd	r25, Y+5	; 0x05
    36be:	8f 57       	subi	r24, 0x7F	; 127
    36c0:	9f 4f       	sbci	r25, 0xFF	; 255
    36c2:	fc 01       	movw	r30, r24
    36c4:	80 81       	ld	r24, Z
    36c6:	8f 5f       	subi	r24, 0xFF	; 255
    36c8:	28 2f       	mov	r18, r24
    36ca:	2f 77       	andi	r18, 0x7F	; 127
    36cc:	8c 81       	ldd	r24, Y+4	; 0x04
    36ce:	9d 81       	ldd	r25, Y+5	; 0x05
    36d0:	8f 57       	subi	r24, 0x7F	; 127
    36d2:	9f 4f       	sbci	r25, 0xFF	; 255
    36d4:	fc 01       	movw	r30, r24
    36d6:	20 83       	st	Z, r18
    36d8:	8c 81       	ldd	r24, Y+4	; 0x04
    36da:	9d 81       	ldd	r25, Y+5	; 0x05
    36dc:	8e 57       	subi	r24, 0x7E	; 126
    36de:	9f 4f       	sbci	r25, 0xFF	; 255
    36e0:	fc 01       	movw	r30, r24
    36e2:	80 81       	ld	r24, Z
    36e4:	2f ef       	ldi	r18, 0xFF	; 255
    36e6:	28 0f       	add	r18, r24
    36e8:	8c 81       	ldd	r24, Y+4	; 0x04
    36ea:	9d 81       	ldd	r25, Y+5	; 0x05
    36ec:	8e 57       	subi	r24, 0x7E	; 126
    36ee:	9f 4f       	sbci	r25, 0xFF	; 255
    36f0:	fc 01       	movw	r30, r24
    36f2:	20 83       	st	Z, r18
    36f4:	19 82       	std	Y+1, r1	; 0x01
    36f6:	89 81       	ldd	r24, Y+1	; 0x01
    36f8:	88 23       	and	r24, r24
    36fa:	f9 f6       	brne	.-66     	; 0x36ba <rbuffer_remove+0x42>
    36fc:	ce 01       	movw	r24, r28
    36fe:	03 96       	adiw	r24, 0x03	; 3
    3700:	0e 94 78 1a 	call	0x34f0	; 0x34f0 <__iRestore>
    3704:	8a 81       	ldd	r24, Y+2	; 0x02
    3706:	0f 90       	pop	r0
    3708:	0f 90       	pop	r0
    370a:	0f 90       	pop	r0
    370c:	0f 90       	pop	r0
    370e:	0f 90       	pop	r0
    3710:	df 91       	pop	r29
    3712:	cf 91       	pop	r28
    3714:	08 95       	ret

00003716 <usart0_init>:
    3716:	cf 93       	push	r28
    3718:	df 93       	push	r29
    371a:	cd b7       	in	r28, 0x3d	; 61
    371c:	de b7       	in	r29, 0x3e	; 62
    371e:	80 91 e3 01 	lds	r24, 0x01E3	; 0x8001e3 <p_UART0_meta>
    3722:	90 91 e4 01 	lds	r25, 0x01E4	; 0x8001e4 <p_UART0_meta+0x1>
    3726:	8d 57       	subi	r24, 0x7D	; 125
    3728:	9f 4f       	sbci	r25, 0xFF	; 255
    372a:	0e 94 8d 1a 	call	0x351a	; 0x351a <rbuffer_init>
    372e:	80 91 e3 01 	lds	r24, 0x01E3	; 0x8001e3 <p_UART0_meta>
    3732:	90 91 e4 01 	lds	r25, 0x01E4	; 0x8001e4 <p_UART0_meta+0x1>
    3736:	0e 94 8d 1a 	call	0x351a	; 0x351a <rbuffer_init>
    373a:	80 e9       	ldi	r24, 0x90	; 144
    373c:	90 e0       	ldi	r25, 0x00	; 0
    373e:	fc 01       	movw	r30, r24
    3740:	10 82       	st	Z, r1
    3742:	89 e2       	ldi	r24, 0x29	; 41
    3744:	90 e0       	ldi	r25, 0x00	; 0
    3746:	27 e6       	ldi	r18, 0x67	; 103
    3748:	fc 01       	movw	r30, r24
    374a:	20 83       	st	Z, r18
    374c:	8a e2       	ldi	r24, 0x2A	; 42
    374e:	90 e0       	ldi	r25, 0x00	; 0
    3750:	2a e2       	ldi	r18, 0x2A	; 42
    3752:	30 e0       	ldi	r19, 0x00	; 0
    3754:	f9 01       	movw	r30, r18
    3756:	20 81       	ld	r18, Z
    3758:	28 69       	ori	r18, 0x98	; 152
    375a:	fc 01       	movw	r30, r24
    375c:	20 83       	st	Z, r18
    375e:	85 e9       	ldi	r24, 0x95	; 149
    3760:	90 e0       	ldi	r25, 0x00	; 0
    3762:	25 e9       	ldi	r18, 0x95	; 149
    3764:	30 e0       	ldi	r19, 0x00	; 0
    3766:	f9 01       	movw	r30, r18
    3768:	20 81       	ld	r18, Z
    376a:	26 60       	ori	r18, 0x06	; 6
    376c:	fc 01       	movw	r30, r24
    376e:	20 83       	st	Z, r18
    3770:	8b e2       	ldi	r24, 0x2B	; 43
    3772:	90 e0       	ldi	r25, 0x00	; 0
    3774:	2b e2       	ldi	r18, 0x2B	; 43
    3776:	30 e0       	ldi	r19, 0x00	; 0
    3778:	f9 01       	movw	r30, r18
    377a:	20 81       	ld	r18, Z
    377c:	22 60       	ori	r18, 0x02	; 2
    377e:	fc 01       	movw	r30, r24
    3780:	20 83       	st	Z, r18
    3782:	78 94       	sei
    3784:	00 00       	nop
    3786:	df 91       	pop	r29
    3788:	cf 91       	pop	r28
    378a:	08 95       	ret

0000378c <usart0_send_char>:
    378c:	cf 93       	push	r28
    378e:	df 93       	push	r29
    3790:	1f 92       	push	r1
    3792:	cd b7       	in	r28, 0x3d	; 61
    3794:	de b7       	in	r29, 0x3e	; 62
    3796:	89 83       	std	Y+1, r24	; 0x01
    3798:	00 00       	nop
    379a:	80 91 e3 01 	lds	r24, 0x01E3	; 0x8001e3 <p_UART0_meta>
    379e:	90 91 e4 01 	lds	r25, 0x01E4	; 0x8001e4 <p_UART0_meta+0x1>
    37a2:	8d 57       	subi	r24, 0x7D	; 125
    37a4:	9f 4f       	sbci	r25, 0xFF	; 255
    37a6:	0e 94 c0 1a 	call	0x3580	; 0x3580 <rbuffer_full>
    37aa:	88 23       	and	r24, r24
    37ac:	b1 f7       	brne	.-20     	; 0x379a <usart0_send_char+0xe>
    37ae:	80 91 e3 01 	lds	r24, 0x01E3	; 0x8001e3 <p_UART0_meta>
    37b2:	90 91 e4 01 	lds	r25, 0x01E4	; 0x8001e4 <p_UART0_meta+0x1>
    37b6:	8d 57       	subi	r24, 0x7D	; 125
    37b8:	9f 4f       	sbci	r25, 0xFF	; 255
    37ba:	bc 01       	movw	r22, r24
    37bc:	89 81       	ldd	r24, Y+1	; 0x01
    37be:	0e 94 ec 1a 	call	0x35d8	; 0x35d8 <rbuffer_insert>
    37c2:	8a e2       	ldi	r24, 0x2A	; 42
    37c4:	90 e0       	ldi	r25, 0x00	; 0
    37c6:	2a e2       	ldi	r18, 0x2A	; 42
    37c8:	30 e0       	ldi	r19, 0x00	; 0
    37ca:	f9 01       	movw	r30, r18
    37cc:	20 81       	ld	r18, Z
    37ce:	20 62       	ori	r18, 0x20	; 32
    37d0:	fc 01       	movw	r30, r24
    37d2:	20 83       	st	Z, r18
    37d4:	00 00       	nop
    37d6:	0f 90       	pop	r0
    37d8:	df 91       	pop	r29
    37da:	cf 91       	pop	r28
    37dc:	08 95       	ret

000037de <usart0_send_string>:
    37de:	cf 93       	push	r28
    37e0:	df 93       	push	r29
    37e2:	00 d0       	rcall	.+0      	; 0x37e4 <usart0_send_string+0x6>
    37e4:	cd b7       	in	r28, 0x3d	; 61
    37e6:	de b7       	in	r29, 0x3e	; 62
    37e8:	9a 83       	std	Y+2, r25	; 0x02
    37ea:	89 83       	std	Y+1, r24	; 0x01
    37ec:	0b c0       	rjmp	.+22     	; 0x3804 <usart0_send_string+0x26>
    37ee:	89 81       	ldd	r24, Y+1	; 0x01
    37f0:	9a 81       	ldd	r25, Y+2	; 0x02
    37f2:	9c 01       	movw	r18, r24
    37f4:	2f 5f       	subi	r18, 0xFF	; 255
    37f6:	3f 4f       	sbci	r19, 0xFF	; 255
    37f8:	3a 83       	std	Y+2, r19	; 0x02
    37fa:	29 83       	std	Y+1, r18	; 0x01
    37fc:	fc 01       	movw	r30, r24
    37fe:	80 81       	ld	r24, Z
    3800:	0e 94 c6 1b 	call	0x378c	; 0x378c <usart0_send_char>
    3804:	89 81       	ldd	r24, Y+1	; 0x01
    3806:	9a 81       	ldd	r25, Y+2	; 0x02
    3808:	fc 01       	movw	r30, r24
    380a:	80 81       	ld	r24, Z
    380c:	88 23       	and	r24, r24
    380e:	79 f7       	brne	.-34     	; 0x37ee <usart0_send_string+0x10>
    3810:	00 00       	nop
    3812:	0f 90       	pop	r0
    3814:	0f 90       	pop	r0
    3816:	df 91       	pop	r29
    3818:	cf 91       	pop	r28
    381a:	08 95       	ret

0000381c <usart0_send_array>:
    381c:	cf 93       	push	r28
    381e:	df 93       	push	r29
    3820:	00 d0       	rcall	.+0      	; 0x3822 <usart0_send_array+0x6>
    3822:	00 d0       	rcall	.+0      	; 0x3824 <usart0_send_array+0x8>
    3824:	cd b7       	in	r28, 0x3d	; 61
    3826:	de b7       	in	r29, 0x3e	; 62
    3828:	9b 83       	std	Y+3, r25	; 0x03
    382a:	8a 83       	std	Y+2, r24	; 0x02
    382c:	6c 83       	std	Y+4, r22	; 0x04
    382e:	19 82       	std	Y+1, r1	; 0x01
    3830:	0e c0       	rjmp	.+28     	; 0x384e <usart0_send_array+0x32>
    3832:	8a 81       	ldd	r24, Y+2	; 0x02
    3834:	9b 81       	ldd	r25, Y+3	; 0x03
    3836:	9c 01       	movw	r18, r24
    3838:	2f 5f       	subi	r18, 0xFF	; 255
    383a:	3f 4f       	sbci	r19, 0xFF	; 255
    383c:	3b 83       	std	Y+3, r19	; 0x03
    383e:	2a 83       	std	Y+2, r18	; 0x02
    3840:	fc 01       	movw	r30, r24
    3842:	80 81       	ld	r24, Z
    3844:	0e 94 c6 1b 	call	0x378c	; 0x378c <usart0_send_char>
    3848:	89 81       	ldd	r24, Y+1	; 0x01
    384a:	8f 5f       	subi	r24, 0xFF	; 255
    384c:	89 83       	std	Y+1, r24	; 0x01
    384e:	99 81       	ldd	r25, Y+1	; 0x01
    3850:	8c 81       	ldd	r24, Y+4	; 0x04
    3852:	98 17       	cp	r25, r24
    3854:	70 f3       	brcs	.-36     	; 0x3832 <usart0_send_array+0x16>
    3856:	00 00       	nop
    3858:	0f 90       	pop	r0
    385a:	0f 90       	pop	r0
    385c:	0f 90       	pop	r0
    385e:	0f 90       	pop	r0
    3860:	df 91       	pop	r29
    3862:	cf 91       	pop	r28
    3864:	08 95       	ret

00003866 <usart0_send_string_P>:
    3866:	cf 93       	push	r28
    3868:	df 93       	push	r29
    386a:	00 d0       	rcall	.+0      	; 0x386c <usart0_send_string_P+0x6>
    386c:	00 d0       	rcall	.+0      	; 0x386e <usart0_send_string_P+0x8>
    386e:	00 d0       	rcall	.+0      	; 0x3870 <usart0_send_string_P+0xa>
    3870:	cd b7       	in	r28, 0x3d	; 61
    3872:	de b7       	in	r29, 0x3e	; 62
    3874:	9e 83       	std	Y+6, r25	; 0x06
    3876:	8d 83       	std	Y+5, r24	; 0x05
    3878:	03 c0       	rjmp	.+6      	; 0x3880 <usart0_send_string_P+0x1a>
    387a:	8c 81       	ldd	r24, Y+4	; 0x04
    387c:	0e 94 c6 1b 	call	0x378c	; 0x378c <usart0_send_char>
    3880:	8d 81       	ldd	r24, Y+5	; 0x05
    3882:	9e 81       	ldd	r25, Y+6	; 0x06
    3884:	9c 01       	movw	r18, r24
    3886:	2f 5f       	subi	r18, 0xFF	; 255
    3888:	3f 4f       	sbci	r19, 0xFF	; 255
    388a:	3e 83       	std	Y+6, r19	; 0x06
    388c:	2d 83       	std	Y+5, r18	; 0x05
    388e:	9a 83       	std	Y+2, r25	; 0x02
    3890:	89 83       	std	Y+1, r24	; 0x01
    3892:	89 81       	ldd	r24, Y+1	; 0x01
    3894:	9a 81       	ldd	r25, Y+2	; 0x02
    3896:	fc 01       	movw	r30, r24
    3898:	84 91       	lpm	r24, Z
    389a:	8b 83       	std	Y+3, r24	; 0x03
    389c:	8b 81       	ldd	r24, Y+3	; 0x03
    389e:	8c 83       	std	Y+4, r24	; 0x04
    38a0:	8c 81       	ldd	r24, Y+4	; 0x04
    38a2:	88 23       	and	r24, r24
    38a4:	51 f7       	brne	.-44     	; 0x387a <usart0_send_string_P+0x14>
    38a6:	00 00       	nop
    38a8:	26 96       	adiw	r28, 0x06	; 6
    38aa:	0f b6       	in	r0, 0x3f	; 63
    38ac:	f8 94       	cli
    38ae:	de bf       	out	0x3e, r29	; 62
    38b0:	0f be       	out	0x3f, r0	; 63
    38b2:	cd bf       	out	0x3d, r28	; 61
    38b4:	df 91       	pop	r29
    38b6:	cf 91       	pop	r28
    38b8:	08 95       	ret

000038ba <uart_get_uart0_rx_buffer_address>:
    38ba:	cf 93       	push	r28
    38bc:	df 93       	push	r29
    38be:	cd b7       	in	r28, 0x3d	; 61
    38c0:	de b7       	in	r29, 0x3e	; 62
    38c2:	80 91 e3 01 	lds	r24, 0x01E3	; 0x8001e3 <p_UART0_meta>
    38c6:	90 91 e4 01 	lds	r25, 0x01E4	; 0x8001e4 <p_UART0_meta+0x1>
    38ca:	df 91       	pop	r29
    38cc:	cf 91       	pop	r28
    38ce:	08 95       	ret

000038d0 <__vector_18>:

// ---- ---- ---- ---- ---- ---- ---- ---- ---- ---- ---- ---- ---- ----
// ISR FUNCTIONS
#ifdef USART0_ENABLE

ISR(USART0_RX_vect) {
    38d0:	1f 92       	push	r1
    38d2:	0f 92       	push	r0
    38d4:	00 90 5f 00 	lds	r0, 0x005F	; 0x80005f <__TEXT_REGION_LENGTH__+0x7f005f>
    38d8:	0f 92       	push	r0
    38da:	11 24       	eor	r1, r1
    38dc:	2f 93       	push	r18
    38de:	3f 93       	push	r19
    38e0:	4f 93       	push	r20
    38e2:	5f 93       	push	r21
    38e4:	6f 93       	push	r22
    38e6:	7f 93       	push	r23
    38e8:	8f 93       	push	r24
    38ea:	9f 93       	push	r25
    38ec:	af 93       	push	r26
    38ee:	bf 93       	push	r27
    38f0:	ef 93       	push	r30
    38f2:	ff 93       	push	r31
    38f4:	cf 93       	push	r28
    38f6:	df 93       	push	r29
    38f8:	1f 92       	push	r1
    38fa:	cd b7       	in	r28, 0x3d	; 61
    38fc:	de b7       	in	r29, 0x3e	; 62
	
   char	data = UDR0;
    38fe:	8c e2       	ldi	r24, 0x2C	; 44
    3900:	90 e0       	ldi	r25, 0x00	; 0
    3902:	fc 01       	movw	r30, r24
    3904:	80 81       	ld	r24, Z
    3906:	89 83       	std	Y+1, r24	; 0x01

    if(!rbuffer_full(&p_UART0_meta->rb_rx)) {
    3908:	80 91 e3 01 	lds	r24, 0x01E3	; 0x8001e3 <p_UART0_meta>
    390c:	90 91 e4 01 	lds	r25, 0x01E4	; 0x8001e4 <p_UART0_meta+0x1>
    3910:	0e 94 c0 1a 	call	0x3580	; 0x3580 <rbuffer_full>
    3914:	98 2f       	mov	r25, r24
    3916:	81 e0       	ldi	r24, 0x01	; 1
    3918:	89 27       	eor	r24, r25
    391a:	88 23       	and	r24, r24
    391c:	d1 f0       	breq	.+52     	; 0x3952 <__vector_18+0x82>
	    rbuffer_insert(data, &p_UART0_meta->rb_rx);
    391e:	80 91 e3 01 	lds	r24, 0x01E3	; 0x8001e3 <p_UART0_meta>
    3922:	90 91 e4 01 	lds	r25, 0x01E4	; 0x8001e4 <p_UART0_meta+0x1>
    3926:	bc 01       	movw	r22, r24
    3928:	89 81       	ldd	r24, Y+1	; 0x01
    392a:	0e 94 ec 1a 	call	0x35d8	; 0x35d8 <rbuffer_insert>
	    p_UART0_meta->usart_error = UCSR0A & USART_RX_ERROR_MASK ;
    392e:	80 91 e3 01 	lds	r24, 0x01E3	; 0x8001e3 <p_UART0_meta>
    3932:	90 91 e4 01 	lds	r25, 0x01E4	; 0x8001e4 <p_UART0_meta+0x1>
    3936:	2b e2       	ldi	r18, 0x2B	; 43
    3938:	30 e0       	ldi	r19, 0x00	; 0
    393a:	f9 01       	movw	r30, r18
    393c:	20 81       	ld	r18, Z
    393e:	22 2f       	mov	r18, r18
    3940:	30 e0       	ldi	r19, 0x00	; 0
    3942:	2c 71       	andi	r18, 0x1C	; 28
    3944:	33 27       	eor	r19, r19
    3946:	8a 5f       	subi	r24, 0xFA	; 250
    3948:	9e 4f       	sbci	r25, 0xFE	; 254
    394a:	fc 01       	movw	r30, r24
    394c:	31 83       	std	Z+1, r19	; 0x01
    394e:	20 83       	st	Z, r18

    }
    else {
	    p_UART0_meta->usart_error = ((UCSR0A & USART_RX_ERROR_MASK) | USART_BUFFER_OVERFLOW>>8);
    }   
}
    3950:	12 c0       	rjmp	.+36     	; 0x3976 <__vector_18+0xa6>
	    rbuffer_insert(data, &p_UART0_meta->rb_rx);
	    p_UART0_meta->usart_error = UCSR0A & USART_RX_ERROR_MASK ;

    }
    else {
	    p_UART0_meta->usart_error = ((UCSR0A & USART_RX_ERROR_MASK) | USART_BUFFER_OVERFLOW>>8);
    3952:	80 91 e3 01 	lds	r24, 0x01E3	; 0x8001e3 <p_UART0_meta>
    3956:	90 91 e4 01 	lds	r25, 0x01E4	; 0x8001e4 <p_UART0_meta+0x1>
    395a:	2b e2       	ldi	r18, 0x2B	; 43
    395c:	30 e0       	ldi	r19, 0x00	; 0
    395e:	f9 01       	movw	r30, r18
    3960:	20 81       	ld	r18, Z
    3962:	22 2f       	mov	r18, r18
    3964:	30 e0       	ldi	r19, 0x00	; 0
    3966:	2c 71       	andi	r18, 0x1C	; 28
    3968:	33 27       	eor	r19, r19
    396a:	21 60       	ori	r18, 0x01	; 1
    396c:	8a 5f       	subi	r24, 0xFA	; 250
    396e:	9e 4f       	sbci	r25, 0xFE	; 254
    3970:	fc 01       	movw	r30, r24
    3972:	31 83       	std	Z+1, r19	; 0x01
    3974:	20 83       	st	Z, r18
    }   
}
    3976:	00 00       	nop
    3978:	0f 90       	pop	r0
    397a:	df 91       	pop	r29
    397c:	cf 91       	pop	r28
    397e:	ff 91       	pop	r31
    3980:	ef 91       	pop	r30
    3982:	bf 91       	pop	r27
    3984:	af 91       	pop	r26
    3986:	9f 91       	pop	r25
    3988:	8f 91       	pop	r24
    398a:	7f 91       	pop	r23
    398c:	6f 91       	pop	r22
    398e:	5f 91       	pop	r21
    3990:	4f 91       	pop	r20
    3992:	3f 91       	pop	r19
    3994:	2f 91       	pop	r18
    3996:	0f 90       	pop	r0
    3998:	00 92 5f 00 	sts	0x005F, r0	; 0x80005f <__TEXT_REGION_LENGTH__+0x7f005f>
    399c:	0f 90       	pop	r0
    399e:	1f 90       	pop	r1
    39a0:	18 95       	reti

000039a2 <__vector_19>:
ISR(USART0_UDRE_vect) {
    39a2:	1f 92       	push	r1
    39a4:	0f 92       	push	r0
    39a6:	00 90 5f 00 	lds	r0, 0x005F	; 0x80005f <__TEXT_REGION_LENGTH__+0x7f005f>
    39aa:	0f 92       	push	r0
    39ac:	11 24       	eor	r1, r1
    39ae:	0f 93       	push	r16
    39b0:	1f 93       	push	r17
    39b2:	2f 93       	push	r18
    39b4:	3f 93       	push	r19
    39b6:	4f 93       	push	r20
    39b8:	5f 93       	push	r21
    39ba:	6f 93       	push	r22
    39bc:	7f 93       	push	r23
    39be:	8f 93       	push	r24
    39c0:	9f 93       	push	r25
    39c2:	af 93       	push	r26
    39c4:	bf 93       	push	r27
    39c6:	ef 93       	push	r30
    39c8:	ff 93       	push	r31
    39ca:	cf 93       	push	r28
    39cc:	df 93       	push	r29
    39ce:	cd b7       	in	r28, 0x3d	; 61
    39d0:	de b7       	in	r29, 0x3e	; 62
    if(!rbuffer_empty(&p_UART0_meta->rb_tx)) {
    39d2:	80 91 e3 01 	lds	r24, 0x01E3	; 0x8001e3 <p_UART0_meta>
    39d6:	90 91 e4 01 	lds	r25, 0x01E4	; 0x8001e4 <p_UART0_meta+0x1>
    39da:	8d 57       	subi	r24, 0x7D	; 125
    39dc:	9f 4f       	sbci	r25, 0xFF	; 255
    39de:	0e 94 d6 1a 	call	0x35ac	; 0x35ac <rbuffer_empty>
    39e2:	98 2f       	mov	r25, r24
    39e4:	81 e0       	ldi	r24, 0x01	; 1
    39e6:	89 27       	eor	r24, r25
    39e8:	88 23       	and	r24, r24
    39ea:	69 f0       	breq	.+26     	; 0x3a06 <__vector_19+0x64>
	    UDR0 = rbuffer_remove(&p_UART0_meta->rb_tx);
    39ec:	0c e2       	ldi	r16, 0x2C	; 44
    39ee:	10 e0       	ldi	r17, 0x00	; 0
    39f0:	80 91 e3 01 	lds	r24, 0x01E3	; 0x8001e3 <p_UART0_meta>
    39f4:	90 91 e4 01 	lds	r25, 0x01E4	; 0x8001e4 <p_UART0_meta+0x1>
    39f8:	8d 57       	subi	r24, 0x7D	; 125
    39fa:	9f 4f       	sbci	r25, 0xFF	; 255
    39fc:	0e 94 3c 1b 	call	0x3678	; 0x3678 <rbuffer_remove>
    3a00:	f8 01       	movw	r30, r16
    3a02:	80 83       	st	Z, r24
    }
    else {
	    UCSR0B &= ~(1 << UDRE);                   // Enable Tx buffer empty interrupt 
    }
}
    3a04:	09 c0       	rjmp	.+18     	; 0x3a18 <__vector_19+0x76>
ISR(USART0_UDRE_vect) {
    if(!rbuffer_empty(&p_UART0_meta->rb_tx)) {
	    UDR0 = rbuffer_remove(&p_UART0_meta->rb_tx);
    }
    else {
	    UCSR0B &= ~(1 << UDRE);                   // Enable Tx buffer empty interrupt 
    3a06:	8a e2       	ldi	r24, 0x2A	; 42
    3a08:	90 e0       	ldi	r25, 0x00	; 0
    3a0a:	2a e2       	ldi	r18, 0x2A	; 42
    3a0c:	30 e0       	ldi	r19, 0x00	; 0
    3a0e:	f9 01       	movw	r30, r18
    3a10:	20 81       	ld	r18, Z
    3a12:	2f 7d       	andi	r18, 0xDF	; 223
    3a14:	fc 01       	movw	r30, r24
    3a16:	20 83       	st	Z, r18
    }
}
    3a18:	00 00       	nop
    3a1a:	df 91       	pop	r29
    3a1c:	cf 91       	pop	r28
    3a1e:	ff 91       	pop	r31
    3a20:	ef 91       	pop	r30
    3a22:	bf 91       	pop	r27
    3a24:	af 91       	pop	r26
    3a26:	9f 91       	pop	r25
    3a28:	8f 91       	pop	r24
    3a2a:	7f 91       	pop	r23
    3a2c:	6f 91       	pop	r22
    3a2e:	5f 91       	pop	r21
    3a30:	4f 91       	pop	r20
    3a32:	3f 91       	pop	r19
    3a34:	2f 91       	pop	r18
    3a36:	1f 91       	pop	r17
    3a38:	0f 91       	pop	r16
    3a3a:	0f 90       	pop	r0
    3a3c:	00 92 5f 00 	sts	0x005F, r0	; 0x80005f <__TEXT_REGION_LENGTH__+0x7f005f>
    3a40:	0f 90       	pop	r0
    3a42:	1f 90       	pop	r1
    3a44:	18 95       	reti

00003a46 <__vector_30>:
#endif

#ifdef USART1_ENABLE
ISR(USART1_RX_vect) {
    3a46:	1f 92       	push	r1
    3a48:	0f 92       	push	r0
    3a4a:	00 90 5f 00 	lds	r0, 0x005F	; 0x80005f <__TEXT_REGION_LENGTH__+0x7f005f>
    3a4e:	0f 92       	push	r0
    3a50:	11 24       	eor	r1, r1
    3a52:	2f 93       	push	r18
    3a54:	3f 93       	push	r19
    3a56:	4f 93       	push	r20
    3a58:	5f 93       	push	r21
    3a5a:	6f 93       	push	r22
    3a5c:	7f 93       	push	r23
    3a5e:	8f 93       	push	r24
    3a60:	9f 93       	push	r25
    3a62:	af 93       	push	r26
    3a64:	bf 93       	push	r27
    3a66:	ef 93       	push	r30
    3a68:	ff 93       	push	r31
    3a6a:	cf 93       	push	r28
    3a6c:	df 93       	push	r29
    3a6e:	1f 92       	push	r1
    3a70:	cd b7       	in	r28, 0x3d	; 61
    3a72:	de b7       	in	r29, 0x3e	; 62
	
   char	data = UDR1;
    3a74:	8c e9       	ldi	r24, 0x9C	; 156
    3a76:	90 e0       	ldi	r25, 0x00	; 0
    3a78:	fc 01       	movw	r30, r24
    3a7a:	80 81       	ld	r24, Z
    3a7c:	89 83       	std	Y+1, r24	; 0x01
    if(!rbuffer_full(&p_UART1_meta->rb_rx)) {
    3a7e:	80 91 e5 01 	lds	r24, 0x01E5	; 0x8001e5 <p_UART1_meta>
    3a82:	90 91 e6 01 	lds	r25, 0x01E6	; 0x8001e6 <p_UART1_meta+0x1>
    3a86:	0e 94 c0 1a 	call	0x3580	; 0x3580 <rbuffer_full>
    3a8a:	98 2f       	mov	r25, r24
    3a8c:	81 e0       	ldi	r24, 0x01	; 1
    3a8e:	89 27       	eor	r24, r25
    3a90:	88 23       	and	r24, r24
    3a92:	d1 f0       	breq	.+52     	; 0x3ac8 <__vector_30+0x82>
	    rbuffer_insert(data, &p_UART1_meta->rb_rx);
    3a94:	80 91 e5 01 	lds	r24, 0x01E5	; 0x8001e5 <p_UART1_meta>
    3a98:	90 91 e6 01 	lds	r25, 0x01E6	; 0x8001e6 <p_UART1_meta+0x1>
    3a9c:	bc 01       	movw	r22, r24
    3a9e:	89 81       	ldd	r24, Y+1	; 0x01
    3aa0:	0e 94 ec 1a 	call	0x35d8	; 0x35d8 <rbuffer_insert>
	    p_UART1_meta->usart_error = UCSR1A & USART_RX_ERROR_MASK ;
    3aa4:	80 91 e5 01 	lds	r24, 0x01E5	; 0x8001e5 <p_UART1_meta>
    3aa8:	90 91 e6 01 	lds	r25, 0x01E6	; 0x8001e6 <p_UART1_meta+0x1>
    3aac:	2b e9       	ldi	r18, 0x9B	; 155
    3aae:	30 e0       	ldi	r19, 0x00	; 0
    3ab0:	f9 01       	movw	r30, r18
    3ab2:	20 81       	ld	r18, Z
    3ab4:	22 2f       	mov	r18, r18
    3ab6:	30 e0       	ldi	r19, 0x00	; 0
    3ab8:	2c 71       	andi	r18, 0x1C	; 28
    3aba:	33 27       	eor	r19, r19
    3abc:	8a 5f       	subi	r24, 0xFA	; 250
    3abe:	9e 4f       	sbci	r25, 0xFE	; 254
    3ac0:	fc 01       	movw	r30, r24
    3ac2:	31 83       	std	Z+1, r19	; 0x01
    3ac4:	20 83       	st	Z, r18

    }
    else {
	    p_UART1_meta->usart_error = ((UCSR1A & USART_RX_ERROR_MASK) | USART_BUFFER_OVERFLOW);
    }   
}
    3ac6:	12 c0       	rjmp	.+36     	; 0x3aec <__vector_30+0xa6>
	    rbuffer_insert(data, &p_UART1_meta->rb_rx);
	    p_UART1_meta->usart_error = UCSR1A & USART_RX_ERROR_MASK ;

    }
    else {
	    p_UART1_meta->usart_error = ((UCSR1A & USART_RX_ERROR_MASK) | USART_BUFFER_OVERFLOW);
    3ac8:	80 91 e5 01 	lds	r24, 0x01E5	; 0x8001e5 <p_UART1_meta>
    3acc:	90 91 e6 01 	lds	r25, 0x01E6	; 0x8001e6 <p_UART1_meta+0x1>
    3ad0:	2b e9       	ldi	r18, 0x9B	; 155
    3ad2:	30 e0       	ldi	r19, 0x00	; 0
    3ad4:	f9 01       	movw	r30, r18
    3ad6:	20 81       	ld	r18, Z
    3ad8:	22 2f       	mov	r18, r18
    3ada:	30 e0       	ldi	r19, 0x00	; 0
    3adc:	2c 71       	andi	r18, 0x1C	; 28
    3ade:	33 27       	eor	r19, r19
    3ae0:	31 60       	ori	r19, 0x01	; 1
    3ae2:	8a 5f       	subi	r24, 0xFA	; 250
    3ae4:	9e 4f       	sbci	r25, 0xFE	; 254
    3ae6:	fc 01       	movw	r30, r24
    3ae8:	31 83       	std	Z+1, r19	; 0x01
    3aea:	20 83       	st	Z, r18
    }   
}
    3aec:	00 00       	nop
    3aee:	0f 90       	pop	r0
    3af0:	df 91       	pop	r29
    3af2:	cf 91       	pop	r28
    3af4:	ff 91       	pop	r31
    3af6:	ef 91       	pop	r30
    3af8:	bf 91       	pop	r27
    3afa:	af 91       	pop	r26
    3afc:	9f 91       	pop	r25
    3afe:	8f 91       	pop	r24
    3b00:	7f 91       	pop	r23
    3b02:	6f 91       	pop	r22
    3b04:	5f 91       	pop	r21
    3b06:	4f 91       	pop	r20
    3b08:	3f 91       	pop	r19
    3b0a:	2f 91       	pop	r18
    3b0c:	0f 90       	pop	r0
    3b0e:	00 92 5f 00 	sts	0x005F, r0	; 0x80005f <__TEXT_REGION_LENGTH__+0x7f005f>
    3b12:	0f 90       	pop	r0
    3b14:	1f 90       	pop	r1
    3b16:	18 95       	reti

00003b18 <__vector_31>:
ISR(USART1_UDRE_vect) {
    3b18:	1f 92       	push	r1
    3b1a:	0f 92       	push	r0
    3b1c:	00 90 5f 00 	lds	r0, 0x005F	; 0x80005f <__TEXT_REGION_LENGTH__+0x7f005f>
    3b20:	0f 92       	push	r0
    3b22:	11 24       	eor	r1, r1
    3b24:	0f 93       	push	r16
    3b26:	1f 93       	push	r17
    3b28:	2f 93       	push	r18
    3b2a:	3f 93       	push	r19
    3b2c:	4f 93       	push	r20
    3b2e:	5f 93       	push	r21
    3b30:	6f 93       	push	r22
    3b32:	7f 93       	push	r23
    3b34:	8f 93       	push	r24
    3b36:	9f 93       	push	r25
    3b38:	af 93       	push	r26
    3b3a:	bf 93       	push	r27
    3b3c:	ef 93       	push	r30
    3b3e:	ff 93       	push	r31
    3b40:	cf 93       	push	r28
    3b42:	df 93       	push	r29
    3b44:	cd b7       	in	r28, 0x3d	; 61
    3b46:	de b7       	in	r29, 0x3e	; 62
    if(!rbuffer_empty(&p_UART1_meta->rb_tx)) {
    3b48:	80 91 e5 01 	lds	r24, 0x01E5	; 0x8001e5 <p_UART1_meta>
    3b4c:	90 91 e6 01 	lds	r25, 0x01E6	; 0x8001e6 <p_UART1_meta+0x1>
    3b50:	8d 57       	subi	r24, 0x7D	; 125
    3b52:	9f 4f       	sbci	r25, 0xFF	; 255
    3b54:	0e 94 d6 1a 	call	0x35ac	; 0x35ac <rbuffer_empty>
    3b58:	98 2f       	mov	r25, r24
    3b5a:	81 e0       	ldi	r24, 0x01	; 1
    3b5c:	89 27       	eor	r24, r25
    3b5e:	88 23       	and	r24, r24
    3b60:	69 f0       	breq	.+26     	; 0x3b7c <__vector_31+0x64>
	    UDR1 = rbuffer_remove(&p_UART1_meta->rb_tx);
    3b62:	0c e9       	ldi	r16, 0x9C	; 156
    3b64:	10 e0       	ldi	r17, 0x00	; 0
    3b66:	80 91 e5 01 	lds	r24, 0x01E5	; 0x8001e5 <p_UART1_meta>
    3b6a:	90 91 e6 01 	lds	r25, 0x01E6	; 0x8001e6 <p_UART1_meta+0x1>
    3b6e:	8d 57       	subi	r24, 0x7D	; 125
    3b70:	9f 4f       	sbci	r25, 0xFF	; 255
    3b72:	0e 94 3c 1b 	call	0x3678	; 0x3678 <rbuffer_remove>
    3b76:	f8 01       	movw	r30, r16
    3b78:	80 83       	st	Z, r24
		
    }
    else {
	    UCSR1B &= ~(1 << UDRE);                   // Enable Tx buffer empty interrupt 
    }
}
    3b7a:	09 c0       	rjmp	.+18     	; 0x3b8e <__vector_31+0x76>
    if(!rbuffer_empty(&p_UART1_meta->rb_tx)) {
	    UDR1 = rbuffer_remove(&p_UART1_meta->rb_tx);
		
    }
    else {
	    UCSR1B &= ~(1 << UDRE);                   // Enable Tx buffer empty interrupt 
    3b7c:	8a e9       	ldi	r24, 0x9A	; 154
    3b7e:	90 e0       	ldi	r25, 0x00	; 0
    3b80:	2a e9       	ldi	r18, 0x9A	; 154
    3b82:	30 e0       	ldi	r19, 0x00	; 0
    3b84:	f9 01       	movw	r30, r18
    3b86:	20 81       	ld	r18, Z
    3b88:	2f 7d       	andi	r18, 0xDF	; 223
    3b8a:	fc 01       	movw	r30, r24
    3b8c:	20 83       	st	Z, r18
    }
}
    3b8e:	00 00       	nop
    3b90:	df 91       	pop	r29
    3b92:	cf 91       	pop	r28
    3b94:	ff 91       	pop	r31
    3b96:	ef 91       	pop	r30
    3b98:	bf 91       	pop	r27
    3b9a:	af 91       	pop	r26
    3b9c:	9f 91       	pop	r25
    3b9e:	8f 91       	pop	r24
    3ba0:	7f 91       	pop	r23
    3ba2:	6f 91       	pop	r22
    3ba4:	5f 91       	pop	r21
    3ba6:	4f 91       	pop	r20
    3ba8:	3f 91       	pop	r19
    3baa:	2f 91       	pop	r18
    3bac:	1f 91       	pop	r17
    3bae:	0f 91       	pop	r16
    3bb0:	0f 90       	pop	r0
    3bb2:	00 92 5f 00 	sts	0x005F, r0	; 0x80005f <__TEXT_REGION_LENGTH__+0x7f005f>
    3bb6:	0f 90       	pop	r0
    3bb8:	1f 90       	pop	r1
    3bba:	18 95       	reti

00003bbc <UARTvprintf>:
//! \return None.
//
//*****************************************************************************
void
UARTvprintf(const char *pcString, va_list vaArgP)
{
    3bbc:	cf 92       	push	r12
    3bbe:	df 92       	push	r13
    3bc0:	ef 92       	push	r14
    3bc2:	ff 92       	push	r15
    3bc4:	0f 93       	push	r16
    3bc6:	1f 93       	push	r17
    3bc8:	cf 93       	push	r28
    3bca:	df 93       	push	r29
    3bcc:	cd b7       	in	r28, 0x3d	; 61
    3bce:	de b7       	in	r29, 0x3e	; 62
    3bd0:	af 97       	sbiw	r28, 0x2f	; 47
    3bd2:	0f b6       	in	r0, 0x3f	; 63
    3bd4:	f8 94       	cli
    3bd6:	de bf       	out	0x3e, r29	; 62
    3bd8:	0f be       	out	0x3f, r0	; 63
    3bda:	cd bf       	out	0x3d, r28	; 61
    3bdc:	9d a7       	std	Y+45, r25	; 0x2d
    3bde:	8c a7       	std	Y+44, r24	; 0x2c
    3be0:	7f a7       	std	Y+47, r23	; 0x2f
    3be2:	6e a7       	std	Y+46, r22	; 0x2e
    char *pcStr, pcBuf[16], cFill;

    //
    // Loop while there are more characters in the string.
    //
    while(*pcString)
    3be4:	22 c3       	rjmp	.+1604   	; 0x422a <UARTvprintf+0x66e>
    {
        //
        // Find the first non-% character, or the end of the string.
        //
        for(ui32Idx = 0;
    3be6:	1c 82       	std	Y+4, r1	; 0x04
    3be8:	1d 82       	std	Y+5, r1	; 0x05
    3bea:	1e 82       	std	Y+6, r1	; 0x06
    3bec:	1f 82       	std	Y+7, r1	; 0x07
    3bee:	0b c0       	rjmp	.+22     	; 0x3c06 <UARTvprintf+0x4a>
            (pcString[ui32Idx] != '%') && (pcString[ui32Idx] != '\0');
            ui32Idx++)
    3bf0:	8c 81       	ldd	r24, Y+4	; 0x04
    3bf2:	9d 81       	ldd	r25, Y+5	; 0x05
    3bf4:	ae 81       	ldd	r26, Y+6	; 0x06
    3bf6:	bf 81       	ldd	r27, Y+7	; 0x07
    3bf8:	01 96       	adiw	r24, 0x01	; 1
    3bfa:	a1 1d       	adc	r26, r1
    3bfc:	b1 1d       	adc	r27, r1
    3bfe:	8c 83       	std	Y+4, r24	; 0x04
    3c00:	9d 83       	std	Y+5, r25	; 0x05
    3c02:	ae 83       	std	Y+6, r26	; 0x06
    3c04:	bf 83       	std	Y+7, r27	; 0x07
    {
        //
        // Find the first non-% character, or the end of the string.
        //
        for(ui32Idx = 0;
            (pcString[ui32Idx] != '%') && (pcString[ui32Idx] != '\0');
    3c06:	8c 81       	ldd	r24, Y+4	; 0x04
    3c08:	9d 81       	ldd	r25, Y+5	; 0x05
    3c0a:	ae 81       	ldd	r26, Y+6	; 0x06
    3c0c:	bf 81       	ldd	r27, Y+7	; 0x07
    3c0e:	9c 01       	movw	r18, r24
    3c10:	8c a5       	ldd	r24, Y+44	; 0x2c
    3c12:	9d a5       	ldd	r25, Y+45	; 0x2d
    3c14:	82 0f       	add	r24, r18
    3c16:	93 1f       	adc	r25, r19
    3c18:	fc 01       	movw	r30, r24
    3c1a:	80 81       	ld	r24, Z
    while(*pcString)
    {
        //
        // Find the first non-% character, or the end of the string.
        //
        for(ui32Idx = 0;
    3c1c:	85 32       	cpi	r24, 0x25	; 37
    3c1e:	69 f0       	breq	.+26     	; 0x3c3a <UARTvprintf+0x7e>
            (pcString[ui32Idx] != '%') && (pcString[ui32Idx] != '\0');
    3c20:	8c 81       	ldd	r24, Y+4	; 0x04
    3c22:	9d 81       	ldd	r25, Y+5	; 0x05
    3c24:	ae 81       	ldd	r26, Y+6	; 0x06
    3c26:	bf 81       	ldd	r27, Y+7	; 0x07
    3c28:	9c 01       	movw	r18, r24
    3c2a:	8c a5       	ldd	r24, Y+44	; 0x2c
    3c2c:	9d a5       	ldd	r25, Y+45	; 0x2d
    3c2e:	82 0f       	add	r24, r18
    3c30:	93 1f       	adc	r25, r19
    3c32:	fc 01       	movw	r30, r24
    3c34:	80 81       	ld	r24, Z
    3c36:	88 23       	and	r24, r24
    3c38:	d9 f6       	brne	.-74     	; 0x3bf0 <UARTvprintf+0x34>
        }

        //
        // Write this portion of the string.
        //
        CONSOLE_UART_WRITE(pcString, ui32Idx);
    3c3a:	8c 81       	ldd	r24, Y+4	; 0x04
    3c3c:	9d 81       	ldd	r25, Y+5	; 0x05
    3c3e:	ae 81       	ldd	r26, Y+6	; 0x06
    3c40:	bf 81       	ldd	r27, Y+7	; 0x07
    3c42:	28 2f       	mov	r18, r24
    3c44:	8c a5       	ldd	r24, Y+44	; 0x2c
    3c46:	9d a5       	ldd	r25, Y+45	; 0x2d
    3c48:	62 2f       	mov	r22, r18
    3c4a:	0e 94 0e 1c 	call	0x381c	; 0x381c <usart0_send_array>

        //
        // Skip the portion of the string that was written.
        //
        pcString += ui32Idx;
    3c4e:	8c 81       	ldd	r24, Y+4	; 0x04
    3c50:	9d 81       	ldd	r25, Y+5	; 0x05
    3c52:	ae 81       	ldd	r26, Y+6	; 0x06
    3c54:	bf 81       	ldd	r27, Y+7	; 0x07
    3c56:	9c 01       	movw	r18, r24
    3c58:	8c a5       	ldd	r24, Y+44	; 0x2c
    3c5a:	9d a5       	ldd	r25, Y+45	; 0x2d
    3c5c:	82 0f       	add	r24, r18
    3c5e:	93 1f       	adc	r25, r19
    3c60:	9d a7       	std	Y+45, r25	; 0x2d
    3c62:	8c a7       	std	Y+44, r24	; 0x2c

        //
        // See if the next character is a %.
        //
        if(*pcString == '%')
    3c64:	8c a5       	ldd	r24, Y+44	; 0x2c
    3c66:	9d a5       	ldd	r25, Y+45	; 0x2d
    3c68:	fc 01       	movw	r30, r24
    3c6a:	80 81       	ld	r24, Z
    3c6c:	85 32       	cpi	r24, 0x25	; 37
    3c6e:	09 f0       	breq	.+2      	; 0x3c72 <UARTvprintf+0xb6>
    3c70:	dc c2       	rjmp	.+1464   	; 0x422a <UARTvprintf+0x66e>
        {
            //
            // Skip the %.
            //
            pcString++;
    3c72:	8c a5       	ldd	r24, Y+44	; 0x2c
    3c74:	9d a5       	ldd	r25, Y+45	; 0x2d
    3c76:	01 96       	adiw	r24, 0x01	; 1
    3c78:	9d a7       	std	Y+45, r25	; 0x2d
    3c7a:	8c a7       	std	Y+44, r24	; 0x2c

            //
            // Set the digit count to zero, and the fill character to space
            // (in other words, to the defaults).
            //
            ui32Count = 0;
    3c7c:	18 8a       	std	Y+16, r1	; 0x10
    3c7e:	19 8a       	std	Y+17, r1	; 0x11
    3c80:	1a 8a       	std	Y+18, r1	; 0x12
    3c82:	1b 8a       	std	Y+19, r1	; 0x13
            cFill = ' ';
    3c84:	80 e2       	ldi	r24, 0x20	; 32
    3c86:	89 83       	std	Y+1, r24	; 0x01
again:

            //
            // Determine how to handle the next character.
            //
            switch(*pcString++)
    3c88:	8c a5       	ldd	r24, Y+44	; 0x2c
    3c8a:	9d a5       	ldd	r25, Y+45	; 0x2d
    3c8c:	9c 01       	movw	r18, r24
    3c8e:	2f 5f       	subi	r18, 0xFF	; 255
    3c90:	3f 4f       	sbci	r19, 0xFF	; 255
    3c92:	3d a7       	std	Y+45, r19	; 0x2d
    3c94:	2c a7       	std	Y+44, r18	; 0x2c
    3c96:	fc 01       	movw	r30, r24
    3c98:	80 81       	ld	r24, Z
    3c9a:	08 2e       	mov	r0, r24
    3c9c:	00 0c       	add	r0, r0
    3c9e:	99 0b       	sbc	r25, r25
    3ca0:	09 2e       	mov	r0, r25
    3ca2:	00 0c       	add	r0, r0
    3ca4:	aa 0b       	sbc	r26, r26
    3ca6:	bb 0b       	sbc	r27, r27
    3ca8:	45 e2       	ldi	r20, 0x25	; 37
    3caa:	50 e0       	ldi	r21, 0x00	; 0
    3cac:	23 e5       	ldi	r18, 0x53	; 83
    3cae:	30 e0       	ldi	r19, 0x00	; 0
    3cb0:	84 1b       	sub	r24, r20
    3cb2:	95 0b       	sbc	r25, r21
    3cb4:	28 17       	cp	r18, r24
    3cb6:	39 07       	cpc	r19, r25
    3cb8:	08 f4       	brcc	.+2      	; 0x3cbc <UARTvprintf+0x100>
    3cba:	b1 c2       	rjmp	.+1378   	; 0x421e <UARTvprintf+0x662>
    3cbc:	81 5c       	subi	r24, 0xC1	; 193
    3cbe:	9e 4f       	sbci	r25, 0xFE	; 254
    3cc0:	fc 01       	movw	r30, r24
    3cc2:	0c 94 f6 32 	jmp	0x65ec	; 0x65ec <__tablejump2__>
                {
                    //
                    // If this is a zero, and it is the first digit, then the
                    // fill character is a zero instead of a space.
                    //
                    if((pcString[-1] == '0') && (ui32Count == 0))
    3cc6:	8c a5       	ldd	r24, Y+44	; 0x2c
    3cc8:	9d a5       	ldd	r25, Y+45	; 0x2d
    3cca:	01 97       	sbiw	r24, 0x01	; 1
    3ccc:	fc 01       	movw	r30, r24
    3cce:	80 81       	ld	r24, Z
    3cd0:	80 33       	cpi	r24, 0x30	; 48
    3cd2:	51 f4       	brne	.+20     	; 0x3ce8 <UARTvprintf+0x12c>
    3cd4:	88 89       	ldd	r24, Y+16	; 0x10
    3cd6:	99 89       	ldd	r25, Y+17	; 0x11
    3cd8:	aa 89       	ldd	r26, Y+18	; 0x12
    3cda:	bb 89       	ldd	r27, Y+19	; 0x13
    3cdc:	89 2b       	or	r24, r25
    3cde:	8a 2b       	or	r24, r26
    3ce0:	8b 2b       	or	r24, r27
    3ce2:	11 f4       	brne	.+4      	; 0x3ce8 <UARTvprintf+0x12c>
                    {
                        cFill = '0';
    3ce4:	80 e3       	ldi	r24, 0x30	; 48
    3ce6:	89 83       	std	Y+1, r24	; 0x01
                    }

                    //
                    // Update the digit count.
                    //
                    ui32Count *= 10;
    3ce8:	88 89       	ldd	r24, Y+16	; 0x10
    3cea:	99 89       	ldd	r25, Y+17	; 0x11
    3cec:	aa 89       	ldd	r26, Y+18	; 0x12
    3cee:	bb 89       	ldd	r27, Y+19	; 0x13
    3cf0:	88 0f       	add	r24, r24
    3cf2:	99 1f       	adc	r25, r25
    3cf4:	aa 1f       	adc	r26, r26
    3cf6:	bb 1f       	adc	r27, r27
    3cf8:	9c 01       	movw	r18, r24
    3cfa:	ad 01       	movw	r20, r26
    3cfc:	22 0f       	add	r18, r18
    3cfe:	33 1f       	adc	r19, r19
    3d00:	44 1f       	adc	r20, r20
    3d02:	55 1f       	adc	r21, r21
    3d04:	22 0f       	add	r18, r18
    3d06:	33 1f       	adc	r19, r19
    3d08:	44 1f       	adc	r20, r20
    3d0a:	55 1f       	adc	r21, r21
    3d0c:	82 0f       	add	r24, r18
    3d0e:	93 1f       	adc	r25, r19
    3d10:	a4 1f       	adc	r26, r20
    3d12:	b5 1f       	adc	r27, r21
    3d14:	88 8b       	std	Y+16, r24	; 0x10
    3d16:	99 8b       	std	Y+17, r25	; 0x11
    3d18:	aa 8b       	std	Y+18, r26	; 0x12
    3d1a:	bb 8b       	std	Y+19, r27	; 0x13
                    ui32Count += pcString[-1] - '0';
    3d1c:	8c a5       	ldd	r24, Y+44	; 0x2c
    3d1e:	9d a5       	ldd	r25, Y+45	; 0x2d
    3d20:	01 97       	sbiw	r24, 0x01	; 1
    3d22:	fc 01       	movw	r30, r24
    3d24:	80 81       	ld	r24, Z
    3d26:	08 2e       	mov	r0, r24
    3d28:	00 0c       	add	r0, r0
    3d2a:	99 0b       	sbc	r25, r25
    3d2c:	c0 97       	sbiw	r24, 0x30	; 48
    3d2e:	9c 01       	movw	r18, r24
    3d30:	99 0f       	add	r25, r25
    3d32:	44 0b       	sbc	r20, r20
    3d34:	55 0b       	sbc	r21, r21
    3d36:	88 89       	ldd	r24, Y+16	; 0x10
    3d38:	99 89       	ldd	r25, Y+17	; 0x11
    3d3a:	aa 89       	ldd	r26, Y+18	; 0x12
    3d3c:	bb 89       	ldd	r27, Y+19	; 0x13
    3d3e:	82 0f       	add	r24, r18
    3d40:	93 1f       	adc	r25, r19
    3d42:	a4 1f       	adc	r26, r20
    3d44:	b5 1f       	adc	r27, r21
    3d46:	88 8b       	std	Y+16, r24	; 0x10
    3d48:	99 8b       	std	Y+17, r25	; 0x11
    3d4a:	aa 8b       	std	Y+18, r26	; 0x12
    3d4c:	bb 8b       	std	Y+19, r27	; 0x13

                    //
                    // Get the next character.
                    //
                    goto again;
    3d4e:	9c cf       	rjmp	.-200    	; 0x3c88 <UARTvprintf+0xcc>
                case 'c':
                {
                    //
                    // Get the value from the varargs.
                    //
                    ui32Value = va_arg(vaArgP, uint32_t);
    3d50:	8e a5       	ldd	r24, Y+46	; 0x2e
    3d52:	9f a5       	ldd	r25, Y+47	; 0x2f
    3d54:	9c 01       	movw	r18, r24
    3d56:	2c 5f       	subi	r18, 0xFC	; 252
    3d58:	3f 4f       	sbci	r19, 0xFF	; 255
    3d5a:	3f a7       	std	Y+47, r19	; 0x2f
    3d5c:	2e a7       	std	Y+46, r18	; 0x2e
    3d5e:	fc 01       	movw	r30, r24
    3d60:	80 81       	ld	r24, Z
    3d62:	91 81       	ldd	r25, Z+1	; 0x01
    3d64:	a2 81       	ldd	r26, Z+2	; 0x02
    3d66:	b3 81       	ldd	r27, Z+3	; 0x03
    3d68:	88 87       	std	Y+8, r24	; 0x08
    3d6a:	99 87       	std	Y+9, r25	; 0x09
    3d6c:	aa 87       	std	Y+10, r26	; 0x0a
    3d6e:	bb 87       	std	Y+11, r27	; 0x0b

                    //
                    // Print out the character.
                    //
                    CONSOLE_UART_WRITE((char *)&ui32Value, 1);
    3d70:	ce 01       	movw	r24, r28
    3d72:	08 96       	adiw	r24, 0x08	; 8
    3d74:	61 e0       	ldi	r22, 0x01	; 1
    3d76:	0e 94 0e 1c 	call	0x381c	; 0x381c <usart0_send_array>

                    //
                    // This command has been handled.
                    //
                    break;
    3d7a:	57 c2       	rjmp	.+1198   	; 0x422a <UARTvprintf+0x66e>
                case 'i':
                {
                    //
                    // Get the value from the varargs.
                    //
                    ui32Value = va_arg(vaArgP, uint16_t);
    3d7c:	8e a5       	ldd	r24, Y+46	; 0x2e
    3d7e:	9f a5       	ldd	r25, Y+47	; 0x2f
    3d80:	9c 01       	movw	r18, r24
    3d82:	2e 5f       	subi	r18, 0xFE	; 254
    3d84:	3f 4f       	sbci	r19, 0xFF	; 255
    3d86:	3f a7       	std	Y+47, r19	; 0x2f
    3d88:	2e a7       	std	Y+46, r18	; 0x2e
    3d8a:	fc 01       	movw	r30, r24
    3d8c:	80 81       	ld	r24, Z
    3d8e:	91 81       	ldd	r25, Z+1	; 0x01
    3d90:	cc 01       	movw	r24, r24
    3d92:	a0 e0       	ldi	r26, 0x00	; 0
    3d94:	b0 e0       	ldi	r27, 0x00	; 0
    3d96:	88 87       	std	Y+8, r24	; 0x08
    3d98:	99 87       	std	Y+9, r25	; 0x09
    3d9a:	aa 87       	std	Y+10, r26	; 0x0a
    3d9c:	bb 87       	std	Y+11, r27	; 0x0b

                    //
                    // Reset the buffer position.
                    //
                    ui32Pos = 0;
    3d9e:	1c 86       	std	Y+12, r1	; 0x0c
    3da0:	1d 86       	std	Y+13, r1	; 0x0d
    3da2:	1e 86       	std	Y+14, r1	; 0x0e
    3da4:	1f 86       	std	Y+15, r1	; 0x0f

                    //
                    // If the value is negative, make it positive and indicate
                    // that a minus sign is needed.
                    //
                    if((int32_t)ui32Value < 0)
    3da6:	88 85       	ldd	r24, Y+8	; 0x08
    3da8:	99 85       	ldd	r25, Y+9	; 0x09
    3daa:	aa 85       	ldd	r26, Y+10	; 0x0a
    3dac:	bb 85       	ldd	r27, Y+11	; 0x0b
    3dae:	bb 23       	and	r27, r27
    3db0:	c4 f4       	brge	.+48     	; 0x3de2 <UARTvprintf+0x226>
                    {
                        //
                        // Make the value positive.
                        //
                        ui32Value = -(int32_t)ui32Value;
    3db2:	88 85       	ldd	r24, Y+8	; 0x08
    3db4:	99 85       	ldd	r25, Y+9	; 0x09
    3db6:	aa 85       	ldd	r26, Y+10	; 0x0a
    3db8:	bb 85       	ldd	r27, Y+11	; 0x0b
    3dba:	b0 95       	com	r27
    3dbc:	a0 95       	com	r26
    3dbe:	90 95       	com	r25
    3dc0:	81 95       	neg	r24
    3dc2:	9f 4f       	sbci	r25, 0xFF	; 255
    3dc4:	af 4f       	sbci	r26, 0xFF	; 255
    3dc6:	bf 4f       	sbci	r27, 0xFF	; 255
    3dc8:	88 87       	std	Y+8, r24	; 0x08
    3dca:	99 87       	std	Y+9, r25	; 0x09
    3dcc:	aa 87       	std	Y+10, r26	; 0x0a
    3dce:	bb 87       	std	Y+11, r27	; 0x0b

                        //
                        // Indicate that the value is negative.
                        //
                        ui32Neg = 1;
    3dd0:	81 e0       	ldi	r24, 0x01	; 1
    3dd2:	90 e0       	ldi	r25, 0x00	; 0
    3dd4:	a0 e0       	ldi	r26, 0x00	; 0
    3dd6:	b0 e0       	ldi	r27, 0x00	; 0
    3dd8:	88 8f       	std	Y+24, r24	; 0x18
    3dda:	99 8f       	std	Y+25, r25	; 0x19
    3ddc:	aa 8f       	std	Y+26, r26	; 0x1a
    3dde:	bb 8f       	std	Y+27, r27	; 0x1b
    3de0:	04 c0       	rjmp	.+8      	; 0x3dea <UARTvprintf+0x22e>
                    {
                        //
                        // Indicate that the value is positive so that a minus
                        // sign isn't inserted.
                        //
                        ui32Neg = 0;
    3de2:	18 8e       	std	Y+24, r1	; 0x18
    3de4:	19 8e       	std	Y+25, r1	; 0x19
    3de6:	1a 8e       	std	Y+26, r1	; 0x1a
    3de8:	1b 8e       	std	Y+27, r1	; 0x1b
                    }

                    //
                    // Set the base to 10.
                    //
                    ui32Base = 10;
    3dea:	8a e0       	ldi	r24, 0x0A	; 10
    3dec:	90 e0       	ldi	r25, 0x00	; 0
    3dee:	a0 e0       	ldi	r26, 0x00	; 0
    3df0:	b0 e0       	ldi	r27, 0x00	; 0
    3df2:	8c 8b       	std	Y+20, r24	; 0x14
    3df4:	9d 8b       	std	Y+21, r25	; 0x15
    3df6:	ae 8b       	std	Y+22, r26	; 0x16
    3df8:	bf 8b       	std	Y+23, r27	; 0x17

                    //
                    // Convert the value to ASCII.
                    //
                    goto convert;
    3dfa:	b1 c0       	rjmp	.+354    	; 0x3f5e <UARTvprintf+0x3a2>
                case 's':
                {
                    //
                    // Get the string pointer from the varargs.
                    //
                    pcStr = va_arg(vaArgP, char *);
    3dfc:	8e a5       	ldd	r24, Y+46	; 0x2e
    3dfe:	9f a5       	ldd	r25, Y+47	; 0x2f
    3e00:	9c 01       	movw	r18, r24
    3e02:	2e 5f       	subi	r18, 0xFE	; 254
    3e04:	3f 4f       	sbci	r19, 0xFF	; 255
    3e06:	3f a7       	std	Y+47, r19	; 0x2f
    3e08:	2e a7       	std	Y+46, r18	; 0x2e
    3e0a:	fc 01       	movw	r30, r24
    3e0c:	80 81       	ld	r24, Z
    3e0e:	91 81       	ldd	r25, Z+1	; 0x01
    3e10:	9b 83       	std	Y+3, r25	; 0x03
    3e12:	8a 83       	std	Y+2, r24	; 0x02

                    //
                    // Determine the length of the string.
                    //
                    for(ui32Idx = 0; pcStr[ui32Idx] != '\0'; ui32Idx++)
    3e14:	1c 82       	std	Y+4, r1	; 0x04
    3e16:	1d 82       	std	Y+5, r1	; 0x05
    3e18:	1e 82       	std	Y+6, r1	; 0x06
    3e1a:	1f 82       	std	Y+7, r1	; 0x07
    3e1c:	0b c0       	rjmp	.+22     	; 0x3e34 <UARTvprintf+0x278>
    3e1e:	8c 81       	ldd	r24, Y+4	; 0x04
    3e20:	9d 81       	ldd	r25, Y+5	; 0x05
    3e22:	ae 81       	ldd	r26, Y+6	; 0x06
    3e24:	bf 81       	ldd	r27, Y+7	; 0x07
    3e26:	01 96       	adiw	r24, 0x01	; 1
    3e28:	a1 1d       	adc	r26, r1
    3e2a:	b1 1d       	adc	r27, r1
    3e2c:	8c 83       	std	Y+4, r24	; 0x04
    3e2e:	9d 83       	std	Y+5, r25	; 0x05
    3e30:	ae 83       	std	Y+6, r26	; 0x06
    3e32:	bf 83       	std	Y+7, r27	; 0x07
    3e34:	8c 81       	ldd	r24, Y+4	; 0x04
    3e36:	9d 81       	ldd	r25, Y+5	; 0x05
    3e38:	ae 81       	ldd	r26, Y+6	; 0x06
    3e3a:	bf 81       	ldd	r27, Y+7	; 0x07
    3e3c:	9c 01       	movw	r18, r24
    3e3e:	8a 81       	ldd	r24, Y+2	; 0x02
    3e40:	9b 81       	ldd	r25, Y+3	; 0x03
    3e42:	82 0f       	add	r24, r18
    3e44:	93 1f       	adc	r25, r19
    3e46:	fc 01       	movw	r30, r24
    3e48:	80 81       	ld	r24, Z
    3e4a:	88 23       	and	r24, r24
    3e4c:	41 f7       	brne	.-48     	; 0x3e1e <UARTvprintf+0x262>
                    }

                    //
                    // Write the string.
                    //
                    CONSOLE_UART_WRITE(pcStr, ui32Idx);
    3e4e:	8c 81       	ldd	r24, Y+4	; 0x04
    3e50:	9d 81       	ldd	r25, Y+5	; 0x05
    3e52:	ae 81       	ldd	r26, Y+6	; 0x06
    3e54:	bf 81       	ldd	r27, Y+7	; 0x07
    3e56:	28 2f       	mov	r18, r24
    3e58:	8a 81       	ldd	r24, Y+2	; 0x02
    3e5a:	9b 81       	ldd	r25, Y+3	; 0x03
    3e5c:	62 2f       	mov	r22, r18
    3e5e:	0e 94 0e 1c 	call	0x381c	; 0x381c <usart0_send_array>

                    //
                    // Write any required padding spaces
                    //
                    if(ui32Count > ui32Idx)
    3e62:	28 89       	ldd	r18, Y+16	; 0x10
    3e64:	39 89       	ldd	r19, Y+17	; 0x11
    3e66:	4a 89       	ldd	r20, Y+18	; 0x12
    3e68:	5b 89       	ldd	r21, Y+19	; 0x13
    3e6a:	8c 81       	ldd	r24, Y+4	; 0x04
    3e6c:	9d 81       	ldd	r25, Y+5	; 0x05
    3e6e:	ae 81       	ldd	r26, Y+6	; 0x06
    3e70:	bf 81       	ldd	r27, Y+7	; 0x07
    3e72:	82 17       	cp	r24, r18
    3e74:	93 07       	cpc	r25, r19
    3e76:	a4 07       	cpc	r26, r20
    3e78:	b5 07       	cpc	r27, r21
    3e7a:	08 f0       	brcs	.+2      	; 0x3e7e <UARTvprintf+0x2c2>
    3e7c:	d6 c1       	rjmp	.+940    	; 0x422a <UARTvprintf+0x66e>
                    {
                        ui32Count -= ui32Idx;
    3e7e:	8c 81       	ldd	r24, Y+4	; 0x04
    3e80:	9d 81       	ldd	r25, Y+5	; 0x05
    3e82:	ae 81       	ldd	r26, Y+6	; 0x06
    3e84:	bf 81       	ldd	r27, Y+7	; 0x07
    3e86:	28 89       	ldd	r18, Y+16	; 0x10
    3e88:	39 89       	ldd	r19, Y+17	; 0x11
    3e8a:	4a 89       	ldd	r20, Y+18	; 0x12
    3e8c:	5b 89       	ldd	r21, Y+19	; 0x13
    3e8e:	79 01       	movw	r14, r18
    3e90:	8a 01       	movw	r16, r20
    3e92:	e8 1a       	sub	r14, r24
    3e94:	f9 0a       	sbc	r15, r25
    3e96:	0a 0b       	sbc	r16, r26
    3e98:	1b 0b       	sbc	r17, r27
    3e9a:	d8 01       	movw	r26, r16
    3e9c:	c7 01       	movw	r24, r14
    3e9e:	88 8b       	std	Y+16, r24	; 0x10
    3ea0:	99 8b       	std	Y+17, r25	; 0x11
    3ea2:	aa 8b       	std	Y+18, r26	; 0x12
    3ea4:	bb 8b       	std	Y+19, r27	; 0x13
                        while(ui32Count--)
    3ea6:	05 c0       	rjmp	.+10     	; 0x3eb2 <UARTvprintf+0x2f6>
                        {
                            CONSOLE_UART_WRITE(" ", 1);
    3ea8:	61 e0       	ldi	r22, 0x01	; 1
    3eaa:	89 e5       	ldi	r24, 0x59	; 89
    3eac:	9b e0       	ldi	r25, 0x0B	; 11
    3eae:	0e 94 0e 1c 	call	0x381c	; 0x381c <usart0_send_array>
                    // Write any required padding spaces
                    //
                    if(ui32Count > ui32Idx)
                    {
                        ui32Count -= ui32Idx;
                        while(ui32Count--)
    3eb2:	88 89       	ldd	r24, Y+16	; 0x10
    3eb4:	99 89       	ldd	r25, Y+17	; 0x11
    3eb6:	aa 89       	ldd	r26, Y+18	; 0x12
    3eb8:	bb 89       	ldd	r27, Y+19	; 0x13
    3eba:	9c 01       	movw	r18, r24
    3ebc:	ad 01       	movw	r20, r26
    3ebe:	21 50       	subi	r18, 0x01	; 1
    3ec0:	31 09       	sbc	r19, r1
    3ec2:	41 09       	sbc	r20, r1
    3ec4:	51 09       	sbc	r21, r1
    3ec6:	28 8b       	std	Y+16, r18	; 0x10
    3ec8:	39 8b       	std	Y+17, r19	; 0x11
    3eca:	4a 8b       	std	Y+18, r20	; 0x12
    3ecc:	5b 8b       	std	Y+19, r21	; 0x13
    3ece:	89 2b       	or	r24, r25
    3ed0:	8a 2b       	or	r24, r26
    3ed2:	8b 2b       	or	r24, r27
    3ed4:	49 f7       	brne	.-46     	; 0x3ea8 <UARTvprintf+0x2ec>
                    }

                    //
                    // This command has been handled.
                    //
                    break;
    3ed6:	a9 c1       	rjmp	.+850    	; 0x422a <UARTvprintf+0x66e>
                case 'u':
                {
                    //
                    // Get the value from the varargs.
                    //
                    ui32Value = va_arg(vaArgP, uint16_t);
    3ed8:	8e a5       	ldd	r24, Y+46	; 0x2e
    3eda:	9f a5       	ldd	r25, Y+47	; 0x2f
    3edc:	9c 01       	movw	r18, r24
    3ede:	2e 5f       	subi	r18, 0xFE	; 254
    3ee0:	3f 4f       	sbci	r19, 0xFF	; 255
    3ee2:	3f a7       	std	Y+47, r19	; 0x2f
    3ee4:	2e a7       	std	Y+46, r18	; 0x2e
    3ee6:	fc 01       	movw	r30, r24
    3ee8:	80 81       	ld	r24, Z
    3eea:	91 81       	ldd	r25, Z+1	; 0x01
    3eec:	cc 01       	movw	r24, r24
    3eee:	a0 e0       	ldi	r26, 0x00	; 0
    3ef0:	b0 e0       	ldi	r27, 0x00	; 0
    3ef2:	88 87       	std	Y+8, r24	; 0x08
    3ef4:	99 87       	std	Y+9, r25	; 0x09
    3ef6:	aa 87       	std	Y+10, r26	; 0x0a
    3ef8:	bb 87       	std	Y+11, r27	; 0x0b

                    //
                    // Reset the buffer position.
                    //
                    ui32Pos = 0;
    3efa:	1c 86       	std	Y+12, r1	; 0x0c
    3efc:	1d 86       	std	Y+13, r1	; 0x0d
    3efe:	1e 86       	std	Y+14, r1	; 0x0e
    3f00:	1f 86       	std	Y+15, r1	; 0x0f

                    //
                    // Set the base to 10.
                    //
                    ui32Base = 10;
    3f02:	8a e0       	ldi	r24, 0x0A	; 10
    3f04:	90 e0       	ldi	r25, 0x00	; 0
    3f06:	a0 e0       	ldi	r26, 0x00	; 0
    3f08:	b0 e0       	ldi	r27, 0x00	; 0
    3f0a:	8c 8b       	std	Y+20, r24	; 0x14
    3f0c:	9d 8b       	std	Y+21, r25	; 0x15
    3f0e:	ae 8b       	std	Y+22, r26	; 0x16
    3f10:	bf 8b       	std	Y+23, r27	; 0x17

                    //
                    // Indicate that the value is positive so that a minus sign
                    // isn't inserted.
                    //
                    ui32Neg = 0;
    3f12:	18 8e       	std	Y+24, r1	; 0x18
    3f14:	19 8e       	std	Y+25, r1	; 0x19
    3f16:	1a 8e       	std	Y+26, r1	; 0x1a
    3f18:	1b 8e       	std	Y+27, r1	; 0x1b

                    //
                    // Convert the value to ASCII.
                    //
                    goto convert;
    3f1a:	21 c0       	rjmp	.+66     	; 0x3f5e <UARTvprintf+0x3a2>
                case 'p':
                {
                    //
                    // Get the value from the varargs.
                    //
                    ui32Value = va_arg(vaArgP, uint16_t);
    3f1c:	8e a5       	ldd	r24, Y+46	; 0x2e
    3f1e:	9f a5       	ldd	r25, Y+47	; 0x2f
    3f20:	9c 01       	movw	r18, r24
    3f22:	2e 5f       	subi	r18, 0xFE	; 254
    3f24:	3f 4f       	sbci	r19, 0xFF	; 255
    3f26:	3f a7       	std	Y+47, r19	; 0x2f
    3f28:	2e a7       	std	Y+46, r18	; 0x2e
    3f2a:	fc 01       	movw	r30, r24
    3f2c:	80 81       	ld	r24, Z
    3f2e:	91 81       	ldd	r25, Z+1	; 0x01
    3f30:	cc 01       	movw	r24, r24
    3f32:	a0 e0       	ldi	r26, 0x00	; 0
    3f34:	b0 e0       	ldi	r27, 0x00	; 0
    3f36:	88 87       	std	Y+8, r24	; 0x08
    3f38:	99 87       	std	Y+9, r25	; 0x09
    3f3a:	aa 87       	std	Y+10, r26	; 0x0a
    3f3c:	bb 87       	std	Y+11, r27	; 0x0b

                    //
                    // Reset the buffer position.
                    //
                    ui32Pos = 0;
    3f3e:	1c 86       	std	Y+12, r1	; 0x0c
    3f40:	1d 86       	std	Y+13, r1	; 0x0d
    3f42:	1e 86       	std	Y+14, r1	; 0x0e
    3f44:	1f 86       	std	Y+15, r1	; 0x0f

                    //
                    // Set the base to 16.
                    //
                    ui32Base = 16;
    3f46:	80 e1       	ldi	r24, 0x10	; 16
    3f48:	90 e0       	ldi	r25, 0x00	; 0
    3f4a:	a0 e0       	ldi	r26, 0x00	; 0
    3f4c:	b0 e0       	ldi	r27, 0x00	; 0
    3f4e:	8c 8b       	std	Y+20, r24	; 0x14
    3f50:	9d 8b       	std	Y+21, r25	; 0x15
    3f52:	ae 8b       	std	Y+22, r26	; 0x16
    3f54:	bf 8b       	std	Y+23, r27	; 0x17

                    //
                    // Indicate that the value is positive so that a minus sign
                    // isn't inserted.
                    //
                    ui32Neg = 0;
    3f56:	18 8e       	std	Y+24, r1	; 0x18
    3f58:	19 8e       	std	Y+25, r1	; 0x19
    3f5a:	1a 8e       	std	Y+26, r1	; 0x1a
    3f5c:	1b 8e       	std	Y+27, r1	; 0x1b
                    //
                    // Determine the number of digits in the string version of
                    // the value.
                    //
convert:
                    for(ui32Idx = 1;
    3f5e:	81 e0       	ldi	r24, 0x01	; 1
    3f60:	90 e0       	ldi	r25, 0x00	; 0
    3f62:	a0 e0       	ldi	r26, 0x00	; 0
    3f64:	b0 e0       	ldi	r27, 0x00	; 0
    3f66:	8c 83       	std	Y+4, r24	; 0x04
    3f68:	9d 83       	std	Y+5, r25	; 0x05
    3f6a:	ae 83       	std	Y+6, r26	; 0x06
    3f6c:	bf 83       	std	Y+7, r27	; 0x07
    3f6e:	1d c0       	rjmp	.+58     	; 0x3faa <UARTvprintf+0x3ee>
                        (((ui32Idx * ui32Base) <= ui32Value) &&
                         (((ui32Idx * ui32Base) / ui32Base) == ui32Idx));
                        ui32Idx *= ui32Base, ui32Count--)
    3f70:	2c 89       	ldd	r18, Y+20	; 0x14
    3f72:	3d 89       	ldd	r19, Y+21	; 0x15
    3f74:	4e 89       	ldd	r20, Y+22	; 0x16
    3f76:	5f 89       	ldd	r21, Y+23	; 0x17
    3f78:	8c 81       	ldd	r24, Y+4	; 0x04
    3f7a:	9d 81       	ldd	r25, Y+5	; 0x05
    3f7c:	ae 81       	ldd	r26, Y+6	; 0x06
    3f7e:	bf 81       	ldd	r27, Y+7	; 0x07
    3f80:	bc 01       	movw	r22, r24
    3f82:	cd 01       	movw	r24, r26
    3f84:	0e 94 c4 32 	call	0x6588	; 0x6588 <__mulsi3>
    3f88:	dc 01       	movw	r26, r24
    3f8a:	cb 01       	movw	r24, r22
    3f8c:	8c 83       	std	Y+4, r24	; 0x04
    3f8e:	9d 83       	std	Y+5, r25	; 0x05
    3f90:	ae 83       	std	Y+6, r26	; 0x06
    3f92:	bf 83       	std	Y+7, r27	; 0x07
    3f94:	88 89       	ldd	r24, Y+16	; 0x10
    3f96:	99 89       	ldd	r25, Y+17	; 0x11
    3f98:	aa 89       	ldd	r26, Y+18	; 0x12
    3f9a:	bb 89       	ldd	r27, Y+19	; 0x13
    3f9c:	01 97       	sbiw	r24, 0x01	; 1
    3f9e:	a1 09       	sbc	r26, r1
    3fa0:	b1 09       	sbc	r27, r1
    3fa2:	88 8b       	std	Y+16, r24	; 0x10
    3fa4:	99 8b       	std	Y+17, r25	; 0x11
    3fa6:	aa 8b       	std	Y+18, r26	; 0x12
    3fa8:	bb 8b       	std	Y+19, r27	; 0x13
                    // Determine the number of digits in the string version of
                    // the value.
                    //
convert:
                    for(ui32Idx = 1;
                        (((ui32Idx * ui32Base) <= ui32Value) &&
    3faa:	2c 81       	ldd	r18, Y+4	; 0x04
    3fac:	3d 81       	ldd	r19, Y+5	; 0x05
    3fae:	4e 81       	ldd	r20, Y+6	; 0x06
    3fb0:	5f 81       	ldd	r21, Y+7	; 0x07
    3fb2:	8c 89       	ldd	r24, Y+20	; 0x14
    3fb4:	9d 89       	ldd	r25, Y+21	; 0x15
    3fb6:	ae 89       	ldd	r26, Y+22	; 0x16
    3fb8:	bf 89       	ldd	r27, Y+23	; 0x17
    3fba:	bc 01       	movw	r22, r24
    3fbc:	cd 01       	movw	r24, r26
    3fbe:	0e 94 c4 32 	call	0x6588	; 0x6588 <__mulsi3>
    3fc2:	9b 01       	movw	r18, r22
    3fc4:	ac 01       	movw	r20, r24
    3fc6:	88 85       	ldd	r24, Y+8	; 0x08
    3fc8:	99 85       	ldd	r25, Y+9	; 0x09
    3fca:	aa 85       	ldd	r26, Y+10	; 0x0a
    3fcc:	bb 85       	ldd	r27, Y+11	; 0x0b
                    //
                    // Determine the number of digits in the string version of
                    // the value.
                    //
convert:
                    for(ui32Idx = 1;
    3fce:	82 17       	cp	r24, r18
    3fd0:	93 07       	cpc	r25, r19
    3fd2:	a4 07       	cpc	r26, r20
    3fd4:	b5 07       	cpc	r27, r21
    3fd6:	20 f1       	brcs	.+72     	; 0x4020 <UARTvprintf+0x464>
                        (((ui32Idx * ui32Base) <= ui32Value) &&
                         (((ui32Idx * ui32Base) / ui32Base) == ui32Idx));
    3fd8:	2c 81       	ldd	r18, Y+4	; 0x04
    3fda:	3d 81       	ldd	r19, Y+5	; 0x05
    3fdc:	4e 81       	ldd	r20, Y+6	; 0x06
    3fde:	5f 81       	ldd	r21, Y+7	; 0x07
    3fe0:	8c 89       	ldd	r24, Y+20	; 0x14
    3fe2:	9d 89       	ldd	r25, Y+21	; 0x15
    3fe4:	ae 89       	ldd	r26, Y+22	; 0x16
    3fe6:	bf 89       	ldd	r27, Y+23	; 0x17
    3fe8:	bc 01       	movw	r22, r24
    3fea:	cd 01       	movw	r24, r26
    3fec:	0e 94 c4 32 	call	0x6588	; 0x6588 <__mulsi3>
    3ff0:	dc 01       	movw	r26, r24
    3ff2:	cb 01       	movw	r24, r22
    3ff4:	2c 89       	ldd	r18, Y+20	; 0x14
    3ff6:	3d 89       	ldd	r19, Y+21	; 0x15
    3ff8:	4e 89       	ldd	r20, Y+22	; 0x16
    3ffa:	5f 89       	ldd	r21, Y+23	; 0x17
    3ffc:	bc 01       	movw	r22, r24
    3ffe:	cd 01       	movw	r24, r26
    4000:	0e 94 d4 32 	call	0x65a8	; 0x65a8 <__udivmodsi4>
    4004:	da 01       	movw	r26, r20
    4006:	c9 01       	movw	r24, r18
    4008:	9c 01       	movw	r18, r24
    400a:	ad 01       	movw	r20, r26
    400c:	8c 81       	ldd	r24, Y+4	; 0x04
    400e:	9d 81       	ldd	r25, Y+5	; 0x05
    4010:	ae 81       	ldd	r26, Y+6	; 0x06
    4012:	bf 81       	ldd	r27, Y+7	; 0x07
                    // Determine the number of digits in the string version of
                    // the value.
                    //
convert:
                    for(ui32Idx = 1;
                        (((ui32Idx * ui32Base) <= ui32Value) &&
    4014:	28 17       	cp	r18, r24
    4016:	39 07       	cpc	r19, r25
    4018:	4a 07       	cpc	r20, r26
    401a:	5b 07       	cpc	r21, r27
    401c:	09 f4       	brne	.+2      	; 0x4020 <UARTvprintf+0x464>
    401e:	a8 cf       	rjmp	.-176    	; 0x3f70 <UARTvprintf+0x3b4>

                    //
                    // If the value is negative, reduce the count of padding
                    // characters needed.
                    //
                    if(ui32Neg)
    4020:	88 8d       	ldd	r24, Y+24	; 0x18
    4022:	99 8d       	ldd	r25, Y+25	; 0x19
    4024:	aa 8d       	ldd	r26, Y+26	; 0x1a
    4026:	bb 8d       	ldd	r27, Y+27	; 0x1b
    4028:	89 2b       	or	r24, r25
    402a:	8a 2b       	or	r24, r26
    402c:	8b 2b       	or	r24, r27
    402e:	59 f0       	breq	.+22     	; 0x4046 <UARTvprintf+0x48a>
                    {
                        ui32Count--;
    4030:	88 89       	ldd	r24, Y+16	; 0x10
    4032:	99 89       	ldd	r25, Y+17	; 0x11
    4034:	aa 89       	ldd	r26, Y+18	; 0x12
    4036:	bb 89       	ldd	r27, Y+19	; 0x13
    4038:	01 97       	sbiw	r24, 0x01	; 1
    403a:	a1 09       	sbc	r26, r1
    403c:	b1 09       	sbc	r27, r1
    403e:	88 8b       	std	Y+16, r24	; 0x10
    4040:	99 8b       	std	Y+17, r25	; 0x11
    4042:	aa 8b       	std	Y+18, r26	; 0x12
    4044:	bb 8b       	std	Y+19, r27	; 0x13

                    //
                    // If the value is negative and the value is padded with
                    // zeros, then place the minus sign before the padding.
                    //
                    if(ui32Neg && (cFill == '0'))
    4046:	88 8d       	ldd	r24, Y+24	; 0x18
    4048:	99 8d       	ldd	r25, Y+25	; 0x19
    404a:	aa 8d       	ldd	r26, Y+26	; 0x1a
    404c:	bb 8d       	ldd	r27, Y+27	; 0x1b
    404e:	89 2b       	or	r24, r25
    4050:	8a 2b       	or	r24, r26
    4052:	8b 2b       	or	r24, r27
    4054:	e9 f0       	breq	.+58     	; 0x4090 <UARTvprintf+0x4d4>
    4056:	89 81       	ldd	r24, Y+1	; 0x01
    4058:	80 33       	cpi	r24, 0x30	; 48
    405a:	d1 f4       	brne	.+52     	; 0x4090 <UARTvprintf+0x4d4>
                    {
                        //
                        // Place the minus sign in the output buffer.
                        //
                        pcBuf[ui32Pos++] = '-';
    405c:	8c 85       	ldd	r24, Y+12	; 0x0c
    405e:	9d 85       	ldd	r25, Y+13	; 0x0d
    4060:	ae 85       	ldd	r26, Y+14	; 0x0e
    4062:	bf 85       	ldd	r27, Y+15	; 0x0f
    4064:	9c 01       	movw	r18, r24
    4066:	ad 01       	movw	r20, r26
    4068:	2f 5f       	subi	r18, 0xFF	; 255
    406a:	3f 4f       	sbci	r19, 0xFF	; 255
    406c:	4f 4f       	sbci	r20, 0xFF	; 255
    406e:	5f 4f       	sbci	r21, 0xFF	; 255
    4070:	2c 87       	std	Y+12, r18	; 0x0c
    4072:	3d 87       	std	Y+13, r19	; 0x0d
    4074:	4e 87       	std	Y+14, r20	; 0x0e
    4076:	5f 87       	std	Y+15, r21	; 0x0f
    4078:	9e 01       	movw	r18, r28
    407a:	24 5e       	subi	r18, 0xE4	; 228
    407c:	3f 4f       	sbci	r19, 0xFF	; 255
    407e:	82 0f       	add	r24, r18
    4080:	93 1f       	adc	r25, r19
    4082:	2d e2       	ldi	r18, 0x2D	; 45
    4084:	fc 01       	movw	r30, r24
    4086:	20 83       	st	Z, r18

                        //
                        // The minus sign has been placed, so turn off the
                        // negative flag.
                        //
                        ui32Neg = 0;
    4088:	18 8e       	std	Y+24, r1	; 0x18
    408a:	19 8e       	std	Y+25, r1	; 0x19
    408c:	1a 8e       	std	Y+26, r1	; 0x1a
    408e:	1b 8e       	std	Y+27, r1	; 0x1b

                    //
                    // Provide additional padding at the beginning of the
                    // string conversion if needed.
                    //
                    if((ui32Count > 1) && (ui32Count < 16))
    4090:	88 89       	ldd	r24, Y+16	; 0x10
    4092:	99 89       	ldd	r25, Y+17	; 0x11
    4094:	aa 89       	ldd	r26, Y+18	; 0x12
    4096:	bb 89       	ldd	r27, Y+19	; 0x13
    4098:	02 97       	sbiw	r24, 0x02	; 2
    409a:	a1 05       	cpc	r26, r1
    409c:	b1 05       	cpc	r27, r1
    409e:	e8 f1       	brcs	.+122    	; 0x411a <UARTvprintf+0x55e>
    40a0:	88 89       	ldd	r24, Y+16	; 0x10
    40a2:	99 89       	ldd	r25, Y+17	; 0x11
    40a4:	aa 89       	ldd	r26, Y+18	; 0x12
    40a6:	bb 89       	ldd	r27, Y+19	; 0x13
    40a8:	40 97       	sbiw	r24, 0x10	; 16
    40aa:	a1 05       	cpc	r26, r1
    40ac:	b1 05       	cpc	r27, r1
    40ae:	a8 f5       	brcc	.+106    	; 0x411a <UARTvprintf+0x55e>
                    {
                        for(ui32Count--; ui32Count; ui32Count--)
    40b0:	88 89       	ldd	r24, Y+16	; 0x10
    40b2:	99 89       	ldd	r25, Y+17	; 0x11
    40b4:	aa 89       	ldd	r26, Y+18	; 0x12
    40b6:	bb 89       	ldd	r27, Y+19	; 0x13
    40b8:	01 97       	sbiw	r24, 0x01	; 1
    40ba:	a1 09       	sbc	r26, r1
    40bc:	b1 09       	sbc	r27, r1
    40be:	88 8b       	std	Y+16, r24	; 0x10
    40c0:	99 8b       	std	Y+17, r25	; 0x11
    40c2:	aa 8b       	std	Y+18, r26	; 0x12
    40c4:	bb 8b       	std	Y+19, r27	; 0x13
    40c6:	21 c0       	rjmp	.+66     	; 0x410a <UARTvprintf+0x54e>
                        {
                            pcBuf[ui32Pos++] = cFill;
    40c8:	8c 85       	ldd	r24, Y+12	; 0x0c
    40ca:	9d 85       	ldd	r25, Y+13	; 0x0d
    40cc:	ae 85       	ldd	r26, Y+14	; 0x0e
    40ce:	bf 85       	ldd	r27, Y+15	; 0x0f
    40d0:	9c 01       	movw	r18, r24
    40d2:	ad 01       	movw	r20, r26
    40d4:	2f 5f       	subi	r18, 0xFF	; 255
    40d6:	3f 4f       	sbci	r19, 0xFF	; 255
    40d8:	4f 4f       	sbci	r20, 0xFF	; 255
    40da:	5f 4f       	sbci	r21, 0xFF	; 255
    40dc:	2c 87       	std	Y+12, r18	; 0x0c
    40de:	3d 87       	std	Y+13, r19	; 0x0d
    40e0:	4e 87       	std	Y+14, r20	; 0x0e
    40e2:	5f 87       	std	Y+15, r21	; 0x0f
    40e4:	9e 01       	movw	r18, r28
    40e6:	24 5e       	subi	r18, 0xE4	; 228
    40e8:	3f 4f       	sbci	r19, 0xFF	; 255
    40ea:	82 0f       	add	r24, r18
    40ec:	93 1f       	adc	r25, r19
    40ee:	29 81       	ldd	r18, Y+1	; 0x01
    40f0:	fc 01       	movw	r30, r24
    40f2:	20 83       	st	Z, r18
                    // Provide additional padding at the beginning of the
                    // string conversion if needed.
                    //
                    if((ui32Count > 1) && (ui32Count < 16))
                    {
                        for(ui32Count--; ui32Count; ui32Count--)
    40f4:	88 89       	ldd	r24, Y+16	; 0x10
    40f6:	99 89       	ldd	r25, Y+17	; 0x11
    40f8:	aa 89       	ldd	r26, Y+18	; 0x12
    40fa:	bb 89       	ldd	r27, Y+19	; 0x13
    40fc:	01 97       	sbiw	r24, 0x01	; 1
    40fe:	a1 09       	sbc	r26, r1
    4100:	b1 09       	sbc	r27, r1
    4102:	88 8b       	std	Y+16, r24	; 0x10
    4104:	99 8b       	std	Y+17, r25	; 0x11
    4106:	aa 8b       	std	Y+18, r26	; 0x12
    4108:	bb 8b       	std	Y+19, r27	; 0x13
    410a:	88 89       	ldd	r24, Y+16	; 0x10
    410c:	99 89       	ldd	r25, Y+17	; 0x11
    410e:	aa 89       	ldd	r26, Y+18	; 0x12
    4110:	bb 89       	ldd	r27, Y+19	; 0x13
    4112:	89 2b       	or	r24, r25
    4114:	8a 2b       	or	r24, r26
    4116:	8b 2b       	or	r24, r27
    4118:	b9 f6       	brne	.-82     	; 0x40c8 <UARTvprintf+0x50c>

                    //
                    // If the value is negative, then place the minus sign
                    // before the number.
                    //
                    if(ui32Neg)
    411a:	88 8d       	ldd	r24, Y+24	; 0x18
    411c:	99 8d       	ldd	r25, Y+25	; 0x19
    411e:	aa 8d       	ldd	r26, Y+26	; 0x1a
    4120:	bb 8d       	ldd	r27, Y+27	; 0x1b
    4122:	89 2b       	or	r24, r25
    4124:	8a 2b       	or	r24, r26
    4126:	8b 2b       	or	r24, r27
    4128:	09 f4       	brne	.+2      	; 0x412c <UARTvprintf+0x570>
    412a:	5e c0       	rjmp	.+188    	; 0x41e8 <UARTvprintf+0x62c>
                    {
                        //
                        // Place the minus sign in the output buffer.
                        //
                        pcBuf[ui32Pos++] = '-';
    412c:	8c 85       	ldd	r24, Y+12	; 0x0c
    412e:	9d 85       	ldd	r25, Y+13	; 0x0d
    4130:	ae 85       	ldd	r26, Y+14	; 0x0e
    4132:	bf 85       	ldd	r27, Y+15	; 0x0f
    4134:	9c 01       	movw	r18, r24
    4136:	ad 01       	movw	r20, r26
    4138:	2f 5f       	subi	r18, 0xFF	; 255
    413a:	3f 4f       	sbci	r19, 0xFF	; 255
    413c:	4f 4f       	sbci	r20, 0xFF	; 255
    413e:	5f 4f       	sbci	r21, 0xFF	; 255
    4140:	2c 87       	std	Y+12, r18	; 0x0c
    4142:	3d 87       	std	Y+13, r19	; 0x0d
    4144:	4e 87       	std	Y+14, r20	; 0x0e
    4146:	5f 87       	std	Y+15, r21	; 0x0f
    4148:	9e 01       	movw	r18, r28
    414a:	24 5e       	subi	r18, 0xE4	; 228
    414c:	3f 4f       	sbci	r19, 0xFF	; 255
    414e:	82 0f       	add	r24, r18
    4150:	93 1f       	adc	r25, r19
    4152:	2d e2       	ldi	r18, 0x2D	; 45
    4154:	fc 01       	movw	r30, r24
    4156:	20 83       	st	Z, r18
                    }

                    //
                    // Convert the value into a string.
                    //
                    for(; ui32Idx; ui32Idx /= ui32Base)
    4158:	47 c0       	rjmp	.+142    	; 0x41e8 <UARTvprintf+0x62c>
                    {
                        pcBuf[ui32Pos++] =
    415a:	ec 84       	ldd	r14, Y+12	; 0x0c
    415c:	fd 84       	ldd	r15, Y+13	; 0x0d
    415e:	0e 85       	ldd	r16, Y+14	; 0x0e
    4160:	1f 85       	ldd	r17, Y+15	; 0x0f
    4162:	d8 01       	movw	r26, r16
    4164:	c7 01       	movw	r24, r14
    4166:	01 96       	adiw	r24, 0x01	; 1
    4168:	a1 1d       	adc	r26, r1
    416a:	b1 1d       	adc	r27, r1
    416c:	8c 87       	std	Y+12, r24	; 0x0c
    416e:	9d 87       	std	Y+13, r25	; 0x0d
    4170:	ae 87       	std	Y+14, r26	; 0x0e
    4172:	bf 87       	std	Y+15, r27	; 0x0f
                            g_pcHex[(ui32Value / ui32Idx) % ui32Base];
    4174:	0f 2e       	mov	r0, r31
    4176:	f8 e4       	ldi	r31, 0x48	; 72
    4178:	cf 2e       	mov	r12, r31
    417a:	fb e0       	ldi	r31, 0x0B	; 11
    417c:	df 2e       	mov	r13, r31
    417e:	f0 2d       	mov	r31, r0
    4180:	88 85       	ldd	r24, Y+8	; 0x08
    4182:	99 85       	ldd	r25, Y+9	; 0x09
    4184:	aa 85       	ldd	r26, Y+10	; 0x0a
    4186:	bb 85       	ldd	r27, Y+11	; 0x0b
    4188:	2c 81       	ldd	r18, Y+4	; 0x04
    418a:	3d 81       	ldd	r19, Y+5	; 0x05
    418c:	4e 81       	ldd	r20, Y+6	; 0x06
    418e:	5f 81       	ldd	r21, Y+7	; 0x07
    4190:	bc 01       	movw	r22, r24
    4192:	cd 01       	movw	r24, r26
    4194:	0e 94 d4 32 	call	0x65a8	; 0x65a8 <__udivmodsi4>
    4198:	da 01       	movw	r26, r20
    419a:	c9 01       	movw	r24, r18
    419c:	2c 89       	ldd	r18, Y+20	; 0x14
    419e:	3d 89       	ldd	r19, Y+21	; 0x15
    41a0:	4e 89       	ldd	r20, Y+22	; 0x16
    41a2:	5f 89       	ldd	r21, Y+23	; 0x17
    41a4:	bc 01       	movw	r22, r24
    41a6:	cd 01       	movw	r24, r26
    41a8:	0e 94 d4 32 	call	0x65a8	; 0x65a8 <__udivmodsi4>
    41ac:	dc 01       	movw	r26, r24
    41ae:	cb 01       	movw	r24, r22
    41b0:	8c 0d       	add	r24, r12
    41b2:	9d 1d       	adc	r25, r13
    41b4:	fc 01       	movw	r30, r24
    41b6:	20 81       	ld	r18, Z
                    //
                    // Convert the value into a string.
                    //
                    for(; ui32Idx; ui32Idx /= ui32Base)
                    {
                        pcBuf[ui32Pos++] =
    41b8:	ce 01       	movw	r24, r28
    41ba:	4c 96       	adiw	r24, 0x1c	; 28
    41bc:	8e 0d       	add	r24, r14
    41be:	9f 1d       	adc	r25, r15
    41c0:	fc 01       	movw	r30, r24
    41c2:	20 83       	st	Z, r18
                            g_pcHex[(ui32Value / ui32Idx) % ui32Base];
                    }
    41c4:	2c 89       	ldd	r18, Y+20	; 0x14
    41c6:	3d 89       	ldd	r19, Y+21	; 0x15
    41c8:	4e 89       	ldd	r20, Y+22	; 0x16
    41ca:	5f 89       	ldd	r21, Y+23	; 0x17
                    }

                    //
                    // Convert the value into a string.
                    //
                    for(; ui32Idx; ui32Idx /= ui32Base)
    41cc:	8c 81       	ldd	r24, Y+4	; 0x04
    41ce:	9d 81       	ldd	r25, Y+5	; 0x05
    41d0:	ae 81       	ldd	r26, Y+6	; 0x06
    41d2:	bf 81       	ldd	r27, Y+7	; 0x07
    41d4:	bc 01       	movw	r22, r24
    41d6:	cd 01       	movw	r24, r26
    41d8:	0e 94 d4 32 	call	0x65a8	; 0x65a8 <__udivmodsi4>
    41dc:	da 01       	movw	r26, r20
    41de:	c9 01       	movw	r24, r18
    41e0:	8c 83       	std	Y+4, r24	; 0x04
    41e2:	9d 83       	std	Y+5, r25	; 0x05
    41e4:	ae 83       	std	Y+6, r26	; 0x06
    41e6:	bf 83       	std	Y+7, r27	; 0x07
    41e8:	8c 81       	ldd	r24, Y+4	; 0x04
    41ea:	9d 81       	ldd	r25, Y+5	; 0x05
    41ec:	ae 81       	ldd	r26, Y+6	; 0x06
    41ee:	bf 81       	ldd	r27, Y+7	; 0x07
    41f0:	89 2b       	or	r24, r25
    41f2:	8a 2b       	or	r24, r26
    41f4:	8b 2b       	or	r24, r27
    41f6:	09 f0       	breq	.+2      	; 0x41fa <UARTvprintf+0x63e>
    41f8:	b0 cf       	rjmp	.-160    	; 0x415a <UARTvprintf+0x59e>
                    }

                    //
                    // Write the string.
                    //
                    CONSOLE_UART_WRITE(pcBuf, ui32Pos);
    41fa:	8c 85       	ldd	r24, Y+12	; 0x0c
    41fc:	9d 85       	ldd	r25, Y+13	; 0x0d
    41fe:	ae 85       	ldd	r26, Y+14	; 0x0e
    4200:	bf 85       	ldd	r27, Y+15	; 0x0f
    4202:	28 2f       	mov	r18, r24
    4204:	ce 01       	movw	r24, r28
    4206:	4c 96       	adiw	r24, 0x1c	; 28
    4208:	62 2f       	mov	r22, r18
    420a:	0e 94 0e 1c 	call	0x381c	; 0x381c <usart0_send_array>

                    //
                    // This command has been handled.
                    //
                    break;
    420e:	0d c0       	rjmp	.+26     	; 0x422a <UARTvprintf+0x66e>
                case '%':
                {
                    //
                    // Simply write a single %.
                    //
                    CONSOLE_UART_WRITE(pcString - 1, 1);
    4210:	8c a5       	ldd	r24, Y+44	; 0x2c
    4212:	9d a5       	ldd	r25, Y+45	; 0x2d
    4214:	01 97       	sbiw	r24, 0x01	; 1
    4216:	61 e0       	ldi	r22, 0x01	; 1
    4218:	0e 94 0e 1c 	call	0x381c	; 0x381c <usart0_send_array>

                    //
                    // This command has been handled.
                    //
                    break;
    421c:	06 c0       	rjmp	.+12     	; 0x422a <UARTvprintf+0x66e>
                default:
                {
                    //
                    // Indicate an error.
                    //
                    CONSOLE_UART_WRITE("ERROR", 5);
    421e:	65 e0       	ldi	r22, 0x05	; 5
    4220:	8b e5       	ldi	r24, 0x5B	; 91
    4222:	9b e0       	ldi	r25, 0x0B	; 11
    4224:	0e 94 0e 1c 	call	0x381c	; 0x381c <usart0_send_array>

                    //
                    // This command has been handled.
                    //
                    break;
    4228:	00 00       	nop
    char *pcStr, pcBuf[16], cFill;

    //
    // Loop while there are more characters in the string.
    //
    while(*pcString)
    422a:	8c a5       	ldd	r24, Y+44	; 0x2c
    422c:	9d a5       	ldd	r25, Y+45	; 0x2d
    422e:	fc 01       	movw	r30, r24
    4230:	80 81       	ld	r24, Z
    4232:	88 23       	and	r24, r24
    4234:	09 f0       	breq	.+2      	; 0x4238 <UARTvprintf+0x67c>
    4236:	d7 cc       	rjmp	.-1618   	; 0x3be6 <UARTvprintf+0x2a>
                    break;
                }
            }
        }
    }
}
    4238:	00 00       	nop
    423a:	af 96       	adiw	r28, 0x2f	; 47
    423c:	0f b6       	in	r0, 0x3f	; 63
    423e:	f8 94       	cli
    4240:	de bf       	out	0x3e, r29	; 62
    4242:	0f be       	out	0x3f, r0	; 63
    4244:	cd bf       	out	0x3d, r28	; 61
    4246:	df 91       	pop	r29
    4248:	cf 91       	pop	r28
    424a:	1f 91       	pop	r17
    424c:	0f 91       	pop	r16
    424e:	ff 90       	pop	r15
    4250:	ef 90       	pop	r14
    4252:	df 90       	pop	r13
    4254:	cf 90       	pop	r12
    4256:	08 95       	ret

00004258 <UARTprintf>:
//! \return None.
//
//*****************************************************************************
void
UARTprintf(const char *pcString, ...)
{
    4258:	cf 93       	push	r28
    425a:	df 93       	push	r29
    425c:	00 d0       	rcall	.+0      	; 0x425e <UARTprintf+0x6>
    425e:	cd b7       	in	r28, 0x3d	; 61
    4260:	de b7       	in	r29, 0x3e	; 62
    va_list vaArgP;

    //
    // Start the varargs processing.
    //
    va_start(vaArgP, pcString);
    4262:	ce 01       	movw	r24, r28
    4264:	09 96       	adiw	r24, 0x09	; 9
    4266:	9a 83       	std	Y+2, r25	; 0x02
    4268:	89 83       	std	Y+1, r24	; 0x01

    UARTvprintf(pcString, vaArgP);
    426a:	29 81       	ldd	r18, Y+1	; 0x01
    426c:	3a 81       	ldd	r19, Y+2	; 0x02
    426e:	8f 81       	ldd	r24, Y+7	; 0x07
    4270:	98 85       	ldd	r25, Y+8	; 0x08
    4272:	b9 01       	movw	r22, r18
    4274:	0e 94 de 1d 	call	0x3bbc	; 0x3bbc <UARTvprintf>

    //
    // We're finished with the varargs now.
    //
    va_end(vaArgP);
    4278:	00 00       	nop
    427a:	0f 90       	pop	r0
    427c:	0f 90       	pop	r0
    427e:	df 91       	pop	r29
    4280:	cf 91       	pop	r28
    4282:	08 95       	ret

00004284 <get_BMP390_pressure>:
int16_t	get_BMP390_temperature(void)
{
	return (int16_t)TempPress_data.temperature;
}
int16_t	get_BMP390_pressure(void)
{
    4284:	cf 93       	push	r28
    4286:	df 93       	push	r29
    4288:	cd b7       	in	r28, 0x3d	; 61
    428a:	de b7       	in	r29, 0x3e	; 62
	return (int16_t)TempPress_data.pressure;
    428c:	80 91 ef 0e 	lds	r24, 0x0EEF	; 0x800eef <TempPress_data+0xc>
    4290:	90 91 f0 0e 	lds	r25, 0x0EF0	; 0x800ef0 <TempPress_data+0xd>
    4294:	a0 91 f1 0e 	lds	r26, 0x0EF1	; 0x800ef1 <TempPress_data+0xe>
    4298:	b0 91 f2 0e 	lds	r27, 0x0EF2	; 0x800ef2 <TempPress_data+0xf>
    429c:	bc 01       	movw	r22, r24
    429e:	cd 01       	movw	r24, r26
    42a0:	0e 94 ed 2d 	call	0x5bda	; 0x5bda <__fixsfsi>
    42a4:	dc 01       	movw	r26, r24
    42a6:	cb 01       	movw	r24, r22
    42a8:	df 91       	pop	r29
    42aa:	cf 91       	pop	r28
    42ac:	08 95       	ret

000042ae <CAN_Init>:
ctrl_error_status_t errorStatus;
id_reg_t idReg;

/* Initialize CAN */
void CAN_Init(void)
{
    42ae:	cf 93       	push	r28
    42b0:	df 93       	push	r29
    42b2:	cd b7       	in	r28, 0x3d	; 61
    42b4:	de b7       	in	r29, 0x3e	; 62
	MCP2515_SS0_DDR |= 1 << MCP2515_SS0_PIN;
    42b6:	87 e3       	ldi	r24, 0x37	; 55
    42b8:	90 e0       	ldi	r25, 0x00	; 0
    42ba:	27 e3       	ldi	r18, 0x37	; 55
    42bc:	30 e0       	ldi	r19, 0x00	; 0
    42be:	f9 01       	movw	r30, r18
    42c0:	20 81       	ld	r18, Z
    42c2:	21 60       	ori	r18, 0x01	; 1
    42c4:	fc 01       	movw	r30, r24
    42c6:	20 83       	st	Z, r18
	SPI_Init();
    42c8:	0e 94 c9 15 	call	0x2b92	; 0x2b92 <SPI_Init>
	CANSPI_Initialize();
    42cc:	0e 94 6c 21 	call	0x42d8	; 0x42d8 <CANSPI_Initialize>
}
    42d0:	00 00       	nop
    42d2:	df 91       	pop	r29
    42d4:	cf 91       	pop	r28
    42d6:	08 95       	ret

000042d8 <CANSPI_Initialize>:
bool CANSPI_Initialize(void)
{
    42d8:	cf 93       	push	r28
    42da:	df 93       	push	r29
    42dc:	cd b7       	in	r28, 0x3d	; 61
    42de:	de b7       	in	r29, 0x3e	; 62
    42e0:	ae 97       	sbiw	r28, 0x2e	; 46
    42e2:	0f b6       	in	r0, 0x3f	; 63
    42e4:	f8 94       	cli
    42e6:	de bf       	out	0x3e, r29	; 62
    42e8:	0f be       	out	0x3f, r0	; 63
    42ea:	cd bf       	out	0x3d, r28	; 61
	MCP2515_reset();
    42ec:	0e 94 a4 25 	call	0x4b48	; 0x4b48 <MCP2515_reset>
    42f0:	80 e0       	ldi	r24, 0x00	; 0
    42f2:	90 e0       	ldi	r25, 0x00	; 0
    42f4:	a8 e4       	ldi	r26, 0x48	; 72
    42f6:	b2 e4       	ldi	r27, 0x42	; 66
    42f8:	89 83       	std	Y+1, r24	; 0x01
    42fa:	9a 83       	std	Y+2, r25	; 0x02
    42fc:	ab 83       	std	Y+3, r26	; 0x03
    42fe:	bc 83       	std	Y+4, r27	; 0x04

	__builtin_avr_delay_cycles(__ticks_dc);

#else
	uint16_t __ticks;
	__tmp = ((F_CPU) / 4e3) * __ms;
    4300:	20 e0       	ldi	r18, 0x00	; 0
    4302:	30 e0       	ldi	r19, 0x00	; 0
    4304:	4a e7       	ldi	r20, 0x7A	; 122
    4306:	53 e4       	ldi	r21, 0x43	; 67
    4308:	69 81       	ldd	r22, Y+1	; 0x01
    430a:	7a 81       	ldd	r23, Y+2	; 0x02
    430c:	8b 81       	ldd	r24, Y+3	; 0x03
    430e:	9c 81       	ldd	r25, Y+4	; 0x04
    4310:	0e 94 da 2e 	call	0x5db4	; 0x5db4 <__mulsf3>
    4314:	dc 01       	movw	r26, r24
    4316:	cb 01       	movw	r24, r22
    4318:	8d 83       	std	Y+5, r24	; 0x05
    431a:	9e 83       	std	Y+6, r25	; 0x06
    431c:	af 83       	std	Y+7, r26	; 0x07
    431e:	b8 87       	std	Y+8, r27	; 0x08
	if (__tmp < 1.0)
    4320:	20 e0       	ldi	r18, 0x00	; 0
    4322:	30 e0       	ldi	r19, 0x00	; 0
    4324:	40 e8       	ldi	r20, 0x80	; 128
    4326:	5f e3       	ldi	r21, 0x3F	; 63
    4328:	6d 81       	ldd	r22, Y+5	; 0x05
    432a:	7e 81       	ldd	r23, Y+6	; 0x06
    432c:	8f 81       	ldd	r24, Y+7	; 0x07
    432e:	98 85       	ldd	r25, Y+8	; 0x08
    4330:	0e 94 76 2d 	call	0x5aec	; 0x5aec <__cmpsf2>
    4334:	88 23       	and	r24, r24
    4336:	2c f4       	brge	.+10     	; 0x4342 <CANSPI_Initialize+0x6a>
		__ticks = 1;
    4338:	81 e0       	ldi	r24, 0x01	; 1
    433a:	90 e0       	ldi	r25, 0x00	; 0
    433c:	9a 87       	std	Y+10, r25	; 0x0a
    433e:	89 87       	std	Y+9, r24	; 0x09
    4340:	3f c0       	rjmp	.+126    	; 0x43c0 <CANSPI_Initialize+0xe8>
	else if (__tmp > 65535)
    4342:	20 e0       	ldi	r18, 0x00	; 0
    4344:	3f ef       	ldi	r19, 0xFF	; 255
    4346:	4f e7       	ldi	r20, 0x7F	; 127
    4348:	57 e4       	ldi	r21, 0x47	; 71
    434a:	6d 81       	ldd	r22, Y+5	; 0x05
    434c:	7e 81       	ldd	r23, Y+6	; 0x06
    434e:	8f 81       	ldd	r24, Y+7	; 0x07
    4350:	98 85       	ldd	r25, Y+8	; 0x08
    4352:	0e 94 d5 2e 	call	0x5daa	; 0x5daa <__gesf2>
    4356:	18 16       	cp	r1, r24
    4358:	4c f5       	brge	.+82     	; 0x43ac <CANSPI_Initialize+0xd4>
	{
		//	__ticks = requested delay in 1/10 ms
		__ticks = (uint16_t) (__ms * 10.0);
    435a:	20 e0       	ldi	r18, 0x00	; 0
    435c:	30 e0       	ldi	r19, 0x00	; 0
    435e:	40 e2       	ldi	r20, 0x20	; 32
    4360:	51 e4       	ldi	r21, 0x41	; 65
    4362:	69 81       	ldd	r22, Y+1	; 0x01
    4364:	7a 81       	ldd	r23, Y+2	; 0x02
    4366:	8b 81       	ldd	r24, Y+3	; 0x03
    4368:	9c 81       	ldd	r25, Y+4	; 0x04
    436a:	0e 94 da 2e 	call	0x5db4	; 0x5db4 <__mulsf3>
    436e:	dc 01       	movw	r26, r24
    4370:	cb 01       	movw	r24, r22
    4372:	bc 01       	movw	r22, r24
    4374:	cd 01       	movw	r24, r26
    4376:	0e 94 f4 2d 	call	0x5be8	; 0x5be8 <__fixunssfsi>
    437a:	dc 01       	movw	r26, r24
    437c:	cb 01       	movw	r24, r22
    437e:	9a 87       	std	Y+10, r25	; 0x0a
    4380:	89 87       	std	Y+9, r24	; 0x09
    4382:	0f c0       	rjmp	.+30     	; 0x43a2 <CANSPI_Initialize+0xca>
    4384:	89 e1       	ldi	r24, 0x19	; 25
    4386:	90 e0       	ldi	r25, 0x00	; 0
    4388:	9c 87       	std	Y+12, r25	; 0x0c
    438a:	8b 87       	std	Y+11, r24	; 0x0b
    milliseconds can be achieved.
 */
void
_delay_loop_2(uint16_t __count)
{
	__asm__ volatile (
    438c:	8b 85       	ldd	r24, Y+11	; 0x0b
    438e:	9c 85       	ldd	r25, Y+12	; 0x0c
    4390:	01 97       	sbiw	r24, 0x01	; 1
    4392:	f1 f7       	brne	.-4      	; 0x4390 <CANSPI_Initialize+0xb8>
    4394:	9c 87       	std	Y+12, r25	; 0x0c
    4396:	8b 87       	std	Y+11, r24	; 0x0b
		while(__ticks)
		{
			// wait 1/10 ms
			_delay_loop_2(((F_CPU) / 4e3) / 10);
			__ticks --;
    4398:	89 85       	ldd	r24, Y+9	; 0x09
    439a:	9a 85       	ldd	r25, Y+10	; 0x0a
    439c:	01 97       	sbiw	r24, 0x01	; 1
    439e:	9a 87       	std	Y+10, r25	; 0x0a
    43a0:	89 87       	std	Y+9, r24	; 0x09
		__ticks = 1;
	else if (__tmp > 65535)
	{
		//	__ticks = requested delay in 1/10 ms
		__ticks = (uint16_t) (__ms * 10.0);
		while(__ticks)
    43a2:	89 85       	ldd	r24, Y+9	; 0x09
    43a4:	9a 85       	ldd	r25, Y+10	; 0x0a
    43a6:	89 2b       	or	r24, r25
    43a8:	69 f7       	brne	.-38     	; 0x4384 <CANSPI_Initialize+0xac>
    43aa:	14 c0       	rjmp	.+40     	; 0x43d4 <CANSPI_Initialize+0xfc>
			__ticks --;
		}
		return;
	}
	else
		__ticks = (uint16_t)__tmp;
    43ac:	6d 81       	ldd	r22, Y+5	; 0x05
    43ae:	7e 81       	ldd	r23, Y+6	; 0x06
    43b0:	8f 81       	ldd	r24, Y+7	; 0x07
    43b2:	98 85       	ldd	r25, Y+8	; 0x08
    43b4:	0e 94 f4 2d 	call	0x5be8	; 0x5be8 <__fixunssfsi>
    43b8:	dc 01       	movw	r26, r24
    43ba:	cb 01       	movw	r24, r22
    43bc:	9a 87       	std	Y+10, r25	; 0x0a
    43be:	89 87       	std	Y+9, r24	; 0x09
    43c0:	89 85       	ldd	r24, Y+9	; 0x09
    43c2:	9a 85       	ldd	r25, Y+10	; 0x0a
    43c4:	9e 87       	std	Y+14, r25	; 0x0e
    43c6:	8d 87       	std	Y+13, r24	; 0x0d
    43c8:	8d 85       	ldd	r24, Y+13	; 0x0d
    43ca:	9e 85       	ldd	r25, Y+14	; 0x0e
    43cc:	01 97       	sbiw	r24, 0x01	; 1
    43ce:	f1 f7       	brne	.-4      	; 0x43cc <CANSPI_Initialize+0xf4>
    43d0:	9e 87       	std	Y+14, r25	; 0x0e
    43d2:	8d 87       	std	Y+13, r24	; 0x0d
  RXF5 RXF5reg;
  RXM0 RXM0reg;
  RXM1 RXM1reg;
      
  /* Initialize Rx Mask values */
  RXM0reg.RXM0SIDH = 0x00;
    43d4:	1f a2       	std	Y+39, r1	; 0x27
  RXM0reg.RXM0SIDL = 0x00;
    43d6:	18 a6       	std	Y+40, r1	; 0x28
  RXM0reg.RXM0EID8 = 0x00;
    43d8:	19 a6       	std	Y+41, r1	; 0x29
  RXM0reg.RXM0EID0 = 0x00;
    43da:	1a a6       	std	Y+42, r1	; 0x2a
  
  RXM1reg.RXM1SIDH = 0x00;
    43dc:	1b a6       	std	Y+43, r1	; 0x2b
  RXM1reg.RXM1SIDL = 0x00;
    43de:	1c a6       	std	Y+44, r1	; 0x2c
  RXM1reg.RXM1EID8 = 0x00;
    43e0:	1d a6       	std	Y+45, r1	; 0x2d
  RXM1reg.RXM1EID0 = 0x00;
    43e2:	1e a6       	std	Y+46, r1	; 0x2e
  
  /* Intialize Rx Filter values */
  RXF0reg.RXF0SIDH = 0x00;      
    43e4:	1f 86       	std	Y+15, r1	; 0x0f
  RXF0reg.RXF0SIDL = 0x00;      //Starndard Filter
    43e6:	18 8a       	std	Y+16, r1	; 0x10
  RXF0reg.RXF0EID8 = 0x00;
    43e8:	19 8a       	std	Y+17, r1	; 0x11
  RXF0reg.RXF0EID0 = 0x00;
    43ea:	1a 8a       	std	Y+18, r1	; 0x12
  
  RXF1reg.RXF1SIDH = 0x00;
    43ec:	1b 8a       	std	Y+19, r1	; 0x13
  RXF1reg.RXF1SIDL = 0x08;      //Exntended Filter
    43ee:	88 e0       	ldi	r24, 0x08	; 8
    43f0:	8c 8b       	std	Y+20, r24	; 0x14
  RXF1reg.RXF1EID8 = 0x00;
    43f2:	1d 8a       	std	Y+21, r1	; 0x15
  RXF1reg.RXF1EID0 = 0x00;
    43f4:	1e 8a       	std	Y+22, r1	; 0x16
  
  RXF2reg.RXF2SIDH = 0x00;
    43f6:	1f 8a       	std	Y+23, r1	; 0x17
  RXF2reg.RXF2SIDL = 0x00;
    43f8:	18 8e       	std	Y+24, r1	; 0x18
  RXF2reg.RXF2EID8 = 0x00;
    43fa:	19 8e       	std	Y+25, r1	; 0x19
  RXF2reg.RXF2EID0 = 0x00;
    43fc:	1a 8e       	std	Y+26, r1	; 0x1a
  
  RXF3reg.RXF3SIDH = 0x00;
    43fe:	1b 8e       	std	Y+27, r1	; 0x1b
  RXF3reg.RXF3SIDL = 0x00;
    4400:	1c 8e       	std	Y+28, r1	; 0x1c
  RXF3reg.RXF3EID8 = 0x00;
    4402:	1d 8e       	std	Y+29, r1	; 0x1d
  RXF3reg.RXF3EID0 = 0x00;
    4404:	1e 8e       	std	Y+30, r1	; 0x1e
  
  RXF4reg.RXF4SIDH = 0x00;
    4406:	1f 8e       	std	Y+31, r1	; 0x1f
  RXF4reg.RXF4SIDL = 0x00;
    4408:	18 a2       	std	Y+32, r1	; 0x20
  RXF4reg.RXF4EID8 = 0x00;
    440a:	19 a2       	std	Y+33, r1	; 0x21
  RXF4reg.RXF4EID0 = 0x00;
    440c:	1a a2       	std	Y+34, r1	; 0x22
  
  RXF5reg.RXF5SIDH = 0x00;
    440e:	1b a2       	std	Y+35, r1	; 0x23
  RXF5reg.RXF5SIDL = 0x08;
    4410:	88 e0       	ldi	r24, 0x08	; 8
    4412:	8c a3       	std	Y+36, r24	; 0x24
  RXF5reg.RXF5EID8 = 0x00;
    4414:	1d a2       	std	Y+37, r1	; 0x25
  RXF5reg.RXF5EID0 = 0x00;
    4416:	1e a2       	std	Y+38, r1	; 0x26
    
  /* Change mode as configuration mode */
  if(!MCP2515_SetConfigMode())
    4418:	0e 94 82 25 	call	0x4b04	; 0x4b04 <MCP2515_SetConfigMode>
    441c:	98 2f       	mov	r25, r24
    441e:	81 e0       	ldi	r24, 0x01	; 1
    4420:	89 27       	eor	r24, r25
    4422:	88 23       	and	r24, r24
    4424:	11 f0       	breq	.+4      	; 0x442a <CANSPI_Initialize+0x152>
  {
    return false;
    4426:	80 e0       	ldi	r24, 0x00	; 0
    4428:	56 c0       	rjmp	.+172    	; 0x44d6 <CANSPI_Initialize+0x1fe>
  }
  
//   /* Configure filter & mask */
  MCP2515_WriteByteSequence(MCP2515_RXM0SIDH, MCP2515_RXM0EID0, &(RXM0reg.RXM0SIDH));
    442a:	ce 01       	movw	r24, r28
    442c:	87 96       	adiw	r24, 0x27	; 39
    442e:	ac 01       	movw	r20, r24
    4430:	63 e2       	ldi	r22, 0x23	; 35
    4432:	80 e2       	ldi	r24, 0x20	; 32
    4434:	0e 94 3d 26 	call	0x4c7a	; 0x4c7a <MCP2515_WriteByteSequence>
  MCP2515_WriteByteSequence(MCP2515_RXM1SIDH, MCP2515_RXM1EID0, &(RXM1reg.RXM1SIDH));
    4438:	ce 01       	movw	r24, r28
    443a:	8b 96       	adiw	r24, 0x2b	; 43
    443c:	ac 01       	movw	r20, r24
    443e:	67 e2       	ldi	r22, 0x27	; 39
    4440:	84 e2       	ldi	r24, 0x24	; 36
    4442:	0e 94 3d 26 	call	0x4c7a	; 0x4c7a <MCP2515_WriteByteSequence>
  MCP2515_WriteByteSequence(MCP2515_RXF0SIDH, MCP2515_RXF0EID0, &(RXF0reg.RXF0SIDH));
    4446:	ce 01       	movw	r24, r28
    4448:	0f 96       	adiw	r24, 0x0f	; 15
    444a:	ac 01       	movw	r20, r24
    444c:	63 e0       	ldi	r22, 0x03	; 3
    444e:	80 e0       	ldi	r24, 0x00	; 0
    4450:	0e 94 3d 26 	call	0x4c7a	; 0x4c7a <MCP2515_WriteByteSequence>
  MCP2515_WriteByteSequence(MCP2515_RXF1SIDH, MCP2515_RXF1EID0, &(RXF1reg.RXF1SIDH));
    4454:	ce 01       	movw	r24, r28
    4456:	43 96       	adiw	r24, 0x13	; 19
    4458:	ac 01       	movw	r20, r24
    445a:	67 e0       	ldi	r22, 0x07	; 7
    445c:	84 e0       	ldi	r24, 0x04	; 4
    445e:	0e 94 3d 26 	call	0x4c7a	; 0x4c7a <MCP2515_WriteByteSequence>
  MCP2515_WriteByteSequence(MCP2515_RXF2SIDH, MCP2515_RXF2EID0, &(RXF2reg.RXF2SIDH));
    4462:	ce 01       	movw	r24, r28
    4464:	47 96       	adiw	r24, 0x17	; 23
    4466:	ac 01       	movw	r20, r24
    4468:	6b e0       	ldi	r22, 0x0B	; 11
    446a:	88 e0       	ldi	r24, 0x08	; 8
    446c:	0e 94 3d 26 	call	0x4c7a	; 0x4c7a <MCP2515_WriteByteSequence>
  MCP2515_WriteByteSequence(MCP2515_RXF3SIDH, MCP2515_RXF3EID0, &(RXF3reg.RXF3SIDH));
    4470:	ce 01       	movw	r24, r28
    4472:	4b 96       	adiw	r24, 0x1b	; 27
    4474:	ac 01       	movw	r20, r24
    4476:	63 e1       	ldi	r22, 0x13	; 19
    4478:	80 e1       	ldi	r24, 0x10	; 16
    447a:	0e 94 3d 26 	call	0x4c7a	; 0x4c7a <MCP2515_WriteByteSequence>
  MCP2515_WriteByteSequence(MCP2515_RXF4SIDH, MCP2515_RXF4EID0, &(RXF4reg.RXF4SIDH));
    447e:	ce 01       	movw	r24, r28
    4480:	4f 96       	adiw	r24, 0x1f	; 31
    4482:	ac 01       	movw	r20, r24
    4484:	67 e1       	ldi	r22, 0x17	; 23
    4486:	84 e1       	ldi	r24, 0x14	; 20
    4488:	0e 94 3d 26 	call	0x4c7a	; 0x4c7a <MCP2515_WriteByteSequence>
  MCP2515_WriteByteSequence(MCP2515_RXF5SIDH, MCP2515_RXF5EID0, &(RXF5reg.RXF5SIDH));
    448c:	ce 01       	movw	r24, r28
    448e:	83 96       	adiw	r24, 0x23	; 35
    4490:	ac 01       	movw	r20, r24
    4492:	6b e1       	ldi	r22, 0x1B	; 27
    4494:	88 e1       	ldi	r24, 0x18	; 24
    4496:	0e 94 3d 26 	call	0x4c7a	; 0x4c7a <MCP2515_WriteByteSequence>
   
//   /* Accept All (Standard + Extended) */
  MCP2515_write(MCP2515_RXB0CTRL, 0x04);    //Enable BUKT, Accept Filter 0
    449a:	64 e0       	ldi	r22, 0x04	; 4
    449c:	80 e6       	ldi	r24, 0x60	; 96
    449e:	0e 94 15 26 	call	0x4c2a	; 0x4c2a <MCP2515_write>
  MCP2515_write(MCP2515_RXB1CTRL, 0x01);    //Accept Filter 1
    44a2:	61 e0       	ldi	r22, 0x01	; 1
    44a4:	80 e7       	ldi	r24, 0x70	; 112
    44a6:	0e 94 15 26 	call	0x4c2a	; 0x4c2a <MCP2515_write>
      
  
  /* 00(SJW 1tq) 000000 */  
  MCP2515_write(MCP2515_CNF1, 0x00);
    44aa:	60 e0       	ldi	r22, 0x00	; 0
    44ac:	8a e2       	ldi	r24, 0x2A	; 42
    44ae:	0e 94 15 26 	call	0x4c2a	; 0x4c2a <MCP2515_write>
  
  /* 1 1 100(5tq) 101(6tq) */  
  MCP2515_write(MCP2515_CNF2, 0xD1);
    44b2:	61 ed       	ldi	r22, 0xD1	; 209
    44b4:	89 e2       	ldi	r24, 0x29	; 41
    44b6:	0e 94 15 26 	call	0x4c2a	; 0x4c2a <MCP2515_write>
  
  /* 1 0 000 011(4tq) */  
  MCP2515_write(MCP2515_CNF3, 0x81);
    44ba:	61 e8       	ldi	r22, 0x81	; 129
    44bc:	88 e2       	ldi	r24, 0x28	; 40
    44be:	0e 94 15 26 	call	0x4c2a	; 0x4c2a <MCP2515_write>
  
  /* Normal Mode*/
  if(!MCP2515_SetNormalMode())
    44c2:	0e 94 61 25 	call	0x4ac2	; 0x4ac2 <MCP2515_SetNormalMode>
    44c6:	98 2f       	mov	r25, r24
    44c8:	81 e0       	ldi	r24, 0x01	; 1
    44ca:	89 27       	eor	r24, r25
    44cc:	88 23       	and	r24, r24
    44ce:	11 f0       	breq	.+4      	; 0x44d4 <CANSPI_Initialize+0x1fc>
  {
	  return false;
    44d0:	80 e0       	ldi	r24, 0x00	; 0
    44d2:	01 c0       	rjmp	.+2      	; 0x44d6 <CANSPI_Initialize+0x1fe>
  }

  return true;
    44d4:	81 e0       	ldi	r24, 0x01	; 1
}
    44d6:	ae 96       	adiw	r28, 0x2e	; 46
    44d8:	0f b6       	in	r0, 0x3f	; 63
    44da:	f8 94       	cli
    44dc:	de bf       	out	0x3e, r29	; 62
    44de:	0f be       	out	0x3f, r0	; 63
    44e0:	cd bf       	out	0x3d, r28	; 61
    44e2:	df 91       	pop	r29
    44e4:	cf 91       	pop	r28
    44e6:	08 95       	ret

000044e8 <CANSPI_Transmit>:

/* Transmit CAN message */
uint8_t CANSPI_Transmit(uCAN_MSG *tempCanMsg)
{
    44e8:	cf 93       	push	r28
    44ea:	df 93       	push	r29
    44ec:	00 d0       	rcall	.+0      	; 0x44ee <CANSPI_Transmit+0x6>
    44ee:	1f 92       	push	r1
    44f0:	cd b7       	in	r28, 0x3d	; 61
    44f2:	de b7       	in	r29, 0x3e	; 62
    44f4:	9b 83       	std	Y+3, r25	; 0x03
    44f6:	8a 83       	std	Y+2, r24	; 0x02
	uint8_t returnValue = 0;
    44f8:	19 82       	std	Y+1, r1	; 0x01
	
	idReg.tempSIDH = 0;
    44fa:	10 92 43 0f 	sts	0x0F43, r1	; 0x800f43 <idReg>
	idReg.tempSIDL = 0;
    44fe:	10 92 44 0f 	sts	0x0F44, r1	; 0x800f44 <idReg+0x1>
	idReg.tempEID8 = 0;
    4502:	10 92 45 0f 	sts	0x0F45, r1	; 0x800f45 <idReg+0x2>
	idReg.tempEID0 = 0;
    4506:	10 92 46 0f 	sts	0x0F46, r1	; 0x800f46 <idReg+0x3>
	
	ctrlStatus.ctrl_status = MCP2515_read_status();
    450a:	0e 94 93 26 	call	0x4d26	; 0x4d26 <MCP2515_read_status>
    450e:	80 93 42 0f 	sts	0x0F42, r24	; 0x800f42 <ctrlStatus>
	
	/* Finding empty buffer */
	if (ctrlStatus.TXB0REQ != 1)
    4512:	80 91 42 0f 	lds	r24, 0x0F42	; 0x800f42 <ctrlStatus>
    4516:	84 70       	andi	r24, 0x04	; 4
    4518:	88 23       	and	r24, r24
    451a:	31 f5       	brne	.+76     	; 0x4568 <CANSPI_Transmit+0x80>
	{
		/* convert CAN ID for register */
		convertCANid2Reg(tempCanMsg->frame.id, tempCanMsg->frame.idType, &idReg);
    451c:	8a 81       	ldd	r24, Y+2	; 0x02
    451e:	9b 81       	ldd	r25, Y+3	; 0x03
    4520:	fc 01       	movw	r30, r24
    4522:	40 81       	ld	r20, Z
    4524:	8a 81       	ldd	r24, Y+2	; 0x02
    4526:	9b 81       	ldd	r25, Y+3	; 0x03
    4528:	fc 01       	movw	r30, r24
    452a:	81 81       	ldd	r24, Z+1	; 0x01
    452c:	92 81       	ldd	r25, Z+2	; 0x02
    452e:	a3 81       	ldd	r26, Z+3	; 0x03
    4530:	b4 81       	ldd	r27, Z+4	; 0x04
    4532:	23 e4       	ldi	r18, 0x43	; 67
    4534:	3f e0       	ldi	r19, 0x0F	; 15
    4536:	bc 01       	movw	r22, r24
    4538:	cd 01       	movw	r24, r26
    453a:	0e 94 ad 24 	call	0x495a	; 0x495a <convertCANid2Reg>
		
		/* Load data to Tx Buffer */
		MCP2515_LoadTxSequence(MCP2515_LOAD_TXB0SIDH, &(idReg.tempSIDH), tempCanMsg->frame.dlc, &(tempCanMsg->frame.data0));
    453e:	8a 81       	ldd	r24, Y+2	; 0x02
    4540:	9b 81       	ldd	r25, Y+3	; 0x03
    4542:	9c 01       	movw	r18, r24
    4544:	2a 5f       	subi	r18, 0xFA	; 250
    4546:	3f 4f       	sbci	r19, 0xFF	; 255
    4548:	8a 81       	ldd	r24, Y+2	; 0x02
    454a:	9b 81       	ldd	r25, Y+3	; 0x03
    454c:	fc 01       	movw	r30, r24
    454e:	85 81       	ldd	r24, Z+5	; 0x05
    4550:	48 2f       	mov	r20, r24
    4552:	63 e4       	ldi	r22, 0x43	; 67
    4554:	7f e0       	ldi	r23, 0x0F	; 15
    4556:	80 e4       	ldi	r24, 0x40	; 64
    4558:	0e 94 d8 26 	call	0x4db0	; 0x4db0 <MCP2515_LoadTxSequence>
		
		/* Request to transmit */
		MCP2515_RequestToSend(MCP2515_RTS_TX0);
    455c:	81 e8       	ldi	r24, 0x81	; 129
    455e:	0e 94 73 26 	call	0x4ce6	; 0x4ce6 <MCP2515_RequestToSend>
		
		returnValue = 1;
    4562:	81 e0       	ldi	r24, 0x01	; 1
    4564:	89 83       	std	Y+1, r24	; 0x01
    4566:	55 c0       	rjmp	.+170    	; 0x4612 <CANSPI_Transmit+0x12a>
	}
	else if (ctrlStatus.TXB1REQ != 1)
    4568:	80 91 42 0f 	lds	r24, 0x0F42	; 0x800f42 <ctrlStatus>
    456c:	80 71       	andi	r24, 0x10	; 16
    456e:	88 23       	and	r24, r24
    4570:	31 f5       	brne	.+76     	; 0x45be <CANSPI_Transmit+0xd6>
	{
		convertCANid2Reg(tempCanMsg->frame.id, tempCanMsg->frame.idType, &idReg);
    4572:	8a 81       	ldd	r24, Y+2	; 0x02
    4574:	9b 81       	ldd	r25, Y+3	; 0x03
    4576:	fc 01       	movw	r30, r24
    4578:	40 81       	ld	r20, Z
    457a:	8a 81       	ldd	r24, Y+2	; 0x02
    457c:	9b 81       	ldd	r25, Y+3	; 0x03
    457e:	fc 01       	movw	r30, r24
    4580:	81 81       	ldd	r24, Z+1	; 0x01
    4582:	92 81       	ldd	r25, Z+2	; 0x02
    4584:	a3 81       	ldd	r26, Z+3	; 0x03
    4586:	b4 81       	ldd	r27, Z+4	; 0x04
    4588:	23 e4       	ldi	r18, 0x43	; 67
    458a:	3f e0       	ldi	r19, 0x0F	; 15
    458c:	bc 01       	movw	r22, r24
    458e:	cd 01       	movw	r24, r26
    4590:	0e 94 ad 24 	call	0x495a	; 0x495a <convertCANid2Reg>
		
		MCP2515_LoadTxSequence(MCP2515_LOAD_TXB1SIDH, &(idReg.tempSIDH), tempCanMsg->frame.dlc, &(tempCanMsg->frame.data0));
    4594:	8a 81       	ldd	r24, Y+2	; 0x02
    4596:	9b 81       	ldd	r25, Y+3	; 0x03
    4598:	9c 01       	movw	r18, r24
    459a:	2a 5f       	subi	r18, 0xFA	; 250
    459c:	3f 4f       	sbci	r19, 0xFF	; 255
    459e:	8a 81       	ldd	r24, Y+2	; 0x02
    45a0:	9b 81       	ldd	r25, Y+3	; 0x03
    45a2:	fc 01       	movw	r30, r24
    45a4:	85 81       	ldd	r24, Z+5	; 0x05
    45a6:	48 2f       	mov	r20, r24
    45a8:	63 e4       	ldi	r22, 0x43	; 67
    45aa:	7f e0       	ldi	r23, 0x0F	; 15
    45ac:	82 e4       	ldi	r24, 0x42	; 66
    45ae:	0e 94 d8 26 	call	0x4db0	; 0x4db0 <MCP2515_LoadTxSequence>
		MCP2515_RequestToSend(MCP2515_RTS_TX1);
    45b2:	82 e8       	ldi	r24, 0x82	; 130
    45b4:	0e 94 73 26 	call	0x4ce6	; 0x4ce6 <MCP2515_RequestToSend>
		
		returnValue = 1;
    45b8:	81 e0       	ldi	r24, 0x01	; 1
    45ba:	89 83       	std	Y+1, r24	; 0x01
    45bc:	2a c0       	rjmp	.+84     	; 0x4612 <CANSPI_Transmit+0x12a>
	}
	else if (ctrlStatus.TXB2REQ != 1)
    45be:	80 91 42 0f 	lds	r24, 0x0F42	; 0x800f42 <ctrlStatus>
    45c2:	80 74       	andi	r24, 0x40	; 64
    45c4:	88 23       	and	r24, r24
    45c6:	29 f5       	brne	.+74     	; 0x4612 <CANSPI_Transmit+0x12a>
	{
		convertCANid2Reg(tempCanMsg->frame.id, tempCanMsg->frame.idType, &idReg);
    45c8:	8a 81       	ldd	r24, Y+2	; 0x02
    45ca:	9b 81       	ldd	r25, Y+3	; 0x03
    45cc:	fc 01       	movw	r30, r24
    45ce:	40 81       	ld	r20, Z
    45d0:	8a 81       	ldd	r24, Y+2	; 0x02
    45d2:	9b 81       	ldd	r25, Y+3	; 0x03
    45d4:	fc 01       	movw	r30, r24
    45d6:	81 81       	ldd	r24, Z+1	; 0x01
    45d8:	92 81       	ldd	r25, Z+2	; 0x02
    45da:	a3 81       	ldd	r26, Z+3	; 0x03
    45dc:	b4 81       	ldd	r27, Z+4	; 0x04
    45de:	23 e4       	ldi	r18, 0x43	; 67
    45e0:	3f e0       	ldi	r19, 0x0F	; 15
    45e2:	bc 01       	movw	r22, r24
    45e4:	cd 01       	movw	r24, r26
    45e6:	0e 94 ad 24 	call	0x495a	; 0x495a <convertCANid2Reg>
		
		MCP2515_LoadTxSequence(MCP2515_LOAD_TXB2SIDH, &(idReg.tempSIDH), tempCanMsg->frame.dlc, &(tempCanMsg->frame.data0));
    45ea:	8a 81       	ldd	r24, Y+2	; 0x02
    45ec:	9b 81       	ldd	r25, Y+3	; 0x03
    45ee:	9c 01       	movw	r18, r24
    45f0:	2a 5f       	subi	r18, 0xFA	; 250
    45f2:	3f 4f       	sbci	r19, 0xFF	; 255
    45f4:	8a 81       	ldd	r24, Y+2	; 0x02
    45f6:	9b 81       	ldd	r25, Y+3	; 0x03
    45f8:	fc 01       	movw	r30, r24
    45fa:	85 81       	ldd	r24, Z+5	; 0x05
    45fc:	48 2f       	mov	r20, r24
    45fe:	63 e4       	ldi	r22, 0x43	; 67
    4600:	7f e0       	ldi	r23, 0x0F	; 15
    4602:	84 e4       	ldi	r24, 0x44	; 68
    4604:	0e 94 d8 26 	call	0x4db0	; 0x4db0 <MCP2515_LoadTxSequence>
		MCP2515_RequestToSend(MCP2515_RTS_TX2);
    4608:	84 e8       	ldi	r24, 0x84	; 132
    460a:	0e 94 73 26 	call	0x4ce6	; 0x4ce6 <MCP2515_RequestToSend>
		
		returnValue = 1;
    460e:	81 e0       	ldi	r24, 0x01	; 1
    4610:	89 83       	std	Y+1, r24	; 0x01
	}
	
	return (returnValue);
    4612:	89 81       	ldd	r24, Y+1	; 0x01
}
    4614:	0f 90       	pop	r0
    4616:	0f 90       	pop	r0
    4618:	0f 90       	pop	r0
    461a:	df 91       	pop	r29
    461c:	cf 91       	pop	r28
    461e:	08 95       	ret

00004620 <CANSPI_Receive>:

/* Receive CAN message */
uint8_t CANSPI_Receive(uCAN_MSG *tempCanMsg)
{
    4620:	cf 93       	push	r28
    4622:	df 93       	push	r29
    4624:	cd b7       	in	r28, 0x3d	; 61
    4626:	de b7       	in	r29, 0x3e	; 62
    4628:	61 97       	sbiw	r28, 0x11	; 17
    462a:	0f b6       	in	r0, 0x3f	; 63
    462c:	f8 94       	cli
    462e:	de bf       	out	0x3e, r29	; 62
    4630:	0f be       	out	0x3f, r0	; 63
    4632:	cd bf       	out	0x3d, r28	; 61
    4634:	99 8b       	std	Y+17, r25	; 0x11
    4636:	88 8b       	std	Y+16, r24	; 0x10
	uint8_t returnValue = 0;
    4638:	19 82       	std	Y+1, r1	; 0x01
	rx_reg_t rxReg;
	ctrl_rx_status_t rxStatus;
	
	rxStatus.ctrl_rx_status = MCP2515_GetRxStatus();
    463a:	0e 94 b6 26 	call	0x4d6c	; 0x4d6c <MCP2515_GetRxStatus>
    463e:	8f 87       	std	Y+15, r24	; 0x0f
	
	/* Check receive buffer */
	if (rxStatus.rxBuffer != 0)
    4640:	8f 85       	ldd	r24, Y+15	; 0x0f
    4642:	80 7c       	andi	r24, 0xC0	; 192
    4644:	88 23       	and	r24, r24
    4646:	09 f4       	brne	.+2      	; 0x464a <CANSPI_Receive+0x2a>
    4648:	80 c0       	rjmp	.+256    	; 0x474a <CANSPI_Receive+0x12a>
	{
		/* finding buffer which has a message */
		if ((rxStatus.rxBuffer == MSG_IN_RXB0)|(rxStatus.rxBuffer == MSG_IN_BOTH_BUFFERS))
    464a:	8f 85       	ldd	r24, Y+15	; 0x0f
    464c:	80 7c       	andi	r24, 0xC0	; 192
    464e:	91 e0       	ldi	r25, 0x01	; 1
    4650:	80 34       	cpi	r24, 0x40	; 64
    4652:	09 f0       	breq	.+2      	; 0x4656 <CANSPI_Receive+0x36>
    4654:	90 e0       	ldi	r25, 0x00	; 0
    4656:	8f 85       	ldd	r24, Y+15	; 0x0f
    4658:	28 2f       	mov	r18, r24
    465a:	20 7c       	andi	r18, 0xC0	; 192
    465c:	81 e0       	ldi	r24, 0x01	; 1
    465e:	20 3c       	cpi	r18, 0xC0	; 192
    4660:	09 f0       	breq	.+2      	; 0x4664 <CANSPI_Receive+0x44>
    4662:	80 e0       	ldi	r24, 0x00	; 0
    4664:	89 2b       	or	r24, r25
    4666:	88 23       	and	r24, r24
    4668:	41 f0       	breq	.+16     	; 0x467a <CANSPI_Receive+0x5a>
		{
			MCP2515_ReadRxSequence(MCP2515_READ_RXB0SIDH, rxReg.rx_reg_array, sizeof(rxReg.rx_reg_array));
    466a:	ce 01       	movw	r24, r28
    466c:	02 96       	adiw	r24, 0x02	; 2
    466e:	4d e0       	ldi	r20, 0x0D	; 13
    4670:	bc 01       	movw	r22, r24
    4672:	80 e9       	ldi	r24, 0x90	; 144
    4674:	0e 94 e9 25 	call	0x4bd2	; 0x4bd2 <MCP2515_ReadRxSequence>
    4678:	0b c0       	rjmp	.+22     	; 0x4690 <CANSPI_Receive+0x70>
		}
		else if (rxStatus.rxBuffer == MSG_IN_RXB1)
    467a:	8f 85       	ldd	r24, Y+15	; 0x0f
    467c:	80 7c       	andi	r24, 0xC0	; 192
    467e:	80 38       	cpi	r24, 0x80	; 128
    4680:	39 f4       	brne	.+14     	; 0x4690 <CANSPI_Receive+0x70>
		{
			MCP2515_ReadRxSequence(MCP2515_READ_RXB1SIDH, rxReg.rx_reg_array, sizeof(rxReg.rx_reg_array));
    4682:	ce 01       	movw	r24, r28
    4684:	02 96       	adiw	r24, 0x02	; 2
    4686:	4d e0       	ldi	r20, 0x0D	; 13
    4688:	bc 01       	movw	r22, r24
    468a:	84 e9       	ldi	r24, 0x94	; 148
    468c:	0e 94 e9 25 	call	0x4bd2	; 0x4bd2 <MCP2515_ReadRxSequence>
		}
		
		/* if the message is extended CAN type */
		if (rxStatus.msgType == dEXTENDED_CAN_MSG_ID_2_0B)
    4690:	8f 85       	ldd	r24, Y+15	; 0x0f
    4692:	88 71       	andi	r24, 0x18	; 24
    4694:	80 31       	cpi	r24, 0x10	; 16
    4696:	b9 f4       	brne	.+46     	; 0x46c6 <CANSPI_Receive+0xa6>
		{
			tempCanMsg->frame.idType = (uint8_t) dEXTENDED_CAN_MSG_ID_2_0B;
    4698:	88 89       	ldd	r24, Y+16	; 0x10
    469a:	99 89       	ldd	r25, Y+17	; 0x11
    469c:	22 e0       	ldi	r18, 0x02	; 2
    469e:	fc 01       	movw	r30, r24
    46a0:	20 83       	st	Z, r18
			tempCanMsg->frame.id = convertReg2ExtendedCANid(rxReg.RXBnEID8, rxReg.RXBnEID0, rxReg.RXBnSIDH, rxReg.RXBnSIDL);
    46a2:	2b 81       	ldd	r18, Y+3	; 0x03
    46a4:	3a 81       	ldd	r19, Y+2	; 0x02
    46a6:	9d 81       	ldd	r25, Y+5	; 0x05
    46a8:	8c 81       	ldd	r24, Y+4	; 0x04
    46aa:	43 2f       	mov	r20, r19
    46ac:	69 2f       	mov	r22, r25
    46ae:	0e 94 af 23 	call	0x475e	; 0x475e <convertReg2ExtendedCANid>
    46b2:	dc 01       	movw	r26, r24
    46b4:	cb 01       	movw	r24, r22
    46b6:	28 89       	ldd	r18, Y+16	; 0x10
    46b8:	39 89       	ldd	r19, Y+17	; 0x11
    46ba:	f9 01       	movw	r30, r18
    46bc:	81 83       	std	Z+1, r24	; 0x01
    46be:	92 83       	std	Z+2, r25	; 0x02
    46c0:	a3 83       	std	Z+3, r26	; 0x03
    46c2:	b4 83       	std	Z+4, r27	; 0x04
    46c4:	13 c0       	rjmp	.+38     	; 0x46ec <CANSPI_Receive+0xcc>
		}
		else
		{
			/* Standard type */
			tempCanMsg->frame.idType = (uint8_t) dSTANDARD_CAN_MSG_ID_2_0B;
    46c6:	88 89       	ldd	r24, Y+16	; 0x10
    46c8:	99 89       	ldd	r25, Y+17	; 0x11
    46ca:	21 e0       	ldi	r18, 0x01	; 1
    46cc:	fc 01       	movw	r30, r24
    46ce:	20 83       	st	Z, r18
			tempCanMsg->frame.id = convertReg2StandardCANid(rxReg.RXBnSIDH, rxReg.RXBnSIDL);
    46d0:	9b 81       	ldd	r25, Y+3	; 0x03
    46d2:	8a 81       	ldd	r24, Y+2	; 0x02
    46d4:	69 2f       	mov	r22, r25
    46d6:	0e 94 61 24 	call	0x48c2	; 0x48c2 <convertReg2StandardCANid>
    46da:	dc 01       	movw	r26, r24
    46dc:	cb 01       	movw	r24, r22
    46de:	28 89       	ldd	r18, Y+16	; 0x10
    46e0:	39 89       	ldd	r19, Y+17	; 0x11
    46e2:	f9 01       	movw	r30, r18
    46e4:	81 83       	std	Z+1, r24	; 0x01
    46e6:	92 83       	std	Z+2, r25	; 0x02
    46e8:	a3 83       	std	Z+3, r26	; 0x03
    46ea:	b4 83       	std	Z+4, r27	; 0x04
		}
		
		tempCanMsg->frame.dlc   = rxReg.RXBnDLC;
    46ec:	2e 81       	ldd	r18, Y+6	; 0x06
    46ee:	88 89       	ldd	r24, Y+16	; 0x10
    46f0:	99 89       	ldd	r25, Y+17	; 0x11
    46f2:	fc 01       	movw	r30, r24
    46f4:	25 83       	std	Z+5, r18	; 0x05
		tempCanMsg->frame.data0 = rxReg.RXBnD0;
    46f6:	2f 81       	ldd	r18, Y+7	; 0x07
    46f8:	88 89       	ldd	r24, Y+16	; 0x10
    46fa:	99 89       	ldd	r25, Y+17	; 0x11
    46fc:	fc 01       	movw	r30, r24
    46fe:	26 83       	std	Z+6, r18	; 0x06
		tempCanMsg->frame.data1 = rxReg.RXBnD1;
    4700:	28 85       	ldd	r18, Y+8	; 0x08
    4702:	88 89       	ldd	r24, Y+16	; 0x10
    4704:	99 89       	ldd	r25, Y+17	; 0x11
    4706:	fc 01       	movw	r30, r24
    4708:	27 83       	std	Z+7, r18	; 0x07
		tempCanMsg->frame.data2 = rxReg.RXBnD2;
    470a:	29 85       	ldd	r18, Y+9	; 0x09
    470c:	88 89       	ldd	r24, Y+16	; 0x10
    470e:	99 89       	ldd	r25, Y+17	; 0x11
    4710:	fc 01       	movw	r30, r24
    4712:	20 87       	std	Z+8, r18	; 0x08
		tempCanMsg->frame.data3 = rxReg.RXBnD3;
    4714:	2a 85       	ldd	r18, Y+10	; 0x0a
    4716:	88 89       	ldd	r24, Y+16	; 0x10
    4718:	99 89       	ldd	r25, Y+17	; 0x11
    471a:	fc 01       	movw	r30, r24
    471c:	21 87       	std	Z+9, r18	; 0x09
		tempCanMsg->frame.data4 = rxReg.RXBnD4;
    471e:	2b 85       	ldd	r18, Y+11	; 0x0b
    4720:	88 89       	ldd	r24, Y+16	; 0x10
    4722:	99 89       	ldd	r25, Y+17	; 0x11
    4724:	fc 01       	movw	r30, r24
    4726:	22 87       	std	Z+10, r18	; 0x0a
		tempCanMsg->frame.data5 = rxReg.RXBnD5;
    4728:	2c 85       	ldd	r18, Y+12	; 0x0c
    472a:	88 89       	ldd	r24, Y+16	; 0x10
    472c:	99 89       	ldd	r25, Y+17	; 0x11
    472e:	fc 01       	movw	r30, r24
    4730:	23 87       	std	Z+11, r18	; 0x0b
		tempCanMsg->frame.data6 = rxReg.RXBnD6;
    4732:	2d 85       	ldd	r18, Y+13	; 0x0d
    4734:	88 89       	ldd	r24, Y+16	; 0x10
    4736:	99 89       	ldd	r25, Y+17	; 0x11
    4738:	fc 01       	movw	r30, r24
    473a:	24 87       	std	Z+12, r18	; 0x0c
		tempCanMsg->frame.data7 = rxReg.RXBnD7;
    473c:	2e 85       	ldd	r18, Y+14	; 0x0e
    473e:	88 89       	ldd	r24, Y+16	; 0x10
    4740:	99 89       	ldd	r25, Y+17	; 0x11
    4742:	fc 01       	movw	r30, r24
    4744:	25 87       	std	Z+13, r18	; 0x0d
		
		returnValue = 1;
    4746:	81 e0       	ldi	r24, 0x01	; 1
    4748:	89 83       	std	Y+1, r24	; 0x01
	}
	
	return (returnValue);
    474a:	89 81       	ldd	r24, Y+1	; 0x01
}
    474c:	61 96       	adiw	r28, 0x11	; 17
    474e:	0f b6       	in	r0, 0x3f	; 63
    4750:	f8 94       	cli
    4752:	de bf       	out	0x3e, r29	; 62
    4754:	0f be       	out	0x3f, r0	; 63
    4756:	cd bf       	out	0x3d, r28	; 61
    4758:	df 91       	pop	r29
    475a:	cf 91       	pop	r28
    475c:	08 95       	ret

0000475e <convertReg2ExtendedCANid>:

/* convert register value to extended CAN ID */
static uint32_t convertReg2ExtendedCANid(uint8_t tempRXBn_EIDH, uint8_t tempRXBn_EIDL, uint8_t tempRXBn_SIDH, uint8_t tempRXBn_SIDL)
{
    475e:	cf 93       	push	r28
    4760:	df 93       	push	r29
    4762:	cd b7       	in	r28, 0x3d	; 61
    4764:	de b7       	in	r29, 0x3e	; 62
    4766:	2e 97       	sbiw	r28, 0x0e	; 14
    4768:	0f b6       	in	r0, 0x3f	; 63
    476a:	f8 94       	cli
    476c:	de bf       	out	0x3e, r29	; 62
    476e:	0f be       	out	0x3f, r0	; 63
    4770:	cd bf       	out	0x3d, r28	; 61
    4772:	8b 87       	std	Y+11, r24	; 0x0b
    4774:	6c 87       	std	Y+12, r22	; 0x0c
    4776:	4d 87       	std	Y+13, r20	; 0x0d
    4778:	2e 87       	std	Y+14, r18	; 0x0e
	uint32_t returnValue = 0;
    477a:	19 82       	std	Y+1, r1	; 0x01
    477c:	1a 82       	std	Y+2, r1	; 0x02
    477e:	1b 82       	std	Y+3, r1	; 0x03
    4780:	1c 82       	std	Y+4, r1	; 0x04
	uint32_t ConvertedID = 0;
    4782:	1d 82       	std	Y+5, r1	; 0x05
    4784:	1e 82       	std	Y+6, r1	; 0x06
    4786:	1f 82       	std	Y+7, r1	; 0x07
    4788:	18 86       	std	Y+8, r1	; 0x08
	uint8_t CAN_standardLo_ID_lo2bits;
	uint8_t CAN_standardLo_ID_hi3bits;
	
	CAN_standardLo_ID_lo2bits = (tempRXBn_SIDL & 0x03);
    478a:	8e 85       	ldd	r24, Y+14	; 0x0e
    478c:	83 70       	andi	r24, 0x03	; 3
    478e:	89 87       	std	Y+9, r24	; 0x09
	CAN_standardLo_ID_hi3bits = (tempRXBn_SIDL >> 5);
    4790:	8e 85       	ldd	r24, Y+14	; 0x0e
    4792:	82 95       	swap	r24
    4794:	86 95       	lsr	r24
    4796:	87 70       	andi	r24, 0x07	; 7
    4798:	8a 87       	std	Y+10, r24	; 0x0a
	ConvertedID = (tempRXBn_SIDH << 3);
    479a:	8d 85       	ldd	r24, Y+13	; 0x0d
    479c:	88 2f       	mov	r24, r24
    479e:	90 e0       	ldi	r25, 0x00	; 0
    47a0:	88 0f       	add	r24, r24
    47a2:	99 1f       	adc	r25, r25
    47a4:	88 0f       	add	r24, r24
    47a6:	99 1f       	adc	r25, r25
    47a8:	88 0f       	add	r24, r24
    47aa:	99 1f       	adc	r25, r25
    47ac:	09 2e       	mov	r0, r25
    47ae:	00 0c       	add	r0, r0
    47b0:	aa 0b       	sbc	r26, r26
    47b2:	bb 0b       	sbc	r27, r27
    47b4:	8d 83       	std	Y+5, r24	; 0x05
    47b6:	9e 83       	std	Y+6, r25	; 0x06
    47b8:	af 83       	std	Y+7, r26	; 0x07
    47ba:	b8 87       	std	Y+8, r27	; 0x08
	ConvertedID = ConvertedID + CAN_standardLo_ID_hi3bits;
    47bc:	8a 85       	ldd	r24, Y+10	; 0x0a
    47be:	88 2f       	mov	r24, r24
    47c0:	90 e0       	ldi	r25, 0x00	; 0
    47c2:	a0 e0       	ldi	r26, 0x00	; 0
    47c4:	b0 e0       	ldi	r27, 0x00	; 0
    47c6:	2d 81       	ldd	r18, Y+5	; 0x05
    47c8:	3e 81       	ldd	r19, Y+6	; 0x06
    47ca:	4f 81       	ldd	r20, Y+7	; 0x07
    47cc:	58 85       	ldd	r21, Y+8	; 0x08
    47ce:	82 0f       	add	r24, r18
    47d0:	93 1f       	adc	r25, r19
    47d2:	a4 1f       	adc	r26, r20
    47d4:	b5 1f       	adc	r27, r21
    47d6:	8d 83       	std	Y+5, r24	; 0x05
    47d8:	9e 83       	std	Y+6, r25	; 0x06
    47da:	af 83       	std	Y+7, r26	; 0x07
    47dc:	b8 87       	std	Y+8, r27	; 0x08
	ConvertedID = (ConvertedID << 2);
    47de:	8d 81       	ldd	r24, Y+5	; 0x05
    47e0:	9e 81       	ldd	r25, Y+6	; 0x06
    47e2:	af 81       	ldd	r26, Y+7	; 0x07
    47e4:	b8 85       	ldd	r27, Y+8	; 0x08
    47e6:	88 0f       	add	r24, r24
    47e8:	99 1f       	adc	r25, r25
    47ea:	aa 1f       	adc	r26, r26
    47ec:	bb 1f       	adc	r27, r27
    47ee:	88 0f       	add	r24, r24
    47f0:	99 1f       	adc	r25, r25
    47f2:	aa 1f       	adc	r26, r26
    47f4:	bb 1f       	adc	r27, r27
    47f6:	8d 83       	std	Y+5, r24	; 0x05
    47f8:	9e 83       	std	Y+6, r25	; 0x06
    47fa:	af 83       	std	Y+7, r26	; 0x07
    47fc:	b8 87       	std	Y+8, r27	; 0x08
	ConvertedID = ConvertedID + CAN_standardLo_ID_lo2bits;
    47fe:	89 85       	ldd	r24, Y+9	; 0x09
    4800:	88 2f       	mov	r24, r24
    4802:	90 e0       	ldi	r25, 0x00	; 0
    4804:	a0 e0       	ldi	r26, 0x00	; 0
    4806:	b0 e0       	ldi	r27, 0x00	; 0
    4808:	2d 81       	ldd	r18, Y+5	; 0x05
    480a:	3e 81       	ldd	r19, Y+6	; 0x06
    480c:	4f 81       	ldd	r20, Y+7	; 0x07
    480e:	58 85       	ldd	r21, Y+8	; 0x08
    4810:	82 0f       	add	r24, r18
    4812:	93 1f       	adc	r25, r19
    4814:	a4 1f       	adc	r26, r20
    4816:	b5 1f       	adc	r27, r21
    4818:	8d 83       	std	Y+5, r24	; 0x05
    481a:	9e 83       	std	Y+6, r25	; 0x06
    481c:	af 83       	std	Y+7, r26	; 0x07
    481e:	b8 87       	std	Y+8, r27	; 0x08
	ConvertedID = (ConvertedID << 8);
    4820:	8d 81       	ldd	r24, Y+5	; 0x05
    4822:	9e 81       	ldd	r25, Y+6	; 0x06
    4824:	af 81       	ldd	r26, Y+7	; 0x07
    4826:	b8 85       	ldd	r27, Y+8	; 0x08
    4828:	ba 2f       	mov	r27, r26
    482a:	a9 2f       	mov	r26, r25
    482c:	98 2f       	mov	r25, r24
    482e:	88 27       	eor	r24, r24
    4830:	8d 83       	std	Y+5, r24	; 0x05
    4832:	9e 83       	std	Y+6, r25	; 0x06
    4834:	af 83       	std	Y+7, r26	; 0x07
    4836:	b8 87       	std	Y+8, r27	; 0x08
	ConvertedID = ConvertedID + tempRXBn_EIDH;
    4838:	8b 85       	ldd	r24, Y+11	; 0x0b
    483a:	88 2f       	mov	r24, r24
    483c:	90 e0       	ldi	r25, 0x00	; 0
    483e:	a0 e0       	ldi	r26, 0x00	; 0
    4840:	b0 e0       	ldi	r27, 0x00	; 0
    4842:	2d 81       	ldd	r18, Y+5	; 0x05
    4844:	3e 81       	ldd	r19, Y+6	; 0x06
    4846:	4f 81       	ldd	r20, Y+7	; 0x07
    4848:	58 85       	ldd	r21, Y+8	; 0x08
    484a:	82 0f       	add	r24, r18
    484c:	93 1f       	adc	r25, r19
    484e:	a4 1f       	adc	r26, r20
    4850:	b5 1f       	adc	r27, r21
    4852:	8d 83       	std	Y+5, r24	; 0x05
    4854:	9e 83       	std	Y+6, r25	; 0x06
    4856:	af 83       	std	Y+7, r26	; 0x07
    4858:	b8 87       	std	Y+8, r27	; 0x08
	ConvertedID = (ConvertedID << 8);
    485a:	8d 81       	ldd	r24, Y+5	; 0x05
    485c:	9e 81       	ldd	r25, Y+6	; 0x06
    485e:	af 81       	ldd	r26, Y+7	; 0x07
    4860:	b8 85       	ldd	r27, Y+8	; 0x08
    4862:	ba 2f       	mov	r27, r26
    4864:	a9 2f       	mov	r26, r25
    4866:	98 2f       	mov	r25, r24
    4868:	88 27       	eor	r24, r24
    486a:	8d 83       	std	Y+5, r24	; 0x05
    486c:	9e 83       	std	Y+6, r25	; 0x06
    486e:	af 83       	std	Y+7, r26	; 0x07
    4870:	b8 87       	std	Y+8, r27	; 0x08
	ConvertedID = ConvertedID + tempRXBn_EIDL;
    4872:	8c 85       	ldd	r24, Y+12	; 0x0c
    4874:	88 2f       	mov	r24, r24
    4876:	90 e0       	ldi	r25, 0x00	; 0
    4878:	a0 e0       	ldi	r26, 0x00	; 0
    487a:	b0 e0       	ldi	r27, 0x00	; 0
    487c:	2d 81       	ldd	r18, Y+5	; 0x05
    487e:	3e 81       	ldd	r19, Y+6	; 0x06
    4880:	4f 81       	ldd	r20, Y+7	; 0x07
    4882:	58 85       	ldd	r21, Y+8	; 0x08
    4884:	82 0f       	add	r24, r18
    4886:	93 1f       	adc	r25, r19
    4888:	a4 1f       	adc	r26, r20
    488a:	b5 1f       	adc	r27, r21
    488c:	8d 83       	std	Y+5, r24	; 0x05
    488e:	9e 83       	std	Y+6, r25	; 0x06
    4890:	af 83       	std	Y+7, r26	; 0x07
    4892:	b8 87       	std	Y+8, r27	; 0x08
	returnValue = ConvertedID;
    4894:	8d 81       	ldd	r24, Y+5	; 0x05
    4896:	9e 81       	ldd	r25, Y+6	; 0x06
    4898:	af 81       	ldd	r26, Y+7	; 0x07
    489a:	b8 85       	ldd	r27, Y+8	; 0x08
    489c:	89 83       	std	Y+1, r24	; 0x01
    489e:	9a 83       	std	Y+2, r25	; 0x02
    48a0:	ab 83       	std	Y+3, r26	; 0x03
    48a2:	bc 83       	std	Y+4, r27	; 0x04
	return (returnValue);
    48a4:	89 81       	ldd	r24, Y+1	; 0x01
    48a6:	9a 81       	ldd	r25, Y+2	; 0x02
    48a8:	ab 81       	ldd	r26, Y+3	; 0x03
    48aa:	bc 81       	ldd	r27, Y+4	; 0x04
}
    48ac:	bc 01       	movw	r22, r24
    48ae:	cd 01       	movw	r24, r26
    48b0:	2e 96       	adiw	r28, 0x0e	; 14
    48b2:	0f b6       	in	r0, 0x3f	; 63
    48b4:	f8 94       	cli
    48b6:	de bf       	out	0x3e, r29	; 62
    48b8:	0f be       	out	0x3f, r0	; 63
    48ba:	cd bf       	out	0x3d, r28	; 61
    48bc:	df 91       	pop	r29
    48be:	cf 91       	pop	r28
    48c0:	08 95       	ret

000048c2 <convertReg2StandardCANid>:

/* convert register value to standard CAN ID */
static uint32_t convertReg2StandardCANid(uint8_t tempRXBn_SIDH, uint8_t tempRXBn_SIDL)
{
    48c2:	cf 93       	push	r28
    48c4:	df 93       	push	r29
    48c6:	cd b7       	in	r28, 0x3d	; 61
    48c8:	de b7       	in	r29, 0x3e	; 62
    48ca:	2a 97       	sbiw	r28, 0x0a	; 10
    48cc:	0f b6       	in	r0, 0x3f	; 63
    48ce:	f8 94       	cli
    48d0:	de bf       	out	0x3e, r29	; 62
    48d2:	0f be       	out	0x3f, r0	; 63
    48d4:	cd bf       	out	0x3d, r28	; 61
    48d6:	89 87       	std	Y+9, r24	; 0x09
    48d8:	6a 87       	std	Y+10, r22	; 0x0a
	uint32_t returnValue = 0;
    48da:	19 82       	std	Y+1, r1	; 0x01
    48dc:	1a 82       	std	Y+2, r1	; 0x02
    48de:	1b 82       	std	Y+3, r1	; 0x03
    48e0:	1c 82       	std	Y+4, r1	; 0x04
	uint32_t ConvertedID;
	
	ConvertedID = (tempRXBn_SIDH << 3);
    48e2:	89 85       	ldd	r24, Y+9	; 0x09
    48e4:	88 2f       	mov	r24, r24
    48e6:	90 e0       	ldi	r25, 0x00	; 0
    48e8:	88 0f       	add	r24, r24
    48ea:	99 1f       	adc	r25, r25
    48ec:	88 0f       	add	r24, r24
    48ee:	99 1f       	adc	r25, r25
    48f0:	88 0f       	add	r24, r24
    48f2:	99 1f       	adc	r25, r25
    48f4:	09 2e       	mov	r0, r25
    48f6:	00 0c       	add	r0, r0
    48f8:	aa 0b       	sbc	r26, r26
    48fa:	bb 0b       	sbc	r27, r27
    48fc:	8d 83       	std	Y+5, r24	; 0x05
    48fe:	9e 83       	std	Y+6, r25	; 0x06
    4900:	af 83       	std	Y+7, r26	; 0x07
    4902:	b8 87       	std	Y+8, r27	; 0x08
	ConvertedID = ConvertedID + (tempRXBn_SIDL >> 5);
    4904:	8a 85       	ldd	r24, Y+10	; 0x0a
    4906:	82 95       	swap	r24
    4908:	86 95       	lsr	r24
    490a:	87 70       	andi	r24, 0x07	; 7
    490c:	88 2f       	mov	r24, r24
    490e:	90 e0       	ldi	r25, 0x00	; 0
    4910:	a0 e0       	ldi	r26, 0x00	; 0
    4912:	b0 e0       	ldi	r27, 0x00	; 0
    4914:	2d 81       	ldd	r18, Y+5	; 0x05
    4916:	3e 81       	ldd	r19, Y+6	; 0x06
    4918:	4f 81       	ldd	r20, Y+7	; 0x07
    491a:	58 85       	ldd	r21, Y+8	; 0x08
    491c:	82 0f       	add	r24, r18
    491e:	93 1f       	adc	r25, r19
    4920:	a4 1f       	adc	r26, r20
    4922:	b5 1f       	adc	r27, r21
    4924:	8d 83       	std	Y+5, r24	; 0x05
    4926:	9e 83       	std	Y+6, r25	; 0x06
    4928:	af 83       	std	Y+7, r26	; 0x07
    492a:	b8 87       	std	Y+8, r27	; 0x08
	returnValue = ConvertedID;
    492c:	8d 81       	ldd	r24, Y+5	; 0x05
    492e:	9e 81       	ldd	r25, Y+6	; 0x06
    4930:	af 81       	ldd	r26, Y+7	; 0x07
    4932:	b8 85       	ldd	r27, Y+8	; 0x08
    4934:	89 83       	std	Y+1, r24	; 0x01
    4936:	9a 83       	std	Y+2, r25	; 0x02
    4938:	ab 83       	std	Y+3, r26	; 0x03
    493a:	bc 83       	std	Y+4, r27	; 0x04
	
	return (returnValue);
    493c:	89 81       	ldd	r24, Y+1	; 0x01
    493e:	9a 81       	ldd	r25, Y+2	; 0x02
    4940:	ab 81       	ldd	r26, Y+3	; 0x03
    4942:	bc 81       	ldd	r27, Y+4	; 0x04
}
    4944:	bc 01       	movw	r22, r24
    4946:	cd 01       	movw	r24, r26
    4948:	2a 96       	adiw	r28, 0x0a	; 10
    494a:	0f b6       	in	r0, 0x3f	; 63
    494c:	f8 94       	cli
    494e:	de bf       	out	0x3e, r29	; 62
    4950:	0f be       	out	0x3f, r0	; 63
    4952:	cd bf       	out	0x3d, r28	; 61
    4954:	df 91       	pop	r29
    4956:	cf 91       	pop	r28
    4958:	08 95       	ret

0000495a <convertCANid2Reg>:

/* convert CAN ID to register value */
static void convertCANid2Reg(uint32_t tempPassedInID, uint8_t canIdType, id_reg_t *passedIdReg)
{
    495a:	cf 93       	push	r28
    495c:	df 93       	push	r29
    495e:	cd b7       	in	r28, 0x3d	; 61
    4960:	de b7       	in	r29, 0x3e	; 62
    4962:	28 97       	sbiw	r28, 0x08	; 8
    4964:	0f b6       	in	r0, 0x3f	; 63
    4966:	f8 94       	cli
    4968:	de bf       	out	0x3e, r29	; 62
    496a:	0f be       	out	0x3f, r0	; 63
    496c:	cd bf       	out	0x3d, r28	; 61
    496e:	6a 83       	std	Y+2, r22	; 0x02
    4970:	7b 83       	std	Y+3, r23	; 0x03
    4972:	8c 83       	std	Y+4, r24	; 0x04
    4974:	9d 83       	std	Y+5, r25	; 0x05
    4976:	4e 83       	std	Y+6, r20	; 0x06
    4978:	38 87       	std	Y+8, r19	; 0x08
    497a:	2f 83       	std	Y+7, r18	; 0x07
	uint8_t wipSIDL = 0;
    497c:	19 82       	std	Y+1, r1	; 0x01
	
	if (canIdType == dEXTENDED_CAN_MSG_ID_2_0B)
    497e:	8e 81       	ldd	r24, Y+6	; 0x06
    4980:	82 30       	cpi	r24, 0x02	; 2
    4982:	09 f0       	breq	.+2      	; 0x4986 <convertCANid2Reg+0x2c>
    4984:	5a c0       	rjmp	.+180    	; 0x4a3a <convertCANid2Reg+0xe0>
	{
		//EID0
		passedIdReg->tempEID0 = 0xFF & tempPassedInID;
    4986:	2a 81       	ldd	r18, Y+2	; 0x02
    4988:	8f 81       	ldd	r24, Y+7	; 0x07
    498a:	98 85       	ldd	r25, Y+8	; 0x08
    498c:	fc 01       	movw	r30, r24
    498e:	23 83       	std	Z+3, r18	; 0x03
		tempPassedInID = tempPassedInID >> 8;
    4990:	8a 81       	ldd	r24, Y+2	; 0x02
    4992:	9b 81       	ldd	r25, Y+3	; 0x03
    4994:	ac 81       	ldd	r26, Y+4	; 0x04
    4996:	bd 81       	ldd	r27, Y+5	; 0x05
    4998:	89 2f       	mov	r24, r25
    499a:	9a 2f       	mov	r25, r26
    499c:	ab 2f       	mov	r26, r27
    499e:	bb 27       	eor	r27, r27
    49a0:	8a 83       	std	Y+2, r24	; 0x02
    49a2:	9b 83       	std	Y+3, r25	; 0x03
    49a4:	ac 83       	std	Y+4, r26	; 0x04
    49a6:	bd 83       	std	Y+5, r27	; 0x05
		
		//EID8
		passedIdReg->tempEID8 = 0xFF & tempPassedInID;
    49a8:	2a 81       	ldd	r18, Y+2	; 0x02
    49aa:	8f 81       	ldd	r24, Y+7	; 0x07
    49ac:	98 85       	ldd	r25, Y+8	; 0x08
    49ae:	fc 01       	movw	r30, r24
    49b0:	22 83       	std	Z+2, r18	; 0x02
		tempPassedInID = tempPassedInID >> 8;
    49b2:	8a 81       	ldd	r24, Y+2	; 0x02
    49b4:	9b 81       	ldd	r25, Y+3	; 0x03
    49b6:	ac 81       	ldd	r26, Y+4	; 0x04
    49b8:	bd 81       	ldd	r27, Y+5	; 0x05
    49ba:	89 2f       	mov	r24, r25
    49bc:	9a 2f       	mov	r25, r26
    49be:	ab 2f       	mov	r26, r27
    49c0:	bb 27       	eor	r27, r27
    49c2:	8a 83       	std	Y+2, r24	; 0x02
    49c4:	9b 83       	std	Y+3, r25	; 0x03
    49c6:	ac 83       	std	Y+4, r26	; 0x04
    49c8:	bd 83       	std	Y+5, r27	; 0x05
		
		//SIDL
		wipSIDL = 0x03 & tempPassedInID;
    49ca:	8a 81       	ldd	r24, Y+2	; 0x02
    49cc:	83 70       	andi	r24, 0x03	; 3
    49ce:	89 83       	std	Y+1, r24	; 0x01
		tempPassedInID = tempPassedInID << 3;
    49d0:	8a 81       	ldd	r24, Y+2	; 0x02
    49d2:	9b 81       	ldd	r25, Y+3	; 0x03
    49d4:	ac 81       	ldd	r26, Y+4	; 0x04
    49d6:	bd 81       	ldd	r27, Y+5	; 0x05
    49d8:	88 0f       	add	r24, r24
    49da:	99 1f       	adc	r25, r25
    49dc:	aa 1f       	adc	r26, r26
    49de:	bb 1f       	adc	r27, r27
    49e0:	88 0f       	add	r24, r24
    49e2:	99 1f       	adc	r25, r25
    49e4:	aa 1f       	adc	r26, r26
    49e6:	bb 1f       	adc	r27, r27
    49e8:	88 0f       	add	r24, r24
    49ea:	99 1f       	adc	r25, r25
    49ec:	aa 1f       	adc	r26, r26
    49ee:	bb 1f       	adc	r27, r27
    49f0:	8a 83       	std	Y+2, r24	; 0x02
    49f2:	9b 83       	std	Y+3, r25	; 0x03
    49f4:	ac 83       	std	Y+4, r26	; 0x04
    49f6:	bd 83       	std	Y+5, r27	; 0x05
		wipSIDL = (0xE0 & tempPassedInID) + wipSIDL;
    49f8:	8a 81       	ldd	r24, Y+2	; 0x02
    49fa:	80 7e       	andi	r24, 0xE0	; 224
    49fc:	99 81       	ldd	r25, Y+1	; 0x01
    49fe:	89 0f       	add	r24, r25
    4a00:	89 83       	std	Y+1, r24	; 0x01
		wipSIDL = wipSIDL + 0x08;
    4a02:	89 81       	ldd	r24, Y+1	; 0x01
    4a04:	88 5f       	subi	r24, 0xF8	; 248
    4a06:	89 83       	std	Y+1, r24	; 0x01
		passedIdReg->tempSIDL = 0xEB & wipSIDL;
    4a08:	89 81       	ldd	r24, Y+1	; 0x01
    4a0a:	28 2f       	mov	r18, r24
    4a0c:	2b 7e       	andi	r18, 0xEB	; 235
    4a0e:	8f 81       	ldd	r24, Y+7	; 0x07
    4a10:	98 85       	ldd	r25, Y+8	; 0x08
    4a12:	fc 01       	movw	r30, r24
    4a14:	21 83       	std	Z+1, r18	; 0x01
		
		//SIDH
		tempPassedInID = tempPassedInID >> 8;
    4a16:	8a 81       	ldd	r24, Y+2	; 0x02
    4a18:	9b 81       	ldd	r25, Y+3	; 0x03
    4a1a:	ac 81       	ldd	r26, Y+4	; 0x04
    4a1c:	bd 81       	ldd	r27, Y+5	; 0x05
    4a1e:	89 2f       	mov	r24, r25
    4a20:	9a 2f       	mov	r25, r26
    4a22:	ab 2f       	mov	r26, r27
    4a24:	bb 27       	eor	r27, r27
    4a26:	8a 83       	std	Y+2, r24	; 0x02
    4a28:	9b 83       	std	Y+3, r25	; 0x03
    4a2a:	ac 83       	std	Y+4, r26	; 0x04
    4a2c:	bd 83       	std	Y+5, r27	; 0x05
		passedIdReg->tempSIDH = 0xFF & tempPassedInID;
    4a2e:	2a 81       	ldd	r18, Y+2	; 0x02
    4a30:	8f 81       	ldd	r24, Y+7	; 0x07
    4a32:	98 85       	ldd	r25, Y+8	; 0x08
    4a34:	fc 01       	movw	r30, r24
    4a36:	20 83       	st	Z, r18
		tempPassedInID = tempPassedInID << 5;
		passedIdReg->tempSIDL = 0xFF & tempPassedInID;
		tempPassedInID = tempPassedInID >> 8;
		passedIdReg->tempSIDH = 0xFF & tempPassedInID;
	}
    4a38:	3a c0       	rjmp	.+116    	; 0x4aae <convertCANid2Reg+0x154>
		tempPassedInID = tempPassedInID >> 8;
		passedIdReg->tempSIDH = 0xFF & tempPassedInID;
	}
	else
	{
		passedIdReg->tempEID8 = 0;
    4a3a:	8f 81       	ldd	r24, Y+7	; 0x07
    4a3c:	98 85       	ldd	r25, Y+8	; 0x08
    4a3e:	fc 01       	movw	r30, r24
    4a40:	12 82       	std	Z+2, r1	; 0x02
		passedIdReg->tempEID0 = 0;
    4a42:	8f 81       	ldd	r24, Y+7	; 0x07
    4a44:	98 85       	ldd	r25, Y+8	; 0x08
    4a46:	fc 01       	movw	r30, r24
    4a48:	13 82       	std	Z+3, r1	; 0x03
		tempPassedInID = tempPassedInID << 5;
    4a4a:	8a 81       	ldd	r24, Y+2	; 0x02
    4a4c:	9b 81       	ldd	r25, Y+3	; 0x03
    4a4e:	ac 81       	ldd	r26, Y+4	; 0x04
    4a50:	bd 81       	ldd	r27, Y+5	; 0x05
    4a52:	88 0f       	add	r24, r24
    4a54:	99 1f       	adc	r25, r25
    4a56:	aa 1f       	adc	r26, r26
    4a58:	bb 1f       	adc	r27, r27
    4a5a:	88 0f       	add	r24, r24
    4a5c:	99 1f       	adc	r25, r25
    4a5e:	aa 1f       	adc	r26, r26
    4a60:	bb 1f       	adc	r27, r27
    4a62:	88 0f       	add	r24, r24
    4a64:	99 1f       	adc	r25, r25
    4a66:	aa 1f       	adc	r26, r26
    4a68:	bb 1f       	adc	r27, r27
    4a6a:	88 0f       	add	r24, r24
    4a6c:	99 1f       	adc	r25, r25
    4a6e:	aa 1f       	adc	r26, r26
    4a70:	bb 1f       	adc	r27, r27
    4a72:	88 0f       	add	r24, r24
    4a74:	99 1f       	adc	r25, r25
    4a76:	aa 1f       	adc	r26, r26
    4a78:	bb 1f       	adc	r27, r27
    4a7a:	8a 83       	std	Y+2, r24	; 0x02
    4a7c:	9b 83       	std	Y+3, r25	; 0x03
    4a7e:	ac 83       	std	Y+4, r26	; 0x04
    4a80:	bd 83       	std	Y+5, r27	; 0x05
		passedIdReg->tempSIDL = 0xFF & tempPassedInID;
    4a82:	2a 81       	ldd	r18, Y+2	; 0x02
    4a84:	8f 81       	ldd	r24, Y+7	; 0x07
    4a86:	98 85       	ldd	r25, Y+8	; 0x08
    4a88:	fc 01       	movw	r30, r24
    4a8a:	21 83       	std	Z+1, r18	; 0x01
		tempPassedInID = tempPassedInID >> 8;
    4a8c:	8a 81       	ldd	r24, Y+2	; 0x02
    4a8e:	9b 81       	ldd	r25, Y+3	; 0x03
    4a90:	ac 81       	ldd	r26, Y+4	; 0x04
    4a92:	bd 81       	ldd	r27, Y+5	; 0x05
    4a94:	89 2f       	mov	r24, r25
    4a96:	9a 2f       	mov	r25, r26
    4a98:	ab 2f       	mov	r26, r27
    4a9a:	bb 27       	eor	r27, r27
    4a9c:	8a 83       	std	Y+2, r24	; 0x02
    4a9e:	9b 83       	std	Y+3, r25	; 0x03
    4aa0:	ac 83       	std	Y+4, r26	; 0x04
    4aa2:	bd 83       	std	Y+5, r27	; 0x05
		passedIdReg->tempSIDH = 0xFF & tempPassedInID;
    4aa4:	2a 81       	ldd	r18, Y+2	; 0x02
    4aa6:	8f 81       	ldd	r24, Y+7	; 0x07
    4aa8:	98 85       	ldd	r25, Y+8	; 0x08
    4aaa:	fc 01       	movw	r30, r24
    4aac:	20 83       	st	Z, r18
	}
    4aae:	00 00       	nop
    4ab0:	28 96       	adiw	r28, 0x08	; 8
    4ab2:	0f b6       	in	r0, 0x3f	; 63
    4ab4:	f8 94       	cli
    4ab6:	de bf       	out	0x3e, r29	; 62
    4ab8:	0f be       	out	0x3f, r0	; 63
    4aba:	cd bf       	out	0x3d, r28	; 61
    4abc:	df 91       	pop	r29
    4abe:	cf 91       	pop	r28
    4ac0:	08 95       	ret

00004ac2 <MCP2515_SetNormalMode>:
	SPI_SendByte(address);
	SPI_SendByte(mask);
	SPI_SendByte(data);
	
	MCP2515_CS_HIGH();
}
    4ac2:	cf 93       	push	r28
    4ac4:	df 93       	push	r29
    4ac6:	1f 92       	push	r1
    4ac8:	cd b7       	in	r28, 0x3d	; 61
    4aca:	de b7       	in	r29, 0x3e	; 62
    4acc:	60 e0       	ldi	r22, 0x00	; 0
    4ace:	8f e0       	ldi	r24, 0x0F	; 15
    4ad0:	0e 94 15 26 	call	0x4c2a	; 0x4c2a <MCP2515_write>
    4ad4:	8a e0       	ldi	r24, 0x0A	; 10
    4ad6:	89 83       	std	Y+1, r24	; 0x01
    4ad8:	8e e0       	ldi	r24, 0x0E	; 14
    4ada:	0e 94 c1 25 	call	0x4b82	; 0x4b82 <MCP2515_read>
    4ade:	88 2f       	mov	r24, r24
    4ae0:	90 e0       	ldi	r25, 0x00	; 0
    4ae2:	80 7e       	andi	r24, 0xE0	; 224
    4ae4:	99 27       	eor	r25, r25
    4ae6:	89 2b       	or	r24, r25
    4ae8:	11 f4       	brne	.+4      	; 0x4aee <MCP2515_SetNormalMode+0x2c>
    4aea:	81 e0       	ldi	r24, 0x01	; 1
    4aec:	07 c0       	rjmp	.+14     	; 0x4afc <MCP2515_SetNormalMode+0x3a>
    4aee:	89 81       	ldd	r24, Y+1	; 0x01
    4af0:	81 50       	subi	r24, 0x01	; 1
    4af2:	89 83       	std	Y+1, r24	; 0x01
    4af4:	89 81       	ldd	r24, Y+1	; 0x01
    4af6:	88 23       	and	r24, r24
    4af8:	79 f7       	brne	.-34     	; 0x4ad8 <MCP2515_SetNormalMode+0x16>
    4afa:	80 e0       	ldi	r24, 0x00	; 0
    4afc:	0f 90       	pop	r0
    4afe:	df 91       	pop	r29
    4b00:	cf 91       	pop	r28
    4b02:	08 95       	ret

00004b04 <MCP2515_SetConfigMode>:
    4b04:	cf 93       	push	r28
    4b06:	df 93       	push	r29
    4b08:	1f 92       	push	r1
    4b0a:	cd b7       	in	r28, 0x3d	; 61
    4b0c:	de b7       	in	r29, 0x3e	; 62
    4b0e:	60 e8       	ldi	r22, 0x80	; 128
    4b10:	8f e0       	ldi	r24, 0x0F	; 15
    4b12:	0e 94 15 26 	call	0x4c2a	; 0x4c2a <MCP2515_write>
    4b16:	8a e0       	ldi	r24, 0x0A	; 10
    4b18:	89 83       	std	Y+1, r24	; 0x01
    4b1a:	8e e0       	ldi	r24, 0x0E	; 14
    4b1c:	0e 94 c1 25 	call	0x4b82	; 0x4b82 <MCP2515_read>
    4b20:	88 2f       	mov	r24, r24
    4b22:	90 e0       	ldi	r25, 0x00	; 0
    4b24:	80 7e       	andi	r24, 0xE0	; 224
    4b26:	99 27       	eor	r25, r25
    4b28:	80 38       	cpi	r24, 0x80	; 128
    4b2a:	91 05       	cpc	r25, r1
    4b2c:	11 f4       	brne	.+4      	; 0x4b32 <MCP2515_SetConfigMode+0x2e>
    4b2e:	81 e0       	ldi	r24, 0x01	; 1
    4b30:	07 c0       	rjmp	.+14     	; 0x4b40 <MCP2515_SetConfigMode+0x3c>
    4b32:	89 81       	ldd	r24, Y+1	; 0x01
    4b34:	81 50       	subi	r24, 0x01	; 1
    4b36:	89 83       	std	Y+1, r24	; 0x01
    4b38:	89 81       	ldd	r24, Y+1	; 0x01
    4b3a:	88 23       	and	r24, r24
    4b3c:	71 f7       	brne	.-36     	; 0x4b1a <MCP2515_SetConfigMode+0x16>
    4b3e:	80 e0       	ldi	r24, 0x00	; 0
    4b40:	0f 90       	pop	r0
    4b42:	df 91       	pop	r29
    4b44:	cf 91       	pop	r28
    4b46:	08 95       	ret

00004b48 <MCP2515_reset>:
    4b48:	cf 93       	push	r28
    4b4a:	df 93       	push	r29
    4b4c:	cd b7       	in	r28, 0x3d	; 61
    4b4e:	de b7       	in	r29, 0x3e	; 62
    4b50:	88 e3       	ldi	r24, 0x38	; 56
    4b52:	90 e0       	ldi	r25, 0x00	; 0
    4b54:	28 e3       	ldi	r18, 0x38	; 56
    4b56:	30 e0       	ldi	r19, 0x00	; 0
    4b58:	f9 01       	movw	r30, r18
    4b5a:	20 81       	ld	r18, Z
    4b5c:	2e 7f       	andi	r18, 0xFE	; 254
    4b5e:	fc 01       	movw	r30, r24
    4b60:	20 83       	st	Z, r18
    4b62:	80 ec       	ldi	r24, 0xC0	; 192
    4b64:	0e 94 ec 15 	call	0x2bd8	; 0x2bd8 <SPI_SendByte>
    4b68:	88 e3       	ldi	r24, 0x38	; 56
    4b6a:	90 e0       	ldi	r25, 0x00	; 0
    4b6c:	28 e3       	ldi	r18, 0x38	; 56
    4b6e:	30 e0       	ldi	r19, 0x00	; 0
    4b70:	f9 01       	movw	r30, r18
    4b72:	20 81       	ld	r18, Z
    4b74:	21 60       	ori	r18, 0x01	; 1
    4b76:	fc 01       	movw	r30, r24
    4b78:	20 83       	st	Z, r18
    4b7a:	00 00       	nop
    4b7c:	df 91       	pop	r29
    4b7e:	cf 91       	pop	r28
    4b80:	08 95       	ret

00004b82 <MCP2515_read>:
    4b82:	cf 93       	push	r28
    4b84:	df 93       	push	r29
    4b86:	00 d0       	rcall	.+0      	; 0x4b88 <MCP2515_read+0x6>
    4b88:	cd b7       	in	r28, 0x3d	; 61
    4b8a:	de b7       	in	r29, 0x3e	; 62
    4b8c:	8a 83       	std	Y+2, r24	; 0x02
    4b8e:	88 e3       	ldi	r24, 0x38	; 56
    4b90:	90 e0       	ldi	r25, 0x00	; 0
    4b92:	28 e3       	ldi	r18, 0x38	; 56
    4b94:	30 e0       	ldi	r19, 0x00	; 0
    4b96:	f9 01       	movw	r30, r18
    4b98:	20 81       	ld	r18, Z
    4b9a:	2e 7f       	andi	r18, 0xFE	; 254
    4b9c:	fc 01       	movw	r30, r24
    4b9e:	20 83       	st	Z, r18
    4ba0:	83 e0       	ldi	r24, 0x03	; 3
    4ba2:	0e 94 ec 15 	call	0x2bd8	; 0x2bd8 <SPI_SendByte>
    4ba6:	8a 81       	ldd	r24, Y+2	; 0x02
    4ba8:	0e 94 ec 15 	call	0x2bd8	; 0x2bd8 <SPI_SendByte>
    4bac:	80 e0       	ldi	r24, 0x00	; 0
    4bae:	0e 94 ec 15 	call	0x2bd8	; 0x2bd8 <SPI_SendByte>
    4bb2:	89 83       	std	Y+1, r24	; 0x01
    4bb4:	88 e3       	ldi	r24, 0x38	; 56
    4bb6:	90 e0       	ldi	r25, 0x00	; 0
    4bb8:	28 e3       	ldi	r18, 0x38	; 56
    4bba:	30 e0       	ldi	r19, 0x00	; 0
    4bbc:	f9 01       	movw	r30, r18
    4bbe:	20 81       	ld	r18, Z
    4bc0:	21 60       	ori	r18, 0x01	; 1
    4bc2:	fc 01       	movw	r30, r24
    4bc4:	20 83       	st	Z, r18
    4bc6:	89 81       	ldd	r24, Y+1	; 0x01
    4bc8:	0f 90       	pop	r0
    4bca:	0f 90       	pop	r0
    4bcc:	df 91       	pop	r29
    4bce:	cf 91       	pop	r28
    4bd0:	08 95       	ret

00004bd2 <MCP2515_ReadRxSequence>:
    4bd2:	cf 93       	push	r28
    4bd4:	df 93       	push	r29
    4bd6:	00 d0       	rcall	.+0      	; 0x4bd8 <MCP2515_ReadRxSequence+0x6>
    4bd8:	00 d0       	rcall	.+0      	; 0x4bda <MCP2515_ReadRxSequence+0x8>
    4bda:	cd b7       	in	r28, 0x3d	; 61
    4bdc:	de b7       	in	r29, 0x3e	; 62
    4bde:	89 83       	std	Y+1, r24	; 0x01
    4be0:	7b 83       	std	Y+3, r23	; 0x03
    4be2:	6a 83       	std	Y+2, r22	; 0x02
    4be4:	4c 83       	std	Y+4, r20	; 0x04
    4be6:	88 e3       	ldi	r24, 0x38	; 56
    4be8:	90 e0       	ldi	r25, 0x00	; 0
    4bea:	28 e3       	ldi	r18, 0x38	; 56
    4bec:	30 e0       	ldi	r19, 0x00	; 0
    4bee:	f9 01       	movw	r30, r18
    4bf0:	20 81       	ld	r18, Z
    4bf2:	2e 7f       	andi	r18, 0xFE	; 254
    4bf4:	fc 01       	movw	r30, r24
    4bf6:	20 83       	st	Z, r18
    4bf8:	89 81       	ldd	r24, Y+1	; 0x01
    4bfa:	0e 94 ec 15 	call	0x2bd8	; 0x2bd8 <SPI_SendByte>
    4bfe:	8a 81       	ldd	r24, Y+2	; 0x02
    4c00:	9b 81       	ldd	r25, Y+3	; 0x03
    4c02:	6c 81       	ldd	r22, Y+4	; 0x04
    4c04:	0e 94 1d 16 	call	0x2c3a	; 0x2c3a <SPI_RxBuffer>
    4c08:	88 e3       	ldi	r24, 0x38	; 56
    4c0a:	90 e0       	ldi	r25, 0x00	; 0
    4c0c:	28 e3       	ldi	r18, 0x38	; 56
    4c0e:	30 e0       	ldi	r19, 0x00	; 0
    4c10:	f9 01       	movw	r30, r18
    4c12:	20 81       	ld	r18, Z
    4c14:	21 60       	ori	r18, 0x01	; 1
    4c16:	fc 01       	movw	r30, r24
    4c18:	20 83       	st	Z, r18
    4c1a:	00 00       	nop
    4c1c:	0f 90       	pop	r0
    4c1e:	0f 90       	pop	r0
    4c20:	0f 90       	pop	r0
    4c22:	0f 90       	pop	r0
    4c24:	df 91       	pop	r29
    4c26:	cf 91       	pop	r28
    4c28:	08 95       	ret

00004c2a <MCP2515_write>:
    4c2a:	cf 93       	push	r28
    4c2c:	df 93       	push	r29
    4c2e:	00 d0       	rcall	.+0      	; 0x4c30 <MCP2515_write+0x6>
    4c30:	cd b7       	in	r28, 0x3d	; 61
    4c32:	de b7       	in	r29, 0x3e	; 62
    4c34:	89 83       	std	Y+1, r24	; 0x01
    4c36:	6a 83       	std	Y+2, r22	; 0x02
    4c38:	88 e3       	ldi	r24, 0x38	; 56
    4c3a:	90 e0       	ldi	r25, 0x00	; 0
    4c3c:	28 e3       	ldi	r18, 0x38	; 56
    4c3e:	30 e0       	ldi	r19, 0x00	; 0
    4c40:	f9 01       	movw	r30, r18
    4c42:	20 81       	ld	r18, Z
    4c44:	2e 7f       	andi	r18, 0xFE	; 254
    4c46:	fc 01       	movw	r30, r24
    4c48:	20 83       	st	Z, r18
    4c4a:	82 e0       	ldi	r24, 0x02	; 2
    4c4c:	0e 94 ec 15 	call	0x2bd8	; 0x2bd8 <SPI_SendByte>
    4c50:	89 81       	ldd	r24, Y+1	; 0x01
    4c52:	0e 94 ec 15 	call	0x2bd8	; 0x2bd8 <SPI_SendByte>
    4c56:	8a 81       	ldd	r24, Y+2	; 0x02
    4c58:	0e 94 ec 15 	call	0x2bd8	; 0x2bd8 <SPI_SendByte>
    4c5c:	88 e3       	ldi	r24, 0x38	; 56
    4c5e:	90 e0       	ldi	r25, 0x00	; 0
    4c60:	28 e3       	ldi	r18, 0x38	; 56
    4c62:	30 e0       	ldi	r19, 0x00	; 0
    4c64:	f9 01       	movw	r30, r18
    4c66:	20 81       	ld	r18, Z
    4c68:	21 60       	ori	r18, 0x01	; 1
    4c6a:	fc 01       	movw	r30, r24
    4c6c:	20 83       	st	Z, r18
    4c6e:	00 00       	nop
    4c70:	0f 90       	pop	r0
    4c72:	0f 90       	pop	r0
    4c74:	df 91       	pop	r29
    4c76:	cf 91       	pop	r28
    4c78:	08 95       	ret

00004c7a <MCP2515_WriteByteSequence>:
    4c7a:	cf 93       	push	r28
    4c7c:	df 93       	push	r29
    4c7e:	00 d0       	rcall	.+0      	; 0x4c80 <MCP2515_WriteByteSequence+0x6>
    4c80:	00 d0       	rcall	.+0      	; 0x4c82 <MCP2515_WriteByteSequence+0x8>
    4c82:	cd b7       	in	r28, 0x3d	; 61
    4c84:	de b7       	in	r29, 0x3e	; 62
    4c86:	89 83       	std	Y+1, r24	; 0x01
    4c88:	6a 83       	std	Y+2, r22	; 0x02
    4c8a:	5c 83       	std	Y+4, r21	; 0x04
    4c8c:	4b 83       	std	Y+3, r20	; 0x03
    4c8e:	88 e3       	ldi	r24, 0x38	; 56
    4c90:	90 e0       	ldi	r25, 0x00	; 0
    4c92:	28 e3       	ldi	r18, 0x38	; 56
    4c94:	30 e0       	ldi	r19, 0x00	; 0
    4c96:	f9 01       	movw	r30, r18
    4c98:	20 81       	ld	r18, Z
    4c9a:	2e 7f       	andi	r18, 0xFE	; 254
    4c9c:	fc 01       	movw	r30, r24
    4c9e:	20 83       	st	Z, r18
    4ca0:	82 e0       	ldi	r24, 0x02	; 2
    4ca2:	0e 94 ec 15 	call	0x2bd8	; 0x2bd8 <SPI_SendByte>
    4ca6:	89 81       	ldd	r24, Y+1	; 0x01
    4ca8:	0e 94 ec 15 	call	0x2bd8	; 0x2bd8 <SPI_SendByte>
    4cac:	9a 81       	ldd	r25, Y+2	; 0x02
    4cae:	89 81       	ldd	r24, Y+1	; 0x01
    4cb0:	f9 2f       	mov	r31, r25
    4cb2:	f8 1b       	sub	r31, r24
    4cb4:	8f 2f       	mov	r24, r31
    4cb6:	21 e0       	ldi	r18, 0x01	; 1
    4cb8:	28 0f       	add	r18, r24
    4cba:	8b 81       	ldd	r24, Y+3	; 0x03
    4cbc:	9c 81       	ldd	r25, Y+4	; 0x04
    4cbe:	62 2f       	mov	r22, r18
    4cc0:	0e 94 61 17 	call	0x2ec2	; 0x2ec2 <SPI_TxBuffer>
    4cc4:	88 e3       	ldi	r24, 0x38	; 56
    4cc6:	90 e0       	ldi	r25, 0x00	; 0
    4cc8:	28 e3       	ldi	r18, 0x38	; 56
    4cca:	30 e0       	ldi	r19, 0x00	; 0
    4ccc:	f9 01       	movw	r30, r18
    4cce:	20 81       	ld	r18, Z
    4cd0:	21 60       	ori	r18, 0x01	; 1
    4cd2:	fc 01       	movw	r30, r24
    4cd4:	20 83       	st	Z, r18
    4cd6:	00 00       	nop
    4cd8:	0f 90       	pop	r0
    4cda:	0f 90       	pop	r0
    4cdc:	0f 90       	pop	r0
    4cde:	0f 90       	pop	r0
    4ce0:	df 91       	pop	r29
    4ce2:	cf 91       	pop	r28
    4ce4:	08 95       	ret

00004ce6 <MCP2515_RequestToSend>:
    4ce6:	cf 93       	push	r28
    4ce8:	df 93       	push	r29
    4cea:	1f 92       	push	r1
    4cec:	cd b7       	in	r28, 0x3d	; 61
    4cee:	de b7       	in	r29, 0x3e	; 62
    4cf0:	89 83       	std	Y+1, r24	; 0x01
    4cf2:	88 e3       	ldi	r24, 0x38	; 56
    4cf4:	90 e0       	ldi	r25, 0x00	; 0
    4cf6:	28 e3       	ldi	r18, 0x38	; 56
    4cf8:	30 e0       	ldi	r19, 0x00	; 0
    4cfa:	f9 01       	movw	r30, r18
    4cfc:	20 81       	ld	r18, Z
    4cfe:	2e 7f       	andi	r18, 0xFE	; 254
    4d00:	fc 01       	movw	r30, r24
    4d02:	20 83       	st	Z, r18
    4d04:	89 81       	ldd	r24, Y+1	; 0x01
    4d06:	0e 94 ec 15 	call	0x2bd8	; 0x2bd8 <SPI_SendByte>
    4d0a:	88 e3       	ldi	r24, 0x38	; 56
    4d0c:	90 e0       	ldi	r25, 0x00	; 0
    4d0e:	28 e3       	ldi	r18, 0x38	; 56
    4d10:	30 e0       	ldi	r19, 0x00	; 0
    4d12:	f9 01       	movw	r30, r18
    4d14:	20 81       	ld	r18, Z
    4d16:	21 60       	ori	r18, 0x01	; 1
    4d18:	fc 01       	movw	r30, r24
    4d1a:	20 83       	st	Z, r18
    4d1c:	00 00       	nop
    4d1e:	0f 90       	pop	r0
    4d20:	df 91       	pop	r29
    4d22:	cf 91       	pop	r28
    4d24:	08 95       	ret

00004d26 <MCP2515_read_status>:
    4d26:	cf 93       	push	r28
    4d28:	df 93       	push	r29
    4d2a:	1f 92       	push	r1
    4d2c:	cd b7       	in	r28, 0x3d	; 61
    4d2e:	de b7       	in	r29, 0x3e	; 62
    4d30:	88 e3       	ldi	r24, 0x38	; 56
    4d32:	90 e0       	ldi	r25, 0x00	; 0
    4d34:	28 e3       	ldi	r18, 0x38	; 56
    4d36:	30 e0       	ldi	r19, 0x00	; 0
    4d38:	f9 01       	movw	r30, r18
    4d3a:	20 81       	ld	r18, Z
    4d3c:	2e 7f       	andi	r18, 0xFE	; 254
    4d3e:	fc 01       	movw	r30, r24
    4d40:	20 83       	st	Z, r18
    4d42:	80 ea       	ldi	r24, 0xA0	; 160
    4d44:	0e 94 ec 15 	call	0x2bd8	; 0x2bd8 <SPI_SendByte>
    4d48:	80 e0       	ldi	r24, 0x00	; 0
    4d4a:	0e 94 ec 15 	call	0x2bd8	; 0x2bd8 <SPI_SendByte>
    4d4e:	89 83       	std	Y+1, r24	; 0x01
    4d50:	88 e3       	ldi	r24, 0x38	; 56
    4d52:	90 e0       	ldi	r25, 0x00	; 0
    4d54:	28 e3       	ldi	r18, 0x38	; 56
    4d56:	30 e0       	ldi	r19, 0x00	; 0
    4d58:	f9 01       	movw	r30, r18
    4d5a:	20 81       	ld	r18, Z
    4d5c:	21 60       	ori	r18, 0x01	; 1
    4d5e:	fc 01       	movw	r30, r24
    4d60:	20 83       	st	Z, r18
    4d62:	89 81       	ldd	r24, Y+1	; 0x01
    4d64:	0f 90       	pop	r0
    4d66:	df 91       	pop	r29
    4d68:	cf 91       	pop	r28
    4d6a:	08 95       	ret

00004d6c <MCP2515_GetRxStatus>:
    4d6c:	cf 93       	push	r28
    4d6e:	df 93       	push	r29
    4d70:	1f 92       	push	r1
    4d72:	cd b7       	in	r28, 0x3d	; 61
    4d74:	de b7       	in	r29, 0x3e	; 62
    4d76:	88 e3       	ldi	r24, 0x38	; 56
    4d78:	90 e0       	ldi	r25, 0x00	; 0
    4d7a:	28 e3       	ldi	r18, 0x38	; 56
    4d7c:	30 e0       	ldi	r19, 0x00	; 0
    4d7e:	f9 01       	movw	r30, r18
    4d80:	20 81       	ld	r18, Z
    4d82:	2e 7f       	andi	r18, 0xFE	; 254
    4d84:	fc 01       	movw	r30, r24
    4d86:	20 83       	st	Z, r18
    4d88:	80 eb       	ldi	r24, 0xB0	; 176
    4d8a:	0e 94 ec 15 	call	0x2bd8	; 0x2bd8 <SPI_SendByte>
    4d8e:	0e 94 06 16 	call	0x2c0c	; 0x2c0c <SPI_ReadByte>
    4d92:	89 83       	std	Y+1, r24	; 0x01
    4d94:	88 e3       	ldi	r24, 0x38	; 56
    4d96:	90 e0       	ldi	r25, 0x00	; 0
    4d98:	28 e3       	ldi	r18, 0x38	; 56
    4d9a:	30 e0       	ldi	r19, 0x00	; 0
    4d9c:	f9 01       	movw	r30, r18
    4d9e:	20 81       	ld	r18, Z
    4da0:	21 60       	ori	r18, 0x01	; 1
    4da2:	fc 01       	movw	r30, r24
    4da4:	20 83       	st	Z, r18
    4da6:	89 81       	ldd	r24, Y+1	; 0x01
    4da8:	0f 90       	pop	r0
    4daa:	df 91       	pop	r29
    4dac:	cf 91       	pop	r28
    4dae:	08 95       	ret

00004db0 <MCP2515_LoadTxSequence>:

/* write to TxBuffer */
void MCP2515_LoadTxSequence(uint8_t instruction, uint8_t *idReg, uint8_t dlc, uint8_t *data)
{
    4db0:	cf 93       	push	r28
    4db2:	df 93       	push	r29
    4db4:	00 d0       	rcall	.+0      	; 0x4db6 <MCP2515_LoadTxSequence+0x6>
    4db6:	00 d0       	rcall	.+0      	; 0x4db8 <MCP2515_LoadTxSequence+0x8>
    4db8:	00 d0       	rcall	.+0      	; 0x4dba <MCP2515_LoadTxSequence+0xa>
    4dba:	cd b7       	in	r28, 0x3d	; 61
    4dbc:	de b7       	in	r29, 0x3e	; 62
    4dbe:	89 83       	std	Y+1, r24	; 0x01
    4dc0:	7b 83       	std	Y+3, r23	; 0x03
    4dc2:	6a 83       	std	Y+2, r22	; 0x02
    4dc4:	4c 83       	std	Y+4, r20	; 0x04
    4dc6:	3e 83       	std	Y+6, r19	; 0x06
    4dc8:	2d 83       	std	Y+5, r18	; 0x05
	MCP2515_CS_LOW();
    4dca:	88 e3       	ldi	r24, 0x38	; 56
    4dcc:	90 e0       	ldi	r25, 0x00	; 0
    4dce:	28 e3       	ldi	r18, 0x38	; 56
    4dd0:	30 e0       	ldi	r19, 0x00	; 0
    4dd2:	f9 01       	movw	r30, r18
    4dd4:	20 81       	ld	r18, Z
    4dd6:	2e 7f       	andi	r18, 0xFE	; 254
    4dd8:	fc 01       	movw	r30, r24
    4dda:	20 83       	st	Z, r18
	
	SPI_SendByte(instruction);
    4ddc:	89 81       	ldd	r24, Y+1	; 0x01
    4dde:	0e 94 ec 15 	call	0x2bd8	; 0x2bd8 <SPI_SendByte>
	SPI_TxBuffer(idReg, 4);
    4de2:	8a 81       	ldd	r24, Y+2	; 0x02
    4de4:	9b 81       	ldd	r25, Y+3	; 0x03
    4de6:	64 e0       	ldi	r22, 0x04	; 4
    4de8:	0e 94 61 17 	call	0x2ec2	; 0x2ec2 <SPI_TxBuffer>
	SPI_SendByte(dlc);
    4dec:	8c 81       	ldd	r24, Y+4	; 0x04
    4dee:	0e 94 ec 15 	call	0x2bd8	; 0x2bd8 <SPI_SendByte>
	SPI_TxBuffer(data, dlc);
    4df2:	8d 81       	ldd	r24, Y+5	; 0x05
    4df4:	9e 81       	ldd	r25, Y+6	; 0x06
    4df6:	6c 81       	ldd	r22, Y+4	; 0x04
    4df8:	0e 94 61 17 	call	0x2ec2	; 0x2ec2 <SPI_TxBuffer>
	
	MCP2515_CS_HIGH();
    4dfc:	88 e3       	ldi	r24, 0x38	; 56
    4dfe:	90 e0       	ldi	r25, 0x00	; 0
    4e00:	28 e3       	ldi	r18, 0x38	; 56
    4e02:	30 e0       	ldi	r19, 0x00	; 0
    4e04:	f9 01       	movw	r30, r18
    4e06:	20 81       	ld	r18, Z
    4e08:	21 60       	ori	r18, 0x01	; 1
    4e0a:	fc 01       	movw	r30, r24
    4e0c:	20 83       	st	Z, r18
    4e0e:	00 00       	nop
    4e10:	26 96       	adiw	r28, 0x06	; 6
    4e12:	0f b6       	in	r0, 0x3f	; 63
    4e14:	f8 94       	cli
    4e16:	de bf       	out	0x3e, r29	; 62
    4e18:	0f be       	out	0x3f, r0	; 63
    4e1a:	cd bf       	out	0x3d, r28	; 61
    4e1c:	df 91       	pop	r29
    4e1e:	cf 91       	pop	r28
    4e20:	08 95       	ret

00004e22 <MCP4291_AssertSS>:
		SPI_Init();
}

// Assert the SS line
void MCP4291_AssertSS(uint8_t CS_line)
{
    4e22:	cf 93       	push	r28
    4e24:	df 93       	push	r29
    4e26:	1f 92       	push	r1
    4e28:	cd b7       	in	r28, 0x3d	; 61
    4e2a:	de b7       	in	r29, 0x3e	; 62
    4e2c:	89 83       	std	Y+1, r24	; 0x01
	switch (CS_line)
    4e2e:	89 81       	ldd	r24, Y+1	; 0x01
    4e30:	88 2f       	mov	r24, r24
    4e32:	90 e0       	ldi	r25, 0x00	; 0
    4e34:	81 30       	cpi	r24, 0x01	; 1
    4e36:	91 05       	cpc	r25, r1
    4e38:	b1 f0       	breq	.+44     	; 0x4e66 <MCP4291_AssertSS+0x44>
    4e3a:	82 30       	cpi	r24, 0x02	; 2
    4e3c:	91 05       	cpc	r25, r1
    4e3e:	1c f4       	brge	.+6      	; 0x4e46 <MCP4291_AssertSS+0x24>
    4e40:	89 2b       	or	r24, r25
    4e42:	39 f0       	breq	.+14     	; 0x4e52 <MCP4291_AssertSS+0x30>
		case 3:
			MCP4921_SS3_PORT &= ~(1 << MCP4921_SS3_PIN);
			break;
	}

}
    4e44:	2e c0       	rjmp	.+92     	; 0x4ea2 <MCP4291_AssertSS+0x80>
}

// Assert the SS line
void MCP4291_AssertSS(uint8_t CS_line)
{
	switch (CS_line)
    4e46:	82 30       	cpi	r24, 0x02	; 2
    4e48:	91 05       	cpc	r25, r1
    4e4a:	b9 f0       	breq	.+46     	; 0x4e7a <MCP4291_AssertSS+0x58>
    4e4c:	03 97       	sbiw	r24, 0x03	; 3
    4e4e:	f9 f0       	breq	.+62     	; 0x4e8e <MCP4291_AssertSS+0x6c>
		case 3:
			MCP4921_SS3_PORT &= ~(1 << MCP4921_SS3_PIN);
			break;
	}

}
    4e50:	28 c0       	rjmp	.+80     	; 0x4ea2 <MCP4291_AssertSS+0x80>
void MCP4291_AssertSS(uint8_t CS_line)
{
	switch (CS_line)
	{
		case 0:
			MCP4921_SS0_PORT &= ~(1 << MCP4921_SS0_PIN);
    4e52:	88 e3       	ldi	r24, 0x38	; 56
    4e54:	90 e0       	ldi	r25, 0x00	; 0
    4e56:	28 e3       	ldi	r18, 0x38	; 56
    4e58:	30 e0       	ldi	r19, 0x00	; 0
    4e5a:	f9 01       	movw	r30, r18
    4e5c:	20 81       	ld	r18, Z
    4e5e:	2f 7e       	andi	r18, 0xEF	; 239
    4e60:	fc 01       	movw	r30, r24
    4e62:	20 83       	st	Z, r18
			break;
    4e64:	1e c0       	rjmp	.+60     	; 0x4ea2 <MCP4291_AssertSS+0x80>
		case 1:
			MCP4921_SS1_PORT &= ~(1 << MCP4921_SS1_PIN);
    4e66:	82 e3       	ldi	r24, 0x32	; 50
    4e68:	90 e0       	ldi	r25, 0x00	; 0
    4e6a:	22 e3       	ldi	r18, 0x32	; 50
    4e6c:	30 e0       	ldi	r19, 0x00	; 0
    4e6e:	f9 01       	movw	r30, r18
    4e70:	20 81       	ld	r18, Z
    4e72:	2f 7b       	andi	r18, 0xBF	; 191
    4e74:	fc 01       	movw	r30, r24
    4e76:	20 83       	st	Z, r18
			break;
    4e78:	14 c0       	rjmp	.+40     	; 0x4ea2 <MCP4291_AssertSS+0x80>
		case 2:
			MCP4921_SS2_PORT &= ~(1 << MCP4921_SS2_PIN);
    4e7a:	85 e3       	ldi	r24, 0x35	; 53
    4e7c:	90 e0       	ldi	r25, 0x00	; 0
    4e7e:	25 e3       	ldi	r18, 0x35	; 53
    4e80:	30 e0       	ldi	r19, 0x00	; 0
    4e82:	f9 01       	movw	r30, r18
    4e84:	20 81       	ld	r18, Z
    4e86:	2f 7e       	andi	r18, 0xEF	; 239
    4e88:	fc 01       	movw	r30, r24
    4e8a:	20 83       	st	Z, r18
			break;
    4e8c:	0a c0       	rjmp	.+20     	; 0x4ea2 <MCP4291_AssertSS+0x80>
		case 3:
			MCP4921_SS3_PORT &= ~(1 << MCP4921_SS3_PIN);
    4e8e:	85 e3       	ldi	r24, 0x35	; 53
    4e90:	90 e0       	ldi	r25, 0x00	; 0
    4e92:	25 e3       	ldi	r18, 0x35	; 53
    4e94:	30 e0       	ldi	r19, 0x00	; 0
    4e96:	f9 01       	movw	r30, r18
    4e98:	20 81       	ld	r18, Z
    4e9a:	2f 7d       	andi	r18, 0xDF	; 223
    4e9c:	fc 01       	movw	r30, r24
    4e9e:	20 83       	st	Z, r18
			break;
    4ea0:	00 00       	nop
	}

}
    4ea2:	00 00       	nop
    4ea4:	0f 90       	pop	r0
    4ea6:	df 91       	pop	r29
    4ea8:	cf 91       	pop	r28
    4eaa:	08 95       	ret

00004eac <MCP4291_DeassertSS>:

// Deassert the SS line
void MCP4291_DeassertSS(uint8_t CS_line)
{
    4eac:	cf 93       	push	r28
    4eae:	df 93       	push	r29
    4eb0:	1f 92       	push	r1
    4eb2:	cd b7       	in	r28, 0x3d	; 61
    4eb4:	de b7       	in	r29, 0x3e	; 62
    4eb6:	89 83       	std	Y+1, r24	; 0x01
	switch (CS_line)
    4eb8:	89 81       	ldd	r24, Y+1	; 0x01
    4eba:	88 2f       	mov	r24, r24
    4ebc:	90 e0       	ldi	r25, 0x00	; 0
    4ebe:	81 30       	cpi	r24, 0x01	; 1
    4ec0:	91 05       	cpc	r25, r1
    4ec2:	b1 f0       	breq	.+44     	; 0x4ef0 <MCP4291_DeassertSS+0x44>
    4ec4:	82 30       	cpi	r24, 0x02	; 2
    4ec6:	91 05       	cpc	r25, r1
    4ec8:	1c f4       	brge	.+6      	; 0x4ed0 <MCP4291_DeassertSS+0x24>
    4eca:	89 2b       	or	r24, r25
    4ecc:	39 f0       	breq	.+14     	; 0x4edc <MCP4291_DeassertSS+0x30>
			break;
		case 3:
			MCP4921_SS3_PORT |= (1 << MCP4921_SS3_PIN);
			break;
	}
}
    4ece:	2e c0       	rjmp	.+92     	; 0x4f2c <MCP4291_DeassertSS+0x80>
}

// Deassert the SS line
void MCP4291_DeassertSS(uint8_t CS_line)
{
	switch (CS_line)
    4ed0:	82 30       	cpi	r24, 0x02	; 2
    4ed2:	91 05       	cpc	r25, r1
    4ed4:	b9 f0       	breq	.+46     	; 0x4f04 <MCP4291_DeassertSS+0x58>
    4ed6:	03 97       	sbiw	r24, 0x03	; 3
    4ed8:	f9 f0       	breq	.+62     	; 0x4f18 <MCP4291_DeassertSS+0x6c>
			break;
		case 3:
			MCP4921_SS3_PORT |= (1 << MCP4921_SS3_PIN);
			break;
	}
}
    4eda:	28 c0       	rjmp	.+80     	; 0x4f2c <MCP4291_DeassertSS+0x80>
void MCP4291_DeassertSS(uint8_t CS_line)
{
	switch (CS_line)
	{
		case 0:
			MCP4921_SS0_PORT |= (1 << MCP4921_SS0_PIN);
    4edc:	88 e3       	ldi	r24, 0x38	; 56
    4ede:	90 e0       	ldi	r25, 0x00	; 0
    4ee0:	28 e3       	ldi	r18, 0x38	; 56
    4ee2:	30 e0       	ldi	r19, 0x00	; 0
    4ee4:	f9 01       	movw	r30, r18
    4ee6:	20 81       	ld	r18, Z
    4ee8:	20 61       	ori	r18, 0x10	; 16
    4eea:	fc 01       	movw	r30, r24
    4eec:	20 83       	st	Z, r18
			break;
    4eee:	1e c0       	rjmp	.+60     	; 0x4f2c <MCP4291_DeassertSS+0x80>
		case 1:
			MCP4921_SS1_PORT |= (1 << MCP4921_SS1_PIN);
    4ef0:	82 e3       	ldi	r24, 0x32	; 50
    4ef2:	90 e0       	ldi	r25, 0x00	; 0
    4ef4:	22 e3       	ldi	r18, 0x32	; 50
    4ef6:	30 e0       	ldi	r19, 0x00	; 0
    4ef8:	f9 01       	movw	r30, r18
    4efa:	20 81       	ld	r18, Z
    4efc:	20 64       	ori	r18, 0x40	; 64
    4efe:	fc 01       	movw	r30, r24
    4f00:	20 83       	st	Z, r18
			break;
    4f02:	14 c0       	rjmp	.+40     	; 0x4f2c <MCP4291_DeassertSS+0x80>
		case 2:
			MCP4921_SS2_PORT |= (1 << MCP4921_SS2_PIN);
    4f04:	85 e3       	ldi	r24, 0x35	; 53
    4f06:	90 e0       	ldi	r25, 0x00	; 0
    4f08:	25 e3       	ldi	r18, 0x35	; 53
    4f0a:	30 e0       	ldi	r19, 0x00	; 0
    4f0c:	f9 01       	movw	r30, r18
    4f0e:	20 81       	ld	r18, Z
    4f10:	20 61       	ori	r18, 0x10	; 16
    4f12:	fc 01       	movw	r30, r24
    4f14:	20 83       	st	Z, r18
			break;
    4f16:	0a c0       	rjmp	.+20     	; 0x4f2c <MCP4291_DeassertSS+0x80>
		case 3:
			MCP4921_SS3_PORT |= (1 << MCP4921_SS3_PIN);
    4f18:	85 e3       	ldi	r24, 0x35	; 53
    4f1a:	90 e0       	ldi	r25, 0x00	; 0
    4f1c:	25 e3       	ldi	r18, 0x35	; 53
    4f1e:	30 e0       	ldi	r19, 0x00	; 0
    4f20:	f9 01       	movw	r30, r18
    4f22:	20 81       	ld	r18, Z
    4f24:	20 62       	ori	r18, 0x20	; 32
    4f26:	fc 01       	movw	r30, r24
    4f28:	20 83       	st	Z, r18
			break;
    4f2a:	00 00       	nop
	}
}
    4f2c:	00 00       	nop
    4f2e:	0f 90       	pop	r0
    4f30:	df 91       	pop	r29
    4f32:	cf 91       	pop	r28
    4f34:	08 95       	ret

00004f36 <MCP4291_assert_LDAC>:

void MCP4291_assert_LDAC(void)
{
    4f36:	cf 93       	push	r28
    4f38:	df 93       	push	r29
    4f3a:	cd b7       	in	r28, 0x3d	; 61
    4f3c:	de b7       	in	r29, 0x3e	; 62
	MCP4921_LDAC_PORT &= ~(1 << MCP4921_LDAC_PIN);
    4f3e:	82 e3       	ldi	r24, 0x32	; 50
    4f40:	90 e0       	ldi	r25, 0x00	; 0
    4f42:	22 e3       	ldi	r18, 0x32	; 50
    4f44:	30 e0       	ldi	r19, 0x00	; 0
    4f46:	f9 01       	movw	r30, r18
    4f48:	20 81       	ld	r18, Z
    4f4a:	2f 77       	andi	r18, 0x7F	; 127
    4f4c:	fc 01       	movw	r30, r24
    4f4e:	20 83       	st	Z, r18
}
    4f50:	00 00       	nop
    4f52:	df 91       	pop	r29
    4f54:	cf 91       	pop	r28
    4f56:	08 95       	ret

00004f58 <MCP4291_deassert_LDAC>:
void MCP4291_deassert_LDAC(void)
{
    4f58:	cf 93       	push	r28
    4f5a:	df 93       	push	r29
    4f5c:	cd b7       	in	r28, 0x3d	; 61
    4f5e:	de b7       	in	r29, 0x3e	; 62
	MCP4921_LDAC_PORT |= (1 << MCP4921_LDAC_PIN);
    4f60:	82 e3       	ldi	r24, 0x32	; 50
    4f62:	90 e0       	ldi	r25, 0x00	; 0
    4f64:	22 e3       	ldi	r18, 0x32	; 50
    4f66:	30 e0       	ldi	r19, 0x00	; 0
    4f68:	f9 01       	movw	r30, r18
    4f6a:	20 81       	ld	r18, Z
    4f6c:	20 68       	ori	r18, 0x80	; 128
    4f6e:	fc 01       	movw	r30, r24
    4f70:	20 83       	st	Z, r18
}
    4f72:	00 00       	nop
    4f74:	df 91       	pop	r29
    4f76:	cf 91       	pop	r28
    4f78:	08 95       	ret

00004f7a <MCP4291_set_output>:
  * @param	buf_ena = 1: output buffered.
  * @param	DAC_number: from 0-3
  * @retval status: 0 PASS, >0: error
  *****************************************************************************/
uint8_t	MCP4291_set_output(uint16_t	Val, uint8_t shutdown, uint8_t gain_ena, uint8_t buf_ena, uint8_t DAC_num)
{
    4f7a:	0f 93       	push	r16
    4f7c:	cf 93       	push	r28
    4f7e:	df 93       	push	r29
    4f80:	cd b7       	in	r28, 0x3d	; 61
    4f82:	de b7       	in	r29, 0x3e	; 62
    4f84:	2e 97       	sbiw	r28, 0x0e	; 14
    4f86:	0f b6       	in	r0, 0x3f	; 63
    4f88:	f8 94       	cli
    4f8a:	de bf       	out	0x3e, r29	; 62
    4f8c:	0f be       	out	0x3f, r0	; 63
    4f8e:	cd bf       	out	0x3d, r28	; 61
    4f90:	9a 87       	std	Y+10, r25	; 0x0a
    4f92:	89 87       	std	Y+9, r24	; 0x09
    4f94:	6b 87       	std	Y+11, r22	; 0x0b
    4f96:	4c 87       	std	Y+12, r20	; 0x0c
    4f98:	2d 87       	std	Y+13, r18	; 0x0d
    4f9a:	0e 87       	std	Y+14, r16	; 0x0e
	volatile mcp4921_config_t		s_mcp4921_config[4];
	if (DAC_num >3)	return 1;
    4f9c:	8e 85       	ldd	r24, Y+14	; 0x0e
    4f9e:	84 30       	cpi	r24, 0x04	; 4
    4fa0:	10 f0       	brcs	.+4      	; 0x4fa6 <MCP4291_set_output+0x2c>
    4fa2:	81 e0       	ldi	r24, 0x01	; 1
    4fa4:	ab c0       	rjmp	.+342    	; 0x50fc <MCP4291_set_output+0x182>
	
	MCP4291_AssertSS(DAC_num);
    4fa6:	8e 85       	ldd	r24, Y+14	; 0x0e
    4fa8:	0e 94 11 27 	call	0x4e22	; 0x4e22 <MCP4291_AssertSS>
	s_mcp4921_config[DAC_num].bitfield.data = Val ;
    4fac:	8e 85       	ldd	r24, Y+14	; 0x0e
    4fae:	88 2f       	mov	r24, r24
    4fb0:	90 e0       	ldi	r25, 0x00	; 0
    4fb2:	29 85       	ldd	r18, Y+9	; 0x09
    4fb4:	3a 85       	ldd	r19, Y+10	; 0x0a
    4fb6:	3f 70       	andi	r19, 0x0F	; 15
    4fb8:	88 0f       	add	r24, r24
    4fba:	99 1f       	adc	r25, r25
    4fbc:	ae 01       	movw	r20, r28
    4fbe:	4f 5f       	subi	r20, 0xFF	; 255
    4fc0:	5f 4f       	sbci	r21, 0xFF	; 255
    4fc2:	84 0f       	add	r24, r20
    4fc4:	95 1f       	adc	r25, r21
    4fc6:	fc 01       	movw	r30, r24
    4fc8:	20 83       	st	Z, r18
    4fca:	23 2f       	mov	r18, r19
    4fcc:	2f 70       	andi	r18, 0x0F	; 15
    4fce:	fc 01       	movw	r30, r24
    4fd0:	31 81       	ldd	r19, Z+1	; 0x01
    4fd2:	30 7f       	andi	r19, 0xF0	; 240
    4fd4:	23 2b       	or	r18, r19
    4fd6:	fc 01       	movw	r30, r24
    4fd8:	21 83       	std	Z+1, r18	; 0x01
	if (shutdown)
    4fda:	8b 85       	ldd	r24, Y+11	; 0x0b
    4fdc:	88 23       	and	r24, r24
    4fde:	81 f0       	breq	.+32     	; 0x5000 <MCP4291_set_output+0x86>
		s_mcp4921_config[DAC_num].bitfield.not_shutdown = 0;
    4fe0:	8e 85       	ldd	r24, Y+14	; 0x0e
    4fe2:	88 2f       	mov	r24, r24
    4fe4:	90 e0       	ldi	r25, 0x00	; 0
    4fe6:	88 0f       	add	r24, r24
    4fe8:	99 1f       	adc	r25, r25
    4fea:	9e 01       	movw	r18, r28
    4fec:	2f 5f       	subi	r18, 0xFF	; 255
    4fee:	3f 4f       	sbci	r19, 0xFF	; 255
    4ff0:	82 0f       	add	r24, r18
    4ff2:	93 1f       	adc	r25, r19
    4ff4:	fc 01       	movw	r30, r24
    4ff6:	21 81       	ldd	r18, Z+1	; 0x01
    4ff8:	2f 7e       	andi	r18, 0xEF	; 239
    4ffa:	fc 01       	movw	r30, r24
    4ffc:	21 83       	std	Z+1, r18	; 0x01
    4ffe:	0f c0       	rjmp	.+30     	; 0x501e <MCP4291_set_output+0xa4>
		else s_mcp4921_config[DAC_num].bitfield.not_shutdown = 1;
    5000:	8e 85       	ldd	r24, Y+14	; 0x0e
    5002:	88 2f       	mov	r24, r24
    5004:	90 e0       	ldi	r25, 0x00	; 0
    5006:	88 0f       	add	r24, r24
    5008:	99 1f       	adc	r25, r25
    500a:	9e 01       	movw	r18, r28
    500c:	2f 5f       	subi	r18, 0xFF	; 255
    500e:	3f 4f       	sbci	r19, 0xFF	; 255
    5010:	82 0f       	add	r24, r18
    5012:	93 1f       	adc	r25, r19
    5014:	fc 01       	movw	r30, r24
    5016:	21 81       	ldd	r18, Z+1	; 0x01
    5018:	20 61       	ori	r18, 0x10	; 16
    501a:	fc 01       	movw	r30, r24
    501c:	21 83       	std	Z+1, r18	; 0x01
	if (gain_ena)	s_mcp4921_config[DAC_num].bitfield.ga = 0;
    501e:	8c 85       	ldd	r24, Y+12	; 0x0c
    5020:	88 23       	and	r24, r24
    5022:	81 f0       	breq	.+32     	; 0x5044 <MCP4291_set_output+0xca>
    5024:	8e 85       	ldd	r24, Y+14	; 0x0e
    5026:	88 2f       	mov	r24, r24
    5028:	90 e0       	ldi	r25, 0x00	; 0
    502a:	88 0f       	add	r24, r24
    502c:	99 1f       	adc	r25, r25
    502e:	9e 01       	movw	r18, r28
    5030:	2f 5f       	subi	r18, 0xFF	; 255
    5032:	3f 4f       	sbci	r19, 0xFF	; 255
    5034:	82 0f       	add	r24, r18
    5036:	93 1f       	adc	r25, r19
    5038:	fc 01       	movw	r30, r24
    503a:	21 81       	ldd	r18, Z+1	; 0x01
    503c:	2f 7d       	andi	r18, 0xDF	; 223
    503e:	fc 01       	movw	r30, r24
    5040:	21 83       	std	Z+1, r18	; 0x01
    5042:	0f c0       	rjmp	.+30     	; 0x5062 <MCP4291_set_output+0xe8>
	else s_mcp4921_config[DAC_num].bitfield.ga = 1;
    5044:	8e 85       	ldd	r24, Y+14	; 0x0e
    5046:	88 2f       	mov	r24, r24
    5048:	90 e0       	ldi	r25, 0x00	; 0
    504a:	88 0f       	add	r24, r24
    504c:	99 1f       	adc	r25, r25
    504e:	9e 01       	movw	r18, r28
    5050:	2f 5f       	subi	r18, 0xFF	; 255
    5052:	3f 4f       	sbci	r19, 0xFF	; 255
    5054:	82 0f       	add	r24, r18
    5056:	93 1f       	adc	r25, r19
    5058:	fc 01       	movw	r30, r24
    505a:	21 81       	ldd	r18, Z+1	; 0x01
    505c:	20 62       	ori	r18, 0x20	; 32
    505e:	fc 01       	movw	r30, r24
    5060:	21 83       	std	Z+1, r18	; 0x01
	s_mcp4921_config[DAC_num].bitfield.buf = buf_ena;
    5062:	8e 85       	ldd	r24, Y+14	; 0x0e
    5064:	88 2f       	mov	r24, r24
    5066:	90 e0       	ldi	r25, 0x00	; 0
    5068:	2d 85       	ldd	r18, Y+13	; 0x0d
    506a:	42 2f       	mov	r20, r18
    506c:	41 70       	andi	r20, 0x01	; 1
    506e:	88 0f       	add	r24, r24
    5070:	99 1f       	adc	r25, r25
    5072:	9e 01       	movw	r18, r28
    5074:	2f 5f       	subi	r18, 0xFF	; 255
    5076:	3f 4f       	sbci	r19, 0xFF	; 255
    5078:	82 0f       	add	r24, r18
    507a:	93 1f       	adc	r25, r19
    507c:	24 2f       	mov	r18, r20
    507e:	21 70       	andi	r18, 0x01	; 1
    5080:	22 95       	swap	r18
    5082:	22 0f       	add	r18, r18
    5084:	22 0f       	add	r18, r18
    5086:	20 7c       	andi	r18, 0xC0	; 192
    5088:	fc 01       	movw	r30, r24
    508a:	31 81       	ldd	r19, Z+1	; 0x01
    508c:	3f 7b       	andi	r19, 0xBF	; 191
    508e:	23 2b       	or	r18, r19
    5090:	fc 01       	movw	r30, r24
    5092:	21 83       	std	Z+1, r18	; 0x01
	s_mcp4921_config[DAC_num].bitfield.not_write = 0;
    5094:	8e 85       	ldd	r24, Y+14	; 0x0e
    5096:	88 2f       	mov	r24, r24
    5098:	90 e0       	ldi	r25, 0x00	; 0
    509a:	88 0f       	add	r24, r24
    509c:	99 1f       	adc	r25, r25
    509e:	9e 01       	movw	r18, r28
    50a0:	2f 5f       	subi	r18, 0xFF	; 255
    50a2:	3f 4f       	sbci	r19, 0xFF	; 255
    50a4:	82 0f       	add	r24, r18
    50a6:	93 1f       	adc	r25, r19
    50a8:	fc 01       	movw	r30, r24
    50aa:	21 81       	ldd	r18, Z+1	; 0x01
    50ac:	2f 77       	andi	r18, 0x7F	; 127
    50ae:	fc 01       	movw	r30, r24
    50b0:	21 83       	std	Z+1, r18	; 0x01
	
	SPI_SendByte(s_mcp4921_config[DAC_num].bytefield.byte1);
    50b2:	8e 85       	ldd	r24, Y+14	; 0x0e
    50b4:	88 2f       	mov	r24, r24
    50b6:	90 e0       	ldi	r25, 0x00	; 0
    50b8:	88 0f       	add	r24, r24
    50ba:	99 1f       	adc	r25, r25
    50bc:	9e 01       	movw	r18, r28
    50be:	2f 5f       	subi	r18, 0xFF	; 255
    50c0:	3f 4f       	sbci	r19, 0xFF	; 255
    50c2:	82 0f       	add	r24, r18
    50c4:	93 1f       	adc	r25, r19
    50c6:	01 96       	adiw	r24, 0x01	; 1
    50c8:	fc 01       	movw	r30, r24
    50ca:	80 81       	ld	r24, Z
    50cc:	0e 94 ec 15 	call	0x2bd8	; 0x2bd8 <SPI_SendByte>

	SPI_SendByte(s_mcp4921_config[DAC_num].bytefield.byte0);
    50d0:	8e 85       	ldd	r24, Y+14	; 0x0e
    50d2:	88 2f       	mov	r24, r24
    50d4:	90 e0       	ldi	r25, 0x00	; 0
    50d6:	88 0f       	add	r24, r24
    50d8:	99 1f       	adc	r25, r25
    50da:	9e 01       	movw	r18, r28
    50dc:	2f 5f       	subi	r18, 0xFF	; 255
    50de:	3f 4f       	sbci	r19, 0xFF	; 255
    50e0:	82 0f       	add	r24, r18
    50e2:	93 1f       	adc	r25, r19
    50e4:	fc 01       	movw	r30, r24
    50e6:	80 81       	ld	r24, Z
    50e8:	0e 94 ec 15 	call	0x2bd8	; 0x2bd8 <SPI_SendByte>

	MCP4291_DeassertSS(DAC_num);
    50ec:	8e 85       	ldd	r24, Y+14	; 0x0e
    50ee:	0e 94 56 27 	call	0x4eac	; 0x4eac <MCP4291_DeassertSS>
	MCP4291_assert_LDAC();
    50f2:	0e 94 9b 27 	call	0x4f36	; 0x4f36 <MCP4291_assert_LDAC>
	MCP4291_deassert_LDAC();
    50f6:	0e 94 ac 27 	call	0x4f58	; 0x4f58 <MCP4291_deassert_LDAC>
	return	0;
    50fa:	80 e0       	ldi	r24, 0x00	; 0
    50fc:	2e 96       	adiw	r28, 0x0e	; 14
    50fe:	0f b6       	in	r0, 0x3f	; 63
    5100:	f8 94       	cli
    5102:	de bf       	out	0x3e, r29	; 62
    5104:	0f be       	out	0x3f, r0	; 63
    5106:	cd bf       	out	0x3d, r28	; 61
    5108:	df 91       	pop	r29
    510a:	cf 91       	pop	r28
    510c:	0f 91       	pop	r16
    510e:	08 95       	ret

00005110 <ringled_show>:

void ringled_clear(void)
{
	for (uint8_t i = 0; i < LED_COUNT; i++)
	colorMap[i] = (rgbw_color){0, 0, 0, 0};
}
    5110:	cf 93       	push	r28
    5112:	df 93       	push	r29
    5114:	00 d0       	rcall	.+0      	; 0x5116 <ringled_show+0x6>
    5116:	00 d0       	rcall	.+0      	; 0x5118 <ringled_show+0x8>
    5118:	cd b7       	in	r28, 0x3d	; 61
    511a:	de b7       	in	r29, 0x3e	; 62
    511c:	9b 83       	std	Y+3, r25	; 0x03
    511e:	8a 83       	std	Y+2, r24	; 0x02
    5120:	6c 83       	std	Y+4, r22	; 0x04
    5122:	88 e3       	ldi	r24, 0x38	; 56
    5124:	90 e0       	ldi	r25, 0x00	; 0
    5126:	28 e3       	ldi	r18, 0x38	; 56
    5128:	30 e0       	ldi	r19, 0x00	; 0
    512a:	f9 01       	movw	r30, r18
    512c:	20 81       	ld	r18, Z
    512e:	2f 77       	andi	r18, 0x7F	; 127
    5130:	fc 01       	movw	r30, r24
    5132:	20 83       	st	Z, r18
    5134:	87 e3       	ldi	r24, 0x37	; 55
    5136:	90 e0       	ldi	r25, 0x00	; 0
    5138:	27 e3       	ldi	r18, 0x37	; 55
    513a:	30 e0       	ldi	r19, 0x00	; 0
    513c:	f9 01       	movw	r30, r18
    513e:	20 81       	ld	r18, Z
    5140:	20 68       	ori	r18, 0x80	; 128
    5142:	fc 01       	movw	r30, r24
    5144:	20 83       	st	Z, r18
    5146:	f8 94       	cli
    5148:	32 c0       	rjmp	.+100    	; 0x51ae <led_strip_asm_end79+0x6>
    514a:	88 e3       	ldi	r24, 0x38	; 56
    514c:	90 e0       	ldi	r25, 0x00	; 0
    514e:	fc 01       	movw	r30, r24
    5150:	80 81       	ld	r24, Z
    5152:	89 83       	std	Y+1, r24	; 0x01
    5154:	89 81       	ldd	r24, Y+1	; 0x01
    5156:	28 2f       	mov	r18, r24
    5158:	2f 77       	andi	r18, 0x7F	; 127
    515a:	89 81       	ldd	r24, Y+1	; 0x01
    515c:	38 2f       	mov	r19, r24
    515e:	30 68       	ori	r19, 0x80	; 128
    5160:	8a 81       	ldd	r24, Y+2	; 0x02
    5162:	9b 81       	ldd	r25, Y+3	; 0x03
    5164:	fc 01       	movw	r30, r24
    5166:	01 90       	ld	r0, Z+
    5168:	00 80       	ld	r0, Z
    516a:	09 d0       	rcall	.+18     	; 0x517e <send_led_strip_byte79>
    516c:	02 90       	ld	r0, -Z
    516e:	07 d0       	rcall	.+14     	; 0x517e <send_led_strip_byte79>
    5170:	01 90       	ld	r0, Z+
    5172:	01 90       	ld	r0, Z+
    5174:	01 90       	ld	r0, Z+
    5176:	03 d0       	rcall	.+6      	; 0x517e <send_led_strip_byte79>
    5178:	01 90       	ld	r0, Z+
    517a:	01 d0       	rcall	.+2      	; 0x517e <send_led_strip_byte79>
    517c:	15 c0       	rjmp	.+42     	; 0x51a8 <led_strip_asm_end79>

0000517e <send_led_strip_byte79>:
    517e:	08 d0       	rcall	.+16     	; 0x5190 <send_led_strip_bit79>
    5180:	07 d0       	rcall	.+14     	; 0x5190 <send_led_strip_bit79>
    5182:	06 d0       	rcall	.+12     	; 0x5190 <send_led_strip_bit79>
    5184:	05 d0       	rcall	.+10     	; 0x5190 <send_led_strip_bit79>
    5186:	04 d0       	rcall	.+8      	; 0x5190 <send_led_strip_bit79>
    5188:	03 d0       	rcall	.+6      	; 0x5190 <send_led_strip_bit79>
    518a:	02 d0       	rcall	.+4      	; 0x5190 <send_led_strip_bit79>
    518c:	01 d0       	rcall	.+2      	; 0x5190 <send_led_strip_bit79>
    518e:	08 95       	ret

00005190 <send_led_strip_bit79>:
    5190:	00 1c       	adc	r0, r0
    5192:	30 93 38 00 	sts	0x0038, r19	; 0x800038 <__TEXT_REGION_LENGTH__+0x7f0038>
    5196:	10 f0       	brcs	.+4      	; 0x519c <send_led_strip_bit79+0xc>
    5198:	20 93 38 00 	sts	0x0038, r18	; 0x800038 <__TEXT_REGION_LENGTH__+0x7f0038>
    519c:	00 00       	nop
    519e:	00 00       	nop
    51a0:	10 f4       	brcc	.+4      	; 0x51a6 <send_led_strip_bit79+0x16>
    51a2:	20 93 38 00 	sts	0x0038, r18	; 0x800038 <__TEXT_REGION_LENGTH__+0x7f0038>
    51a6:	08 95       	ret

000051a8 <led_strip_asm_end79>:
    51a8:	cf 01       	movw	r24, r30
    51aa:	9b 83       	std	Y+3, r25	; 0x03
    51ac:	8a 83       	std	Y+2, r24	; 0x02
    51ae:	8c 81       	ldd	r24, Y+4	; 0x04
    51b0:	9f ef       	ldi	r25, 0xFF	; 255
    51b2:	98 0f       	add	r25, r24
    51b4:	9c 83       	std	Y+4, r25	; 0x04
    51b6:	88 23       	and	r24, r24
    51b8:	09 f0       	breq	.+2      	; 0x51bc <led_strip_asm_end79+0x14>
    51ba:	c7 cf       	rjmp	.-114    	; 0x514a <ringled_show+0x3a>
    51bc:	78 94       	sei
    51be:	00 00       	nop
    51c0:	0f 90       	pop	r0
    51c2:	0f 90       	pop	r0
    51c4:	0f 90       	pop	r0
    51c6:	0f 90       	pop	r0
    51c8:	df 91       	pop	r29
    51ca:	cf 91       	pop	r28
    51cc:	08 95       	ret

000051ce <ringled_set_RGBW>:

void ringled_set_RGBW(uint8_t red, uint8_t green, uint8_t blue, uint8_t white)
{
    51ce:	cf 93       	push	r28
    51d0:	df 93       	push	r29
    51d2:	00 d0       	rcall	.+0      	; 0x51d4 <ringled_set_RGBW+0x6>
    51d4:	00 d0       	rcall	.+0      	; 0x51d6 <ringled_set_RGBW+0x8>
    51d6:	1f 92       	push	r1
    51d8:	cd b7       	in	r28, 0x3d	; 61
    51da:	de b7       	in	r29, 0x3e	; 62
    51dc:	8a 83       	std	Y+2, r24	; 0x02
    51de:	6b 83       	std	Y+3, r22	; 0x03
    51e0:	4c 83       	std	Y+4, r20	; 0x04
    51e2:	2d 83       	std	Y+5, r18	; 0x05
	status_rgbw_color = (rgbw_color){red, green, blue, white};
    51e4:	8a 81       	ldd	r24, Y+2	; 0x02
    51e6:	80 93 47 0f 	sts	0x0F47, r24	; 0x800f47 <status_rgbw_color>
    51ea:	8b 81       	ldd	r24, Y+3	; 0x03
    51ec:	80 93 48 0f 	sts	0x0F48, r24	; 0x800f48 <status_rgbw_color+0x1>
    51f0:	8c 81       	ldd	r24, Y+4	; 0x04
    51f2:	80 93 49 0f 	sts	0x0F49, r24	; 0x800f49 <status_rgbw_color+0x2>
    51f6:	8d 81       	ldd	r24, Y+5	; 0x05
    51f8:	80 93 4a 0f 	sts	0x0F4A, r24	; 0x800f4a <status_rgbw_color+0x3>
	for (uint8_t i = 0; i < LED_COUNT; i++)
    51fc:	19 82       	std	Y+1, r1	; 0x01
    51fe:	2d c0       	rjmp	.+90     	; 0x525a <ringled_set_RGBW+0x8c>
		colorMap[i] = (rgbw_color){red, green, blue, white};
    5200:	89 81       	ldd	r24, Y+1	; 0x01
    5202:	88 2f       	mov	r24, r24
    5204:	90 e0       	ldi	r25, 0x00	; 0
    5206:	9c 01       	movw	r18, r24
    5208:	22 0f       	add	r18, r18
    520a:	33 1f       	adc	r19, r19
    520c:	22 0f       	add	r18, r18
    520e:	33 1f       	adc	r19, r19
    5210:	2c 5a       	subi	r18, 0xAC	; 172
    5212:	33 4f       	sbci	r19, 0xF3	; 243
    5214:	4a 81       	ldd	r20, Y+2	; 0x02
    5216:	f9 01       	movw	r30, r18
    5218:	40 83       	st	Z, r20
    521a:	9c 01       	movw	r18, r24
    521c:	22 0f       	add	r18, r18
    521e:	33 1f       	adc	r19, r19
    5220:	22 0f       	add	r18, r18
    5222:	33 1f       	adc	r19, r19
    5224:	2b 5a       	subi	r18, 0xAB	; 171
    5226:	33 4f       	sbci	r19, 0xF3	; 243
    5228:	4b 81       	ldd	r20, Y+3	; 0x03
    522a:	f9 01       	movw	r30, r18
    522c:	40 83       	st	Z, r20
    522e:	9c 01       	movw	r18, r24
    5230:	22 0f       	add	r18, r18
    5232:	33 1f       	adc	r19, r19
    5234:	22 0f       	add	r18, r18
    5236:	33 1f       	adc	r19, r19
    5238:	2a 5a       	subi	r18, 0xAA	; 170
    523a:	33 4f       	sbci	r19, 0xF3	; 243
    523c:	4c 81       	ldd	r20, Y+4	; 0x04
    523e:	f9 01       	movw	r30, r18
    5240:	40 83       	st	Z, r20
    5242:	88 0f       	add	r24, r24
    5244:	99 1f       	adc	r25, r25
    5246:	88 0f       	add	r24, r24
    5248:	99 1f       	adc	r25, r25
    524a:	89 5a       	subi	r24, 0xA9	; 169
    524c:	93 4f       	sbci	r25, 0xF3	; 243
    524e:	2d 81       	ldd	r18, Y+5	; 0x05
    5250:	fc 01       	movw	r30, r24
    5252:	20 83       	st	Z, r18
}

void ringled_set_RGBW(uint8_t red, uint8_t green, uint8_t blue, uint8_t white)
{
	status_rgbw_color = (rgbw_color){red, green, blue, white};
	for (uint8_t i = 0; i < LED_COUNT; i++)
    5254:	89 81       	ldd	r24, Y+1	; 0x01
    5256:	8f 5f       	subi	r24, 0xFF	; 255
    5258:	89 83       	std	Y+1, r24	; 0x01
    525a:	89 81       	ldd	r24, Y+1	; 0x01
    525c:	8a 30       	cpi	r24, 0x0A	; 10
    525e:	80 f2       	brcs	.-96     	; 0x5200 <ringled_set_RGBW+0x32>
		colorMap[i] = (rgbw_color){red, green, blue, white};
	ringled_show(colorMap, LED_COUNT);
    5260:	6a e0       	ldi	r22, 0x0A	; 10
    5262:	84 e5       	ldi	r24, 0x54	; 84
    5264:	9c e0       	ldi	r25, 0x0C	; 12
    5266:	0e 94 88 28 	call	0x5110	; 0x5110 <ringled_show>
}
    526a:	00 00       	nop
    526c:	0f 90       	pop	r0
    526e:	0f 90       	pop	r0
    5270:	0f 90       	pop	r0
    5272:	0f 90       	pop	r0
    5274:	0f 90       	pop	r0
    5276:	df 91       	pop	r29
    5278:	cf 91       	pop	r28
    527a:	08 95       	ret

0000527c <ringled_get_RGBW>:

rgbw_color ringled_get_RGBW(void)
{
    527c:	cf 93       	push	r28
    527e:	df 93       	push	r29
    5280:	cd b7       	in	r28, 0x3d	; 61
    5282:	de b7       	in	r29, 0x3e	; 62
	return status_rgbw_color;
    5284:	80 91 47 0f 	lds	r24, 0x0F47	; 0x800f47 <status_rgbw_color>
    5288:	90 91 48 0f 	lds	r25, 0x0F48	; 0x800f48 <status_rgbw_color+0x1>
    528c:	a0 91 49 0f 	lds	r26, 0x0F49	; 0x800f49 <status_rgbw_color+0x2>
    5290:	b0 91 4a 0f 	lds	r27, 0x0F4A	; 0x800f4a <status_rgbw_color+0x3>
    5294:	bc 01       	movw	r22, r24
    5296:	cd 01       	movw	r24, r26
    5298:	df 91       	pop	r29
    529a:	cf 91       	pop	r28
    529c:	08 95       	ret

0000529e <TEC_enable>:
	TEC_FAULT0_TEC3_PORT |= (1<<TEC_FAULT0_TEC3_PIN);
	TEC_FAULT1_TEC3_PORT |= (1<<TEC_FAULT1_TEC3_PIN);	
}

uint8_t	TEC_enable(uint8_t	TEC_device)
{
    529e:	cf 93       	push	r28
    52a0:	df 93       	push	r29
    52a2:	1f 92       	push	r1
    52a4:	cd b7       	in	r28, 0x3d	; 61
    52a6:	de b7       	in	r29, 0x3e	; 62
    52a8:	89 83       	std	Y+1, r24	; 0x01
	switch (TEC_device)
    52aa:	89 81       	ldd	r24, Y+1	; 0x01
    52ac:	88 2f       	mov	r24, r24
    52ae:	90 e0       	ldi	r25, 0x00	; 0
    52b0:	81 30       	cpi	r24, 0x01	; 1
    52b2:	91 05       	cpc	r25, r1
    52b4:	b9 f0       	breq	.+46     	; 0x52e4 <TEC_enable+0x46>
    52b6:	82 30       	cpi	r24, 0x02	; 2
    52b8:	91 05       	cpc	r25, r1
    52ba:	1c f4       	brge	.+6      	; 0x52c2 <TEC_enable+0x24>
    52bc:	89 2b       	or	r24, r25
    52be:	39 f0       	breq	.+14     	; 0x52ce <TEC_enable+0x30>
    52c0:	32 c0       	rjmp	.+100    	; 0x5326 <TEC_enable+0x88>
    52c2:	82 30       	cpi	r24, 0x02	; 2
    52c4:	91 05       	cpc	r25, r1
    52c6:	c9 f0       	breq	.+50     	; 0x52fa <TEC_enable+0x5c>
    52c8:	03 97       	sbiw	r24, 0x03	; 3
    52ca:	11 f1       	breq	.+68     	; 0x5310 <TEC_enable+0x72>
    52cc:	2c c0       	rjmp	.+88     	; 0x5326 <TEC_enable+0x88>
	{
		case 0:
			TEC_SHUTDOWN_TEC0_PORT |= (1<< TEC_SHUTDOWN_TEC0_PIN);
    52ce:	85 e6       	ldi	r24, 0x65	; 101
    52d0:	90 e0       	ldi	r25, 0x00	; 0
    52d2:	25 e6       	ldi	r18, 0x65	; 101
    52d4:	30 e0       	ldi	r19, 0x00	; 0
    52d6:	f9 01       	movw	r30, r18
    52d8:	20 81       	ld	r18, Z
    52da:	21 60       	ori	r18, 0x01	; 1
    52dc:	fc 01       	movw	r30, r24
    52de:	20 83       	st	Z, r18
			return 0;
    52e0:	80 e0       	ldi	r24, 0x00	; 0
    52e2:	22 c0       	rjmp	.+68     	; 0x5328 <TEC_enable+0x8a>
		case 1:
			TEC_SHUTDOWN_TEC1_PORT |= (1<< TEC_SHUTDOWN_TEC1_PIN);
    52e4:	8b e3       	ldi	r24, 0x3B	; 59
    52e6:	90 e0       	ldi	r25, 0x00	; 0
    52e8:	2b e3       	ldi	r18, 0x3B	; 59
    52ea:	30 e0       	ldi	r19, 0x00	; 0
    52ec:	f9 01       	movw	r30, r18
    52ee:	20 81       	ld	r18, Z
    52f0:	20 68       	ori	r18, 0x80	; 128
    52f2:	fc 01       	movw	r30, r24
    52f4:	20 83       	st	Z, r18
			return	0;
    52f6:	80 e0       	ldi	r24, 0x00	; 0
    52f8:	17 c0       	rjmp	.+46     	; 0x5328 <TEC_enable+0x8a>
		case 2:
			TEC_SHUTDOWN_TEC2_PORT |= (1<< TEC_SHUTDOWN_TEC2_PIN);
    52fa:	8b e3       	ldi	r24, 0x3B	; 59
    52fc:	90 e0       	ldi	r25, 0x00	; 0
    52fe:	2b e3       	ldi	r18, 0x3B	; 59
    5300:	30 e0       	ldi	r19, 0x00	; 0
    5302:	f9 01       	movw	r30, r18
    5304:	20 81       	ld	r18, Z
    5306:	20 61       	ori	r18, 0x10	; 16
    5308:	fc 01       	movw	r30, r24
    530a:	20 83       	st	Z, r18
			return 0;
    530c:	80 e0       	ldi	r24, 0x00	; 0
    530e:	0c c0       	rjmp	.+24     	; 0x5328 <TEC_enable+0x8a>
		case 3:
			TEC_SHUTDOWN_TEC3_PORT |= (1<< TEC_SHUTDOWN_TEC3_PIN);
    5310:	85 e3       	ldi	r24, 0x35	; 53
    5312:	90 e0       	ldi	r25, 0x00	; 0
    5314:	25 e3       	ldi	r18, 0x35	; 53
    5316:	30 e0       	ldi	r19, 0x00	; 0
    5318:	f9 01       	movw	r30, r18
    531a:	20 81       	ld	r18, Z
    531c:	20 64       	ori	r18, 0x40	; 64
    531e:	fc 01       	movw	r30, r24
    5320:	20 83       	st	Z, r18
			return 0;
    5322:	80 e0       	ldi	r24, 0x00	; 0
    5324:	01 c0       	rjmp	.+2      	; 0x5328 <TEC_enable+0x8a>
		default:
			return 1;
    5326:	81 e0       	ldi	r24, 0x01	; 1
	}
}
    5328:	0f 90       	pop	r0
    532a:	df 91       	pop	r29
    532c:	cf 91       	pop	r28
    532e:	08 95       	ret

00005330 <TEC_shutdown>:
	
uint8_t	TEC_shutdown(uint8_t	TEC_device)
{
    5330:	cf 93       	push	r28
    5332:	df 93       	push	r29
    5334:	1f 92       	push	r1
    5336:	cd b7       	in	r28, 0x3d	; 61
    5338:	de b7       	in	r29, 0x3e	; 62
    533a:	89 83       	std	Y+1, r24	; 0x01
	switch (TEC_device)
    533c:	89 81       	ldd	r24, Y+1	; 0x01
    533e:	88 2f       	mov	r24, r24
    5340:	90 e0       	ldi	r25, 0x00	; 0
    5342:	81 30       	cpi	r24, 0x01	; 1
    5344:	91 05       	cpc	r25, r1
    5346:	b9 f0       	breq	.+46     	; 0x5376 <TEC_shutdown+0x46>
    5348:	82 30       	cpi	r24, 0x02	; 2
    534a:	91 05       	cpc	r25, r1
    534c:	1c f4       	brge	.+6      	; 0x5354 <TEC_shutdown+0x24>
    534e:	89 2b       	or	r24, r25
    5350:	39 f0       	breq	.+14     	; 0x5360 <TEC_shutdown+0x30>
    5352:	32 c0       	rjmp	.+100    	; 0x53b8 <TEC_shutdown+0x88>
    5354:	82 30       	cpi	r24, 0x02	; 2
    5356:	91 05       	cpc	r25, r1
    5358:	c9 f0       	breq	.+50     	; 0x538c <TEC_shutdown+0x5c>
    535a:	03 97       	sbiw	r24, 0x03	; 3
    535c:	11 f1       	breq	.+68     	; 0x53a2 <TEC_shutdown+0x72>
    535e:	2c c0       	rjmp	.+88     	; 0x53b8 <TEC_shutdown+0x88>
	{
		case 0:
			TEC_SHUTDOWN_TEC0_PORT &= ~(1<< TEC_SHUTDOWN_TEC0_PIN);
    5360:	85 e6       	ldi	r24, 0x65	; 101
    5362:	90 e0       	ldi	r25, 0x00	; 0
    5364:	25 e6       	ldi	r18, 0x65	; 101
    5366:	30 e0       	ldi	r19, 0x00	; 0
    5368:	f9 01       	movw	r30, r18
    536a:	20 81       	ld	r18, Z
    536c:	2e 7f       	andi	r18, 0xFE	; 254
    536e:	fc 01       	movw	r30, r24
    5370:	20 83       	st	Z, r18
			return 0;
    5372:	80 e0       	ldi	r24, 0x00	; 0
    5374:	22 c0       	rjmp	.+68     	; 0x53ba <TEC_shutdown+0x8a>
		case 1:
			TEC_SHUTDOWN_TEC1_PORT &= ~(1<< TEC_SHUTDOWN_TEC1_PIN);
    5376:	8b e3       	ldi	r24, 0x3B	; 59
    5378:	90 e0       	ldi	r25, 0x00	; 0
    537a:	2b e3       	ldi	r18, 0x3B	; 59
    537c:	30 e0       	ldi	r19, 0x00	; 0
    537e:	f9 01       	movw	r30, r18
    5380:	20 81       	ld	r18, Z
    5382:	2f 77       	andi	r18, 0x7F	; 127
    5384:	fc 01       	movw	r30, r24
    5386:	20 83       	st	Z, r18
			return	0;
    5388:	80 e0       	ldi	r24, 0x00	; 0
    538a:	17 c0       	rjmp	.+46     	; 0x53ba <TEC_shutdown+0x8a>
		case 2:
			TEC_SHUTDOWN_TEC2_PORT &= ~(1<< TEC_SHUTDOWN_TEC2_PIN);
    538c:	8b e3       	ldi	r24, 0x3B	; 59
    538e:	90 e0       	ldi	r25, 0x00	; 0
    5390:	2b e3       	ldi	r18, 0x3B	; 59
    5392:	30 e0       	ldi	r19, 0x00	; 0
    5394:	f9 01       	movw	r30, r18
    5396:	20 81       	ld	r18, Z
    5398:	2f 7e       	andi	r18, 0xEF	; 239
    539a:	fc 01       	movw	r30, r24
    539c:	20 83       	st	Z, r18
			return 0;
    539e:	80 e0       	ldi	r24, 0x00	; 0
    53a0:	0c c0       	rjmp	.+24     	; 0x53ba <TEC_shutdown+0x8a>
		case 3:
			TEC_SHUTDOWN_TEC3_PORT &= ~(1<< TEC_SHUTDOWN_TEC3_PIN);
    53a2:	85 e3       	ldi	r24, 0x35	; 53
    53a4:	90 e0       	ldi	r25, 0x00	; 0
    53a6:	25 e3       	ldi	r18, 0x35	; 53
    53a8:	30 e0       	ldi	r19, 0x00	; 0
    53aa:	f9 01       	movw	r30, r18
    53ac:	20 81       	ld	r18, Z
    53ae:	2f 7b       	andi	r18, 0xBF	; 191
    53b0:	fc 01       	movw	r30, r24
    53b2:	20 83       	st	Z, r18
			return 0;
    53b4:	80 e0       	ldi	r24, 0x00	; 0
    53b6:	01 c0       	rjmp	.+2      	; 0x53ba <TEC_shutdown+0x8a>
		default:
			return 1;
    53b8:	81 e0       	ldi	r24, 0x01	; 1
	}
    53ba:	0f 90       	pop	r0
    53bc:	df 91       	pop	r29
    53be:	cf 91       	pop	r28
    53c0:	08 95       	ret

000053c2 <TPL5010_init>:
 */ 
#include <avr/io.h>
#include "TPL5010.h"
#include "IOU_board.h"
void	TPL5010_init (void)
{
    53c2:	cf 93       	push	r28
    53c4:	df 93       	push	r29
    53c6:	cd b7       	in	r28, 0x3d	; 61
    53c8:	de b7       	in	r29, 0x3e	; 62
	TPL5010_DONE_DDR |=  (1 << TPL5010_DONE_PIN);	//done is output
    53ca:	82 e2       	ldi	r24, 0x22	; 34
    53cc:	90 e0       	ldi	r25, 0x00	; 0
    53ce:	22 e2       	ldi	r18, 0x22	; 34
    53d0:	30 e0       	ldi	r19, 0x00	; 0
    53d2:	f9 01       	movw	r30, r18
    53d4:	20 81       	ld	r18, Z
    53d6:	24 60       	ori	r18, 0x04	; 4
    53d8:	fc 01       	movw	r30, r24
    53da:	20 83       	st	Z, r18
	TPL5010_WAKE_DDR &= ~(1 << TPL5010_WAKE_PIN);	//wake is input
    53dc:	82 e2       	ldi	r24, 0x22	; 34
    53de:	90 e0       	ldi	r25, 0x00	; 0
    53e0:	22 e2       	ldi	r18, 0x22	; 34
    53e2:	30 e0       	ldi	r19, 0x00	; 0
    53e4:	f9 01       	movw	r30, r18
    53e6:	20 81       	ld	r18, Z
    53e8:	2f 7b       	andi	r18, 0xBF	; 191
    53ea:	fc 01       	movw	r30, r24
    53ec:	20 83       	st	Z, r18
	TPL5010_WAKE_PORT |=  (1 << TPL5010_WAKE_PIN);	//pull up Wake
    53ee:	83 e2       	ldi	r24, 0x23	; 35
    53f0:	90 e0       	ldi	r25, 0x00	; 0
    53f2:	23 e2       	ldi	r18, 0x23	; 35
    53f4:	30 e0       	ldi	r19, 0x00	; 0
    53f6:	f9 01       	movw	r30, r18
    53f8:	20 81       	ld	r18, Z
    53fa:	20 64       	ori	r18, 0x40	; 64
    53fc:	fc 01       	movw	r30, r24
    53fe:	20 83       	st	Z, r18
	TPL5010_DONE_PORT	&= ~(1 << TPL5010_DONE_PIN);	//init as 0
    5400:	83 e2       	ldi	r24, 0x23	; 35
    5402:	90 e0       	ldi	r25, 0x00	; 0
    5404:	23 e2       	ldi	r18, 0x23	; 35
    5406:	30 e0       	ldi	r19, 0x00	; 0
    5408:	f9 01       	movw	r30, r18
    540a:	20 81       	ld	r18, Z
    540c:	2b 7f       	andi	r18, 0xFB	; 251
    540e:	fc 01       	movw	r30, r24
    5410:	20 83       	st	Z, r18
	return;
    5412:	00 00       	nop
};
    5414:	df 91       	pop	r29
    5416:	cf 91       	pop	r28
    5418:	08 95       	ret

0000541a <TPL5010_done_pulse>:
void	TPL5010_done_pulse (void)
{
    541a:	cf 93       	push	r28
    541c:	df 93       	push	r29
    541e:	cd b7       	in	r28, 0x3d	; 61
    5420:	de b7       	in	r29, 0x3e	; 62
	
	TPL5010_DONE_PORT	|= (1 << TPL5010_DONE_PIN);
    5422:	83 e2       	ldi	r24, 0x23	; 35
    5424:	90 e0       	ldi	r25, 0x00	; 0
    5426:	23 e2       	ldi	r18, 0x23	; 35
    5428:	30 e0       	ldi	r19, 0x00	; 0
    542a:	f9 01       	movw	r30, r18
    542c:	20 81       	ld	r18, Z
    542e:	24 60       	ori	r18, 0x04	; 4
    5430:	fc 01       	movw	r30, r24
    5432:	20 83       	st	Z, r18
	TPL5010_DONE_PORT	&= ~(1 << TPL5010_DONE_PIN);
    5434:	83 e2       	ldi	r24, 0x23	; 35
    5436:	90 e0       	ldi	r25, 0x00	; 0
    5438:	23 e2       	ldi	r18, 0x23	; 35
    543a:	30 e0       	ldi	r19, 0x00	; 0
    543c:	f9 01       	movw	r30, r18
    543e:	20 81       	ld	r18, Z
    5440:	2b 7f       	andi	r18, 0xFB	; 251
    5442:	fc 01       	movw	r30, r24
    5444:	20 83       	st	Z, r18
    5446:	00 00       	nop
    5448:	df 91       	pop	r29
    544a:	cf 91       	pop	r28
    544c:	08 95       	ret

0000544e <SCH_Initialize>:
  * @retval system ticks
  *****************************************************************************/
uint16_t SCH_SystemTick(void)
{
  return s_SystemTick;
}
    544e:	cf 93       	push	r28
    5450:	df 93       	push	r29
    5452:	cd b7       	in	r28, 0x3d	; 61
    5454:	de b7       	in	r29, 0x3e	; 62
    5456:	10 92 4c 0f 	sts	0x0F4C, r1	; 0x800f4c <s_SystemTick+0x1>
    545a:	10 92 4b 0f 	sts	0x0F4B, r1	; 0x800f4b <s_SystemTick>
    545e:	10 92 34 0c 	sts	0x0C34, r1	; 0x800c34 <s_NumOfTaskScheduled>
    5462:	10 92 53 0c 	sts	0x0C53, r1	; 0x800c53 <s_NumOfTimers>
    5466:	4c e3       	ldi	r20, 0x3C	; 60
    5468:	50 e0       	ldi	r21, 0x00	; 0
    546a:	60 e0       	ldi	r22, 0x00	; 0
    546c:	70 e0       	ldi	r23, 0x00	; 0
    546e:	88 ef       	ldi	r24, 0xF8	; 248
    5470:	9b e0       	ldi	r25, 0x0B	; 11
    5472:	0e 94 4e 34 	call	0x689c	; 0x689c <memset>
    5476:	4e e1       	ldi	r20, 0x1E	; 30
    5478:	50 e0       	ldi	r21, 0x00	; 0
    547a:	60 e0       	ldi	r22, 0x00	; 0
    547c:	70 e0       	ldi	r23, 0x00	; 0
    547e:	85 e3       	ldi	r24, 0x35	; 53
    5480:	9c e0       	ldi	r25, 0x0C	; 12
    5482:	0e 94 4e 34 	call	0x689c	; 0x689c <memset>
    5486:	48 e0       	ldi	r20, 0x08	; 8
    5488:	50 e0       	ldi	r21, 0x00	; 0
    548a:	60 e0       	ldi	r22, 0x00	; 0
    548c:	70 e0       	ldi	r23, 0x00	; 0
    548e:	8d e4       	ldi	r24, 0x4D	; 77
    5490:	9f e0       	ldi	r25, 0x0F	; 15
    5492:	0e 94 4e 34 	call	0x689c	; 0x689c <memset>
    5496:	0e 94 bb 18 	call	0x3176	; 0x3176 <timer_timer0_init>
    549a:	00 00       	nop
    549c:	df 91       	pop	r29
    549e:	cf 91       	pop	r28
    54a0:	08 95       	ret

000054a2 <SCH_TIM_Start>:
    54a2:	cf 93       	push	r28
    54a4:	df 93       	push	r29
    54a6:	00 d0       	rcall	.+0      	; 0x54a8 <SCH_TIM_Start+0x6>
    54a8:	00 d0       	rcall	.+0      	; 0x54aa <SCH_TIM_Start+0x8>
    54aa:	1f 92       	push	r1
    54ac:	cd b7       	in	r28, 0x3d	; 61
    54ae:	de b7       	in	r29, 0x3e	; 62
    54b0:	89 83       	std	Y+1, r24	; 0x01
    54b2:	4a 83       	std	Y+2, r20	; 0x02
    54b4:	5b 83       	std	Y+3, r21	; 0x03
    54b6:	6c 83       	std	Y+4, r22	; 0x04
    54b8:	7d 83       	std	Y+5, r23	; 0x05
    54ba:	89 81       	ldd	r24, Y+1	; 0x01
    54bc:	82 30       	cpi	r24, 0x02	; 2
    54be:	60 f4       	brcc	.+24     	; 0x54d8 <SCH_TIM_Start+0x36>
    54c0:	89 81       	ldd	r24, Y+1	; 0x01
    54c2:	88 2f       	mov	r24, r24
    54c4:	90 e0       	ldi	r25, 0x00	; 0
    54c6:	2a 81       	ldd	r18, Y+2	; 0x02
    54c8:	3b 81       	ldd	r19, Y+3	; 0x03
    54ca:	88 0f       	add	r24, r24
    54cc:	99 1f       	adc	r25, r25
    54ce:	83 5b       	subi	r24, 0xB3	; 179
    54d0:	90 4f       	sbci	r25, 0xF0	; 240
    54d2:	fc 01       	movw	r30, r24
    54d4:	31 83       	std	Z+1, r19	; 0x01
    54d6:	20 83       	st	Z, r18
    54d8:	00 00       	nop
    54da:	0f 90       	pop	r0
    54dc:	0f 90       	pop	r0
    54de:	0f 90       	pop	r0
    54e0:	0f 90       	pop	r0
    54e2:	0f 90       	pop	r0
    54e4:	df 91       	pop	r29
    54e6:	cf 91       	pop	r28
    54e8:	08 95       	ret

000054ea <SCH_TIM_HasCompleted>:
    54ea:	cf 93       	push	r28
    54ec:	df 93       	push	r29
    54ee:	1f 92       	push	r1
    54f0:	cd b7       	in	r28, 0x3d	; 61
    54f2:	de b7       	in	r29, 0x3e	; 62
    54f4:	89 83       	std	Y+1, r24	; 0x01
    54f6:	89 81       	ldd	r24, Y+1	; 0x01
    54f8:	88 2f       	mov	r24, r24
    54fa:	90 e0       	ldi	r25, 0x00	; 0
    54fc:	88 0f       	add	r24, r24
    54fe:	99 1f       	adc	r25, r25
    5500:	83 5b       	subi	r24, 0xB3	; 179
    5502:	90 4f       	sbci	r25, 0xF0	; 240
    5504:	fc 01       	movw	r30, r24
    5506:	80 81       	ld	r24, Z
    5508:	91 81       	ldd	r25, Z+1	; 0x01
    550a:	21 e0       	ldi	r18, 0x01	; 1
    550c:	89 2b       	or	r24, r25
    550e:	09 f0       	breq	.+2      	; 0x5512 <SCH_TIM_HasCompleted+0x28>
    5510:	20 e0       	ldi	r18, 0x00	; 0
    5512:	82 2f       	mov	r24, r18
    5514:	0f 90       	pop	r0
    5516:	df 91       	pop	r29
    5518:	cf 91       	pop	r28
    551a:	08 95       	ret

0000551c <SCH_TASK_CreateTask>:
    551c:	cf 93       	push	r28
    551e:	df 93       	push	r29
    5520:	cd b7       	in	r28, 0x3d	; 61
    5522:	de b7       	in	r29, 0x3e	; 62
    5524:	27 97       	sbiw	r28, 0x07	; 7
    5526:	0f b6       	in	r0, 0x3f	; 63
    5528:	f8 94       	cli
    552a:	de bf       	out	0x3e, r29	; 62
    552c:	0f be       	out	0x3f, r0	; 63
    552e:	cd bf       	out	0x3d, r28	; 61
    5530:	9d 83       	std	Y+5, r25	; 0x05
    5532:	8c 83       	std	Y+4, r24	; 0x04
    5534:	7f 83       	std	Y+7, r23	; 0x07
    5536:	6e 83       	std	Y+6, r22	; 0x06
    5538:	81 e0       	ldi	r24, 0x01	; 1
    553a:	89 83       	std	Y+1, r24	; 0x01
    553c:	8c 81       	ldd	r24, Y+4	; 0x04
    553e:	9d 81       	ldd	r25, Y+5	; 0x05
    5540:	89 2b       	or	r24, r25
    5542:	c1 f1       	breq	.+112    	; 0x55b4 <SCH_TASK_CreateTask+0x98>
    5544:	8e 81       	ldd	r24, Y+6	; 0x06
    5546:	9f 81       	ldd	r25, Y+7	; 0x07
    5548:	89 2b       	or	r24, r25
    554a:	a1 f1       	breq	.+104    	; 0x55b4 <SCH_TASK_CreateTask+0x98>
    554c:	80 91 34 0c 	lds	r24, 0x0C34	; 0x800c34 <s_NumOfTaskScheduled>
    5550:	89 30       	cpi	r24, 0x09	; 9
    5552:	80 f5       	brcc	.+96     	; 0x55b4 <SCH_TASK_CreateTask+0x98>
    5554:	80 91 34 0c 	lds	r24, 0x0C34	; 0x800c34 <s_NumOfTaskScheduled>
    5558:	28 2f       	mov	r18, r24
    555a:	30 e0       	ldi	r19, 0x00	; 0
    555c:	c9 01       	movw	r24, r18
    555e:	88 0f       	add	r24, r24
    5560:	99 1f       	adc	r25, r25
    5562:	82 0f       	add	r24, r18
    5564:	93 1f       	adc	r25, r19
    5566:	88 0f       	add	r24, r24
    5568:	99 1f       	adc	r25, r25
    556a:	88 50       	subi	r24, 0x08	; 8
    556c:	94 4f       	sbci	r25, 0xF4	; 244
    556e:	9b 83       	std	Y+3, r25	; 0x03
    5570:	8a 83       	std	Y+2, r24	; 0x02
    5572:	8a 81       	ldd	r24, Y+2	; 0x02
    5574:	9b 81       	ldd	r25, Y+3	; 0x03
    5576:	2e 81       	ldd	r18, Y+6	; 0x06
    5578:	3f 81       	ldd	r19, Y+7	; 0x07
    557a:	fc 01       	movw	r30, r24
    557c:	35 83       	std	Z+5, r19	; 0x05
    557e:	24 83       	std	Z+4, r18	; 0x04
    5580:	8a 81       	ldd	r24, Y+2	; 0x02
    5582:	9b 81       	ldd	r25, Y+3	; 0x03
    5584:	fc 01       	movw	r30, r24
    5586:	11 82       	std	Z+1, r1	; 0x01
    5588:	8a 81       	ldd	r24, Y+2	; 0x02
    558a:	9b 81       	ldd	r25, Y+3	; 0x03
    558c:	fc 01       	movw	r30, r24
    558e:	13 82       	std	Z+3, r1	; 0x03
    5590:	12 82       	std	Z+2, r1	; 0x02
    5592:	8a 81       	ldd	r24, Y+2	; 0x02
    5594:	9b 81       	ldd	r25, Y+3	; 0x03
    5596:	21 e0       	ldi	r18, 0x01	; 1
    5598:	fc 01       	movw	r30, r24
    559a:	20 83       	st	Z, r18
    559c:	20 91 34 0c 	lds	r18, 0x0C34	; 0x800c34 <s_NumOfTaskScheduled>
    55a0:	8c 81       	ldd	r24, Y+4	; 0x04
    55a2:	9d 81       	ldd	r25, Y+5	; 0x05
    55a4:	fc 01       	movw	r30, r24
    55a6:	20 83       	st	Z, r18
    55a8:	80 91 34 0c 	lds	r24, 0x0C34	; 0x800c34 <s_NumOfTaskScheduled>
    55ac:	8f 5f       	subi	r24, 0xFF	; 255
    55ae:	80 93 34 0c 	sts	0x0C34, r24	; 0x800c34 <s_NumOfTaskScheduled>
    55b2:	19 82       	std	Y+1, r1	; 0x01
    55b4:	89 81       	ldd	r24, Y+1	; 0x01
    55b6:	27 96       	adiw	r28, 0x07	; 7
    55b8:	0f b6       	in	r0, 0x3f	; 63
    55ba:	f8 94       	cli
    55bc:	de bf       	out	0x3e, r29	; 62
    55be:	0f be       	out	0x3f, r0	; 63
    55c0:	cd bf       	out	0x3d, r28	; 61
    55c2:	df 91       	pop	r29
    55c4:	cf 91       	pop	r28
    55c6:	08 95       	ret

000055c8 <SCH_TIM_CreateTimer>:
    55c8:	cf 93       	push	r28
    55ca:	df 93       	push	r29
    55cc:	cd b7       	in	r28, 0x3d	; 61
    55ce:	de b7       	in	r29, 0x3e	; 62
    55d0:	27 97       	sbiw	r28, 0x07	; 7
    55d2:	0f b6       	in	r0, 0x3f	; 63
    55d4:	f8 94       	cli
    55d6:	de bf       	out	0x3e, r29	; 62
    55d8:	0f be       	out	0x3f, r0	; 63
    55da:	cd bf       	out	0x3d, r28	; 61
    55dc:	9d 83       	std	Y+5, r25	; 0x05
    55de:	8c 83       	std	Y+4, r24	; 0x04
    55e0:	7f 83       	std	Y+7, r23	; 0x07
    55e2:	6e 83       	std	Y+6, r22	; 0x06
    55e4:	81 e0       	ldi	r24, 0x01	; 1
    55e6:	89 83       	std	Y+1, r24	; 0x01
    55e8:	8c 81       	ldd	r24, Y+4	; 0x04
    55ea:	9d 81       	ldd	r25, Y+5	; 0x05
    55ec:	89 2b       	or	r24, r25
    55ee:	b9 f1       	breq	.+110    	; 0x565e <SCH_TIM_CreateTimer+0x96>
    55f0:	8e 81       	ldd	r24, Y+6	; 0x06
    55f2:	9f 81       	ldd	r25, Y+7	; 0x07
    55f4:	89 2b       	or	r24, r25
    55f6:	99 f1       	breq	.+102    	; 0x565e <SCH_TIM_CreateTimer+0x96>
    55f8:	80 91 53 0c 	lds	r24, 0x0C53	; 0x800c53 <s_NumOfTimers>
    55fc:	84 30       	cpi	r24, 0x04	; 4
    55fe:	78 f5       	brcc	.+94     	; 0x565e <SCH_TIM_CreateTimer+0x96>
    5600:	80 91 53 0c 	lds	r24, 0x0C53	; 0x800c53 <s_NumOfTimers>
    5604:	28 2f       	mov	r18, r24
    5606:	30 e0       	ldi	r19, 0x00	; 0
    5608:	c9 01       	movw	r24, r18
    560a:	88 0f       	add	r24, r24
    560c:	99 1f       	adc	r25, r25
    560e:	82 0f       	add	r24, r18
    5610:	93 1f       	adc	r25, r19
    5612:	88 0f       	add	r24, r24
    5614:	99 1f       	adc	r25, r25
    5616:	8b 5c       	subi	r24, 0xCB	; 203
    5618:	93 4f       	sbci	r25, 0xF3	; 243
    561a:	9b 83       	std	Y+3, r25	; 0x03
    561c:	8a 83       	std	Y+2, r24	; 0x02
    561e:	8a 81       	ldd	r24, Y+2	; 0x02
    5620:	9b 81       	ldd	r25, Y+3	; 0x03
    5622:	2e 81       	ldd	r18, Y+6	; 0x06
    5624:	3f 81       	ldd	r19, Y+7	; 0x07
    5626:	fc 01       	movw	r30, r24
    5628:	35 83       	std	Z+5, r19	; 0x05
    562a:	24 83       	std	Z+4, r18	; 0x04
    562c:	8a 81       	ldd	r24, Y+2	; 0x02
    562e:	9b 81       	ldd	r25, Y+3	; 0x03
    5630:	fc 01       	movw	r30, r24
    5632:	10 82       	st	Z, r1
    5634:	8a 81       	ldd	r24, Y+2	; 0x02
    5636:	9b 81       	ldd	r25, Y+3	; 0x03
    5638:	fc 01       	movw	r30, r24
    563a:	11 82       	std	Z+1, r1	; 0x01
    563c:	8a 81       	ldd	r24, Y+2	; 0x02
    563e:	9b 81       	ldd	r25, Y+3	; 0x03
    5640:	fc 01       	movw	r30, r24
    5642:	13 82       	std	Z+3, r1	; 0x03
    5644:	12 82       	std	Z+2, r1	; 0x02
    5646:	20 91 53 0c 	lds	r18, 0x0C53	; 0x800c53 <s_NumOfTimers>
    564a:	8c 81       	ldd	r24, Y+4	; 0x04
    564c:	9d 81       	ldd	r25, Y+5	; 0x05
    564e:	fc 01       	movw	r30, r24
    5650:	20 83       	st	Z, r18
    5652:	80 91 53 0c 	lds	r24, 0x0C53	; 0x800c53 <s_NumOfTimers>
    5656:	8f 5f       	subi	r24, 0xFF	; 255
    5658:	80 93 53 0c 	sts	0x0C53, r24	; 0x800c53 <s_NumOfTimers>
    565c:	19 82       	std	Y+1, r1	; 0x01
    565e:	89 81       	ldd	r24, Y+1	; 0x01
    5660:	27 96       	adiw	r28, 0x07	; 7
    5662:	0f b6       	in	r0, 0x3f	; 63
    5664:	f8 94       	cli
    5666:	de bf       	out	0x3e, r29	; 62
    5668:	0f be       	out	0x3f, r0	; 63
    566a:	cd bf       	out	0x3d, r28	; 61
    566c:	df 91       	pop	r29
    566e:	cf 91       	pop	r28
    5670:	08 95       	ret

00005672 <SCH_TIM_RestartTimer>:
    5672:	cf 93       	push	r28
    5674:	df 93       	push	r29
    5676:	00 d0       	rcall	.+0      	; 0x5678 <SCH_TIM_RestartTimer+0x6>
    5678:	00 d0       	rcall	.+0      	; 0x567a <SCH_TIM_RestartTimer+0x8>
    567a:	cd b7       	in	r28, 0x3d	; 61
    567c:	de b7       	in	r29, 0x3e	; 62
    567e:	8c 83       	std	Y+4, r24	; 0x04
    5680:	81 e0       	ldi	r24, 0x01	; 1
    5682:	89 83       	std	Y+1, r24	; 0x01
    5684:	80 91 53 0c 	lds	r24, 0x0C53	; 0x800c53 <s_NumOfTimers>
    5688:	9c 81       	ldd	r25, Y+4	; 0x04
    568a:	98 17       	cp	r25, r24
    568c:	c8 f4       	brcc	.+50     	; 0x56c0 <SCH_TIM_RestartTimer+0x4e>
    568e:	8c 81       	ldd	r24, Y+4	; 0x04
    5690:	28 2f       	mov	r18, r24
    5692:	30 e0       	ldi	r19, 0x00	; 0
    5694:	c9 01       	movw	r24, r18
    5696:	88 0f       	add	r24, r24
    5698:	99 1f       	adc	r25, r25
    569a:	82 0f       	add	r24, r18
    569c:	93 1f       	adc	r25, r19
    569e:	88 0f       	add	r24, r24
    56a0:	99 1f       	adc	r25, r25
    56a2:	8b 5c       	subi	r24, 0xCB	; 203
    56a4:	93 4f       	sbci	r25, 0xF3	; 243
    56a6:	9b 83       	std	Y+3, r25	; 0x03
    56a8:	8a 83       	std	Y+2, r24	; 0x02
    56aa:	8a 81       	ldd	r24, Y+2	; 0x02
    56ac:	9b 81       	ldd	r25, Y+3	; 0x03
    56ae:	fc 01       	movw	r30, r24
    56b0:	13 82       	std	Z+3, r1	; 0x03
    56b2:	12 82       	std	Z+2, r1	; 0x02
    56b4:	8a 81       	ldd	r24, Y+2	; 0x02
    56b6:	9b 81       	ldd	r25, Y+3	; 0x03
    56b8:	21 e0       	ldi	r18, 0x01	; 1
    56ba:	fc 01       	movw	r30, r24
    56bc:	20 83       	st	Z, r18
    56be:	19 82       	std	Y+1, r1	; 0x01
    56c0:	89 81       	ldd	r24, Y+1	; 0x01
    56c2:	0f 90       	pop	r0
    56c4:	0f 90       	pop	r0
    56c6:	0f 90       	pop	r0
    56c8:	0f 90       	pop	r0
    56ca:	df 91       	pop	r29
    56cc:	cf 91       	pop	r28
    56ce:	08 95       	ret

000056d0 <SCH_RunSystemTickTimer>:
    56d0:	cf 93       	push	r28
    56d2:	df 93       	push	r29
    56d4:	00 d0       	rcall	.+0      	; 0x56d6 <SCH_RunSystemTickTimer+0x6>
    56d6:	00 d0       	rcall	.+0      	; 0x56d8 <SCH_RunSystemTickTimer+0x8>
    56d8:	00 d0       	rcall	.+0      	; 0x56da <SCH_RunSystemTickTimer+0xa>
    56da:	cd b7       	in	r28, 0x3d	; 61
    56dc:	de b7       	in	r29, 0x3e	; 62
    56de:	80 91 4b 0f 	lds	r24, 0x0F4B	; 0x800f4b <s_SystemTick>
    56e2:	90 91 4c 0f 	lds	r25, 0x0F4C	; 0x800f4c <s_SystemTick+0x1>
    56e6:	01 96       	adiw	r24, 0x01	; 1
    56e8:	90 93 4c 0f 	sts	0x0F4C, r25	; 0x800f4c <s_SystemTick+0x1>
    56ec:	80 93 4b 0f 	sts	0x0F4B, r24	; 0x800f4b <s_SystemTick>
    56f0:	19 82       	std	Y+1, r1	; 0x01
    56f2:	47 c0       	rjmp	.+142    	; 0x5782 <SCH_RunSystemTickTimer+0xb2>
    56f4:	89 81       	ldd	r24, Y+1	; 0x01
    56f6:	28 2f       	mov	r18, r24
    56f8:	30 e0       	ldi	r19, 0x00	; 0
    56fa:	c9 01       	movw	r24, r18
    56fc:	88 0f       	add	r24, r24
    56fe:	99 1f       	adc	r25, r25
    5700:	82 0f       	add	r24, r18
    5702:	93 1f       	adc	r25, r19
    5704:	88 0f       	add	r24, r24
    5706:	99 1f       	adc	r25, r25
    5708:	88 50       	subi	r24, 0x08	; 8
    570a:	94 4f       	sbci	r25, 0xF4	; 244
    570c:	9c 83       	std	Y+4, r25	; 0x04
    570e:	8b 83       	std	Y+3, r24	; 0x03
    5710:	8b 81       	ldd	r24, Y+3	; 0x03
    5712:	9c 81       	ldd	r25, Y+4	; 0x04
    5714:	fc 01       	movw	r30, r24
    5716:	84 81       	ldd	r24, Z+4	; 0x04
    5718:	95 81       	ldd	r25, Z+5	; 0x05
    571a:	fc 01       	movw	r30, r24
    571c:	80 81       	ld	r24, Z
    571e:	81 30       	cpi	r24, 0x01	; 1
    5720:	69 f5       	brne	.+90     	; 0x577c <SCH_RunSystemTickTimer+0xac>
    5722:	8b 81       	ldd	r24, Y+3	; 0x03
    5724:	9c 81       	ldd	r25, Y+4	; 0x04
    5726:	fc 01       	movw	r30, r24
    5728:	80 81       	ld	r24, Z
    572a:	81 30       	cpi	r24, 0x01	; 1
    572c:	39 f5       	brne	.+78     	; 0x577c <SCH_RunSystemTickTimer+0xac>
    572e:	8b 81       	ldd	r24, Y+3	; 0x03
    5730:	9c 81       	ldd	r25, Y+4	; 0x04
    5732:	fc 01       	movw	r30, r24
    5734:	82 81       	ldd	r24, Z+2	; 0x02
    5736:	93 81       	ldd	r25, Z+3	; 0x03
    5738:	9c 01       	movw	r18, r24
    573a:	2f 5f       	subi	r18, 0xFF	; 255
    573c:	3f 4f       	sbci	r19, 0xFF	; 255
    573e:	8b 81       	ldd	r24, Y+3	; 0x03
    5740:	9c 81       	ldd	r25, Y+4	; 0x04
    5742:	fc 01       	movw	r30, r24
    5744:	33 83       	std	Z+3, r19	; 0x03
    5746:	22 83       	std	Z+2, r18	; 0x02
    5748:	8b 81       	ldd	r24, Y+3	; 0x03
    574a:	9c 81       	ldd	r25, Y+4	; 0x04
    574c:	fc 01       	movw	r30, r24
    574e:	22 81       	ldd	r18, Z+2	; 0x02
    5750:	33 81       	ldd	r19, Z+3	; 0x03
    5752:	8b 81       	ldd	r24, Y+3	; 0x03
    5754:	9c 81       	ldd	r25, Y+4	; 0x04
    5756:	fc 01       	movw	r30, r24
    5758:	84 81       	ldd	r24, Z+4	; 0x04
    575a:	95 81       	ldd	r25, Z+5	; 0x05
    575c:	fc 01       	movw	r30, r24
    575e:	82 81       	ldd	r24, Z+2	; 0x02
    5760:	93 81       	ldd	r25, Z+3	; 0x03
    5762:	28 17       	cp	r18, r24
    5764:	39 07       	cpc	r19, r25
    5766:	50 f0       	brcs	.+20     	; 0x577c <SCH_RunSystemTickTimer+0xac>
    5768:	8b 81       	ldd	r24, Y+3	; 0x03
    576a:	9c 81       	ldd	r25, Y+4	; 0x04
    576c:	fc 01       	movw	r30, r24
    576e:	13 82       	std	Z+3, r1	; 0x03
    5770:	12 82       	std	Z+2, r1	; 0x02
    5772:	8b 81       	ldd	r24, Y+3	; 0x03
    5774:	9c 81       	ldd	r25, Y+4	; 0x04
    5776:	21 e0       	ldi	r18, 0x01	; 1
    5778:	fc 01       	movw	r30, r24
    577a:	21 83       	std	Z+1, r18	; 0x01
    577c:	89 81       	ldd	r24, Y+1	; 0x01
    577e:	8f 5f       	subi	r24, 0xFF	; 255
    5780:	89 83       	std	Y+1, r24	; 0x01
    5782:	80 91 34 0c 	lds	r24, 0x0C34	; 0x800c34 <s_NumOfTaskScheduled>
    5786:	99 81       	ldd	r25, Y+1	; 0x01
    5788:	98 17       	cp	r25, r24
    578a:	08 f4       	brcc	.+2      	; 0x578e <SCH_RunSystemTickTimer+0xbe>
    578c:	b3 cf       	rjmp	.-154    	; 0x56f4 <SCH_RunSystemTickTimer+0x24>
    578e:	1a 82       	std	Y+2, r1	; 0x02
    5790:	4e c0       	rjmp	.+156    	; 0x582e <SCH_RunSystemTickTimer+0x15e>
    5792:	8a 81       	ldd	r24, Y+2	; 0x02
    5794:	28 2f       	mov	r18, r24
    5796:	30 e0       	ldi	r19, 0x00	; 0
    5798:	c9 01       	movw	r24, r18
    579a:	88 0f       	add	r24, r24
    579c:	99 1f       	adc	r25, r25
    579e:	82 0f       	add	r24, r18
    57a0:	93 1f       	adc	r25, r19
    57a2:	88 0f       	add	r24, r24
    57a4:	99 1f       	adc	r25, r25
    57a6:	8b 5c       	subi	r24, 0xCB	; 203
    57a8:	93 4f       	sbci	r25, 0xF3	; 243
    57aa:	9e 83       	std	Y+6, r25	; 0x06
    57ac:	8d 83       	std	Y+5, r24	; 0x05
    57ae:	8d 81       	ldd	r24, Y+5	; 0x05
    57b0:	9e 81       	ldd	r25, Y+6	; 0x06
    57b2:	fc 01       	movw	r30, r24
    57b4:	80 81       	ld	r24, Z
    57b6:	81 30       	cpi	r24, 0x01	; 1
    57b8:	b9 f5       	brne	.+110    	; 0x5828 <SCH_RunSystemTickTimer+0x158>
    57ba:	8d 81       	ldd	r24, Y+5	; 0x05
    57bc:	9e 81       	ldd	r25, Y+6	; 0x06
    57be:	fc 01       	movw	r30, r24
    57c0:	82 81       	ldd	r24, Z+2	; 0x02
    57c2:	93 81       	ldd	r25, Z+3	; 0x03
    57c4:	9c 01       	movw	r18, r24
    57c6:	2f 5f       	subi	r18, 0xFF	; 255
    57c8:	3f 4f       	sbci	r19, 0xFF	; 255
    57ca:	8d 81       	ldd	r24, Y+5	; 0x05
    57cc:	9e 81       	ldd	r25, Y+6	; 0x06
    57ce:	fc 01       	movw	r30, r24
    57d0:	33 83       	std	Z+3, r19	; 0x03
    57d2:	22 83       	std	Z+2, r18	; 0x02
    57d4:	8d 81       	ldd	r24, Y+5	; 0x05
    57d6:	9e 81       	ldd	r25, Y+6	; 0x06
    57d8:	fc 01       	movw	r30, r24
    57da:	22 81       	ldd	r18, Z+2	; 0x02
    57dc:	33 81       	ldd	r19, Z+3	; 0x03
    57de:	8d 81       	ldd	r24, Y+5	; 0x05
    57e0:	9e 81       	ldd	r25, Y+6	; 0x06
    57e2:	fc 01       	movw	r30, r24
    57e4:	84 81       	ldd	r24, Z+4	; 0x04
    57e6:	95 81       	ldd	r25, Z+5	; 0x05
    57e8:	fc 01       	movw	r30, r24
    57ea:	81 81       	ldd	r24, Z+1	; 0x01
    57ec:	92 81       	ldd	r25, Z+2	; 0x02
    57ee:	28 17       	cp	r18, r24
    57f0:	39 07       	cpc	r19, r25
    57f2:	d0 f0       	brcs	.+52     	; 0x5828 <SCH_RunSystemTickTimer+0x158>
    57f4:	8d 81       	ldd	r24, Y+5	; 0x05
    57f6:	9e 81       	ldd	r25, Y+6	; 0x06
    57f8:	21 e0       	ldi	r18, 0x01	; 1
    57fa:	fc 01       	movw	r30, r24
    57fc:	21 83       	std	Z+1, r18	; 0x01
    57fe:	8d 81       	ldd	r24, Y+5	; 0x05
    5800:	9e 81       	ldd	r25, Y+6	; 0x06
    5802:	fc 01       	movw	r30, r24
    5804:	13 82       	std	Z+3, r1	; 0x03
    5806:	12 82       	std	Z+2, r1	; 0x02
    5808:	8d 81       	ldd	r24, Y+5	; 0x05
    580a:	9e 81       	ldd	r25, Y+6	; 0x06
    580c:	fc 01       	movw	r30, r24
    580e:	84 81       	ldd	r24, Z+4	; 0x04
    5810:	95 81       	ldd	r25, Z+5	; 0x05
    5812:	fc 01       	movw	r30, r24
    5814:	90 81       	ld	r25, Z
    5816:	81 e0       	ldi	r24, 0x01	; 1
    5818:	92 30       	cpi	r25, 0x02	; 2
    581a:	09 f0       	breq	.+2      	; 0x581e <SCH_RunSystemTickTimer+0x14e>
    581c:	80 e0       	ldi	r24, 0x00	; 0
    581e:	28 2f       	mov	r18, r24
    5820:	8d 81       	ldd	r24, Y+5	; 0x05
    5822:	9e 81       	ldd	r25, Y+6	; 0x06
    5824:	fc 01       	movw	r30, r24
    5826:	20 83       	st	Z, r18
    5828:	8a 81       	ldd	r24, Y+2	; 0x02
    582a:	8f 5f       	subi	r24, 0xFF	; 255
    582c:	8a 83       	std	Y+2, r24	; 0x02
    582e:	80 91 53 0c 	lds	r24, 0x0C53	; 0x800c53 <s_NumOfTimers>
    5832:	9a 81       	ldd	r25, Y+2	; 0x02
    5834:	98 17       	cp	r25, r24
    5836:	08 f4       	brcc	.+2      	; 0x583a <SCH_RunSystemTickTimer+0x16a>
    5838:	ac cf       	rjmp	.-168    	; 0x5792 <SCH_RunSystemTickTimer+0xc2>
    583a:	1a 82       	std	Y+2, r1	; 0x02
    583c:	23 c0       	rjmp	.+70     	; 0x5884 <SCH_RunSystemTickTimer+0x1b4>
    583e:	8a 81       	ldd	r24, Y+2	; 0x02
    5840:	88 2f       	mov	r24, r24
    5842:	90 e0       	ldi	r25, 0x00	; 0
    5844:	88 0f       	add	r24, r24
    5846:	99 1f       	adc	r25, r25
    5848:	83 5b       	subi	r24, 0xB3	; 179
    584a:	90 4f       	sbci	r25, 0xF0	; 240
    584c:	fc 01       	movw	r30, r24
    584e:	80 81       	ld	r24, Z
    5850:	91 81       	ldd	r25, Z+1	; 0x01
    5852:	89 2b       	or	r24, r25
    5854:	a1 f0       	breq	.+40     	; 0x587e <SCH_RunSystemTickTimer+0x1ae>
    5856:	8a 81       	ldd	r24, Y+2	; 0x02
    5858:	88 2f       	mov	r24, r24
    585a:	90 e0       	ldi	r25, 0x00	; 0
    585c:	9c 01       	movw	r18, r24
    585e:	22 0f       	add	r18, r18
    5860:	33 1f       	adc	r19, r19
    5862:	23 5b       	subi	r18, 0xB3	; 179
    5864:	30 4f       	sbci	r19, 0xF0	; 240
    5866:	f9 01       	movw	r30, r18
    5868:	20 81       	ld	r18, Z
    586a:	31 81       	ldd	r19, Z+1	; 0x01
    586c:	21 50       	subi	r18, 0x01	; 1
    586e:	31 09       	sbc	r19, r1
    5870:	88 0f       	add	r24, r24
    5872:	99 1f       	adc	r25, r25
    5874:	83 5b       	subi	r24, 0xB3	; 179
    5876:	90 4f       	sbci	r25, 0xF0	; 240
    5878:	fc 01       	movw	r30, r24
    587a:	31 83       	std	Z+1, r19	; 0x01
    587c:	20 83       	st	Z, r18
    587e:	8a 81       	ldd	r24, Y+2	; 0x02
    5880:	8f 5f       	subi	r24, 0xFF	; 255
    5882:	8a 83       	std	Y+2, r24	; 0x02
    5884:	8a 81       	ldd	r24, Y+2	; 0x02
    5886:	82 30       	cpi	r24, 0x02	; 2
    5888:	d0 f2       	brcs	.-76     	; 0x583e <SCH_RunSystemTickTimer+0x16e>
    588a:	00 00       	nop
    588c:	26 96       	adiw	r28, 0x06	; 6
    588e:	0f b6       	in	r0, 0x3f	; 63
    5890:	f8 94       	cli
    5892:	de bf       	out	0x3e, r29	; 62
    5894:	0f be       	out	0x3f, r0	; 63
    5896:	cd bf       	out	0x3d, r28	; 61
    5898:	df 91       	pop	r29
    589a:	cf 91       	pop	r28
    589c:	08 95       	ret

0000589e <SCH_StartSchedular>:
    589e:	cf 93       	push	r28
    58a0:	df 93       	push	r29
    58a2:	cd b7       	in	r28, 0x3d	; 61
    58a4:	de b7       	in	r29, 0x3e	; 62
    58a6:	0e 94 a0 18 	call	0x3140	; 0x3140 <timer_start_timer0>
    58aa:	00 00       	nop
    58ac:	df 91       	pop	r29
    58ae:	cf 91       	pop	r28
    58b0:	08 95       	ret

000058b2 <SCH_HandleScheduledTask>:
    58b2:	cf 93       	push	r28
    58b4:	df 93       	push	r29
    58b6:	00 d0       	rcall	.+0      	; 0x58b8 <SCH_HandleScheduledTask+0x6>
    58b8:	00 d0       	rcall	.+0      	; 0x58ba <SCH_HandleScheduledTask+0x8>
    58ba:	00 d0       	rcall	.+0      	; 0x58bc <SCH_HandleScheduledTask+0xa>
    58bc:	cd b7       	in	r28, 0x3d	; 61
    58be:	de b7       	in	r29, 0x3e	; 62
    58c0:	19 82       	std	Y+1, r1	; 0x01
    58c2:	35 c0       	rjmp	.+106    	; 0x592e <SCH_HandleScheduledTask+0x7c>
    58c4:	89 81       	ldd	r24, Y+1	; 0x01
    58c6:	28 2f       	mov	r18, r24
    58c8:	30 e0       	ldi	r19, 0x00	; 0
    58ca:	c9 01       	movw	r24, r18
    58cc:	88 0f       	add	r24, r24
    58ce:	99 1f       	adc	r25, r25
    58d0:	82 0f       	add	r24, r18
    58d2:	93 1f       	adc	r25, r19
    58d4:	88 0f       	add	r24, r24
    58d6:	99 1f       	adc	r25, r25
    58d8:	88 50       	subi	r24, 0x08	; 8
    58da:	94 4f       	sbci	r25, 0xF4	; 244
    58dc:	9c 83       	std	Y+4, r25	; 0x04
    58de:	8b 83       	std	Y+3, r24	; 0x03
    58e0:	8b 81       	ldd	r24, Y+3	; 0x03
    58e2:	9c 81       	ldd	r25, Y+4	; 0x04
    58e4:	fc 01       	movw	r30, r24
    58e6:	81 81       	ldd	r24, Z+1	; 0x01
    58e8:	81 30       	cpi	r24, 0x01	; 1
    58ea:	f1 f4       	brne	.+60     	; 0x5928 <SCH_HandleScheduledTask+0x76>
    58ec:	8b 81       	ldd	r24, Y+3	; 0x03
    58ee:	9c 81       	ldd	r25, Y+4	; 0x04
    58f0:	fc 01       	movw	r30, r24
    58f2:	80 81       	ld	r24, Z
    58f4:	81 30       	cpi	r24, 0x01	; 1
    58f6:	c1 f4       	brne	.+48     	; 0x5928 <SCH_HandleScheduledTask+0x76>
    58f8:	8b 81       	ldd	r24, Y+3	; 0x03
    58fa:	9c 81       	ldd	r25, Y+4	; 0x04
    58fc:	fc 01       	movw	r30, r24
    58fe:	11 82       	std	Z+1, r1	; 0x01
    5900:	8b 81       	ldd	r24, Y+3	; 0x03
    5902:	9c 81       	ldd	r25, Y+4	; 0x04
    5904:	fc 01       	movw	r30, r24
    5906:	84 81       	ldd	r24, Z+4	; 0x04
    5908:	95 81       	ldd	r25, Z+5	; 0x05
    590a:	fc 01       	movw	r30, r24
    590c:	84 81       	ldd	r24, Z+4	; 0x04
    590e:	95 81       	ldd	r25, Z+5	; 0x05
    5910:	89 2b       	or	r24, r25
    5912:	51 f0       	breq	.+20     	; 0x5928 <SCH_HandleScheduledTask+0x76>
    5914:	8b 81       	ldd	r24, Y+3	; 0x03
    5916:	9c 81       	ldd	r25, Y+4	; 0x04
    5918:	fc 01       	movw	r30, r24
    591a:	84 81       	ldd	r24, Z+4	; 0x04
    591c:	95 81       	ldd	r25, Z+5	; 0x05
    591e:	fc 01       	movw	r30, r24
    5920:	84 81       	ldd	r24, Z+4	; 0x04
    5922:	95 81       	ldd	r25, Z+5	; 0x05
    5924:	fc 01       	movw	r30, r24
    5926:	09 95       	icall
    5928:	89 81       	ldd	r24, Y+1	; 0x01
    592a:	8f 5f       	subi	r24, 0xFF	; 255
    592c:	89 83       	std	Y+1, r24	; 0x01
    592e:	80 91 34 0c 	lds	r24, 0x0C34	; 0x800c34 <s_NumOfTaskScheduled>
    5932:	99 81       	ldd	r25, Y+1	; 0x01
    5934:	98 17       	cp	r25, r24
    5936:	30 f2       	brcs	.-116    	; 0x58c4 <SCH_HandleScheduledTask+0x12>
    5938:	1a 82       	std	Y+2, r1	; 0x02
    593a:	2f c0       	rjmp	.+94     	; 0x599a <SCH_HandleScheduledTask+0xe8>
    593c:	8a 81       	ldd	r24, Y+2	; 0x02
    593e:	28 2f       	mov	r18, r24
    5940:	30 e0       	ldi	r19, 0x00	; 0
    5942:	c9 01       	movw	r24, r18
    5944:	88 0f       	add	r24, r24
    5946:	99 1f       	adc	r25, r25
    5948:	82 0f       	add	r24, r18
    594a:	93 1f       	adc	r25, r19
    594c:	88 0f       	add	r24, r24
    594e:	99 1f       	adc	r25, r25
    5950:	8b 5c       	subi	r24, 0xCB	; 203
    5952:	93 4f       	sbci	r25, 0xF3	; 243
    5954:	9e 83       	std	Y+6, r25	; 0x06
    5956:	8d 83       	std	Y+5, r24	; 0x05
    5958:	8d 81       	ldd	r24, Y+5	; 0x05
    595a:	9e 81       	ldd	r25, Y+6	; 0x06
    595c:	fc 01       	movw	r30, r24
    595e:	81 81       	ldd	r24, Z+1	; 0x01
    5960:	81 30       	cpi	r24, 0x01	; 1
    5962:	c1 f4       	brne	.+48     	; 0x5994 <SCH_HandleScheduledTask+0xe2>
    5964:	8d 81       	ldd	r24, Y+5	; 0x05
    5966:	9e 81       	ldd	r25, Y+6	; 0x06
    5968:	fc 01       	movw	r30, r24
    596a:	11 82       	std	Z+1, r1	; 0x01
    596c:	8d 81       	ldd	r24, Y+5	; 0x05
    596e:	9e 81       	ldd	r25, Y+6	; 0x06
    5970:	fc 01       	movw	r30, r24
    5972:	84 81       	ldd	r24, Z+4	; 0x04
    5974:	95 81       	ldd	r25, Z+5	; 0x05
    5976:	fc 01       	movw	r30, r24
    5978:	83 81       	ldd	r24, Z+3	; 0x03
    597a:	94 81       	ldd	r25, Z+4	; 0x04
    597c:	89 2b       	or	r24, r25
    597e:	51 f0       	breq	.+20     	; 0x5994 <SCH_HandleScheduledTask+0xe2>
    5980:	8d 81       	ldd	r24, Y+5	; 0x05
    5982:	9e 81       	ldd	r25, Y+6	; 0x06
    5984:	fc 01       	movw	r30, r24
    5986:	84 81       	ldd	r24, Z+4	; 0x04
    5988:	95 81       	ldd	r25, Z+5	; 0x05
    598a:	fc 01       	movw	r30, r24
    598c:	83 81       	ldd	r24, Z+3	; 0x03
    598e:	94 81       	ldd	r25, Z+4	; 0x04
    5990:	fc 01       	movw	r30, r24
    5992:	09 95       	icall
    5994:	8a 81       	ldd	r24, Y+2	; 0x02
    5996:	8f 5f       	subi	r24, 0xFF	; 255
    5998:	8a 83       	std	Y+2, r24	; 0x02
    599a:	80 91 53 0c 	lds	r24, 0x0C53	; 0x800c53 <s_NumOfTimers>
    599e:	9a 81       	ldd	r25, Y+2	; 0x02
    59a0:	98 17       	cp	r25, r24
    59a2:	60 f2       	brcs	.-104    	; 0x593c <SCH_HandleScheduledTask+0x8a>
    59a4:	00 00       	nop
    59a6:	26 96       	adiw	r28, 0x06	; 6
    59a8:	0f b6       	in	r0, 0x3f	; 63
    59aa:	f8 94       	cli
    59ac:	de bf       	out	0x3e, r29	; 62
    59ae:	0f be       	out	0x3f, r0	; 63
    59b0:	cd bf       	out	0x3d, r28	; 61
    59b2:	df 91       	pop	r29
    59b4:	cf 91       	pop	r28
    59b6:	08 95       	ret

000059b8 <__vector_15>:

ISR (TIMER0_COMP_vect)
{
    59b8:	1f 92       	push	r1
    59ba:	0f 92       	push	r0
    59bc:	00 90 5f 00 	lds	r0, 0x005F	; 0x80005f <__TEXT_REGION_LENGTH__+0x7f005f>
    59c0:	0f 92       	push	r0
    59c2:	11 24       	eor	r1, r1
    59c4:	2f 93       	push	r18
    59c6:	3f 93       	push	r19
    59c8:	4f 93       	push	r20
    59ca:	5f 93       	push	r21
    59cc:	6f 93       	push	r22
    59ce:	7f 93       	push	r23
    59d0:	8f 93       	push	r24
    59d2:	9f 93       	push	r25
    59d4:	af 93       	push	r26
    59d6:	bf 93       	push	r27
    59d8:	ef 93       	push	r30
    59da:	ff 93       	push	r31
    59dc:	cf 93       	push	r28
    59de:	df 93       	push	r29
    59e0:	cd b7       	in	r28, 0x3d	; 61
    59e2:	de b7       	in	r29, 0x3e	; 62
	SCH_RunSystemTickTimer();
    59e4:	0e 94 68 2b 	call	0x56d0	; 0x56d0 <SCH_RunSystemTickTimer>
    59e8:	00 00       	nop
    59ea:	df 91       	pop	r29
    59ec:	cf 91       	pop	r28
    59ee:	ff 91       	pop	r31
    59f0:	ef 91       	pop	r30
    59f2:	bf 91       	pop	r27
    59f4:	af 91       	pop	r26
    59f6:	9f 91       	pop	r25
    59f8:	8f 91       	pop	r24
    59fa:	7f 91       	pop	r23
    59fc:	6f 91       	pop	r22
    59fe:	5f 91       	pop	r21
    5a00:	4f 91       	pop	r20
    5a02:	3f 91       	pop	r19
    5a04:	2f 91       	pop	r18
    5a06:	0f 90       	pop	r0
    5a08:	00 92 5f 00 	sts	0x005F, r0	; 0x80005f <__TEXT_REGION_LENGTH__+0x7f005f>
    5a0c:	0f 90       	pop	r0
    5a0e:	1f 90       	pop	r1
    5a10:	18 95       	reti

00005a12 <__subsf3>:
    5a12:	50 58       	subi	r21, 0x80	; 128

00005a14 <__addsf3>:
    5a14:	bb 27       	eor	r27, r27
    5a16:	aa 27       	eor	r26, r26
    5a18:	0e 94 21 2d 	call	0x5a42	; 0x5a42 <__addsf3x>
    5a1c:	0c 94 9b 2e 	jmp	0x5d36	; 0x5d36 <__fp_round>
    5a20:	0e 94 8d 2e 	call	0x5d1a	; 0x5d1a <__fp_pscA>
    5a24:	38 f0       	brcs	.+14     	; 0x5a34 <__addsf3+0x20>
    5a26:	0e 94 94 2e 	call	0x5d28	; 0x5d28 <__fp_pscB>
    5a2a:	20 f0       	brcs	.+8      	; 0x5a34 <__addsf3+0x20>
    5a2c:	39 f4       	brne	.+14     	; 0x5a3c <__addsf3+0x28>
    5a2e:	9f 3f       	cpi	r25, 0xFF	; 255
    5a30:	19 f4       	brne	.+6      	; 0x5a38 <__addsf3+0x24>
    5a32:	26 f4       	brtc	.+8      	; 0x5a3c <__addsf3+0x28>
    5a34:	0c 94 8a 2e 	jmp	0x5d14	; 0x5d14 <__fp_nan>
    5a38:	0e f4       	brtc	.+2      	; 0x5a3c <__addsf3+0x28>
    5a3a:	e0 95       	com	r30
    5a3c:	e7 fb       	bst	r30, 7
    5a3e:	0c 94 84 2e 	jmp	0x5d08	; 0x5d08 <__fp_inf>

00005a42 <__addsf3x>:
    5a42:	e9 2f       	mov	r30, r25
    5a44:	0e 94 ac 2e 	call	0x5d58	; 0x5d58 <__fp_split3>
    5a48:	58 f3       	brcs	.-42     	; 0x5a20 <__addsf3+0xc>
    5a4a:	ba 17       	cp	r27, r26
    5a4c:	62 07       	cpc	r22, r18
    5a4e:	73 07       	cpc	r23, r19
    5a50:	84 07       	cpc	r24, r20
    5a52:	95 07       	cpc	r25, r21
    5a54:	20 f0       	brcs	.+8      	; 0x5a5e <__addsf3x+0x1c>
    5a56:	79 f4       	brne	.+30     	; 0x5a76 <__addsf3x+0x34>
    5a58:	a6 f5       	brtc	.+104    	; 0x5ac2 <__addsf3x+0x80>
    5a5a:	0c 94 ce 2e 	jmp	0x5d9c	; 0x5d9c <__fp_zero>
    5a5e:	0e f4       	brtc	.+2      	; 0x5a62 <__addsf3x+0x20>
    5a60:	e0 95       	com	r30
    5a62:	0b 2e       	mov	r0, r27
    5a64:	ba 2f       	mov	r27, r26
    5a66:	a0 2d       	mov	r26, r0
    5a68:	0b 01       	movw	r0, r22
    5a6a:	b9 01       	movw	r22, r18
    5a6c:	90 01       	movw	r18, r0
    5a6e:	0c 01       	movw	r0, r24
    5a70:	ca 01       	movw	r24, r20
    5a72:	a0 01       	movw	r20, r0
    5a74:	11 24       	eor	r1, r1
    5a76:	ff 27       	eor	r31, r31
    5a78:	59 1b       	sub	r21, r25
    5a7a:	99 f0       	breq	.+38     	; 0x5aa2 <__addsf3x+0x60>
    5a7c:	59 3f       	cpi	r21, 0xF9	; 249
    5a7e:	50 f4       	brcc	.+20     	; 0x5a94 <__addsf3x+0x52>
    5a80:	50 3e       	cpi	r21, 0xE0	; 224
    5a82:	68 f1       	brcs	.+90     	; 0x5ade <__addsf3x+0x9c>
    5a84:	1a 16       	cp	r1, r26
    5a86:	f0 40       	sbci	r31, 0x00	; 0
    5a88:	a2 2f       	mov	r26, r18
    5a8a:	23 2f       	mov	r18, r19
    5a8c:	34 2f       	mov	r19, r20
    5a8e:	44 27       	eor	r20, r20
    5a90:	58 5f       	subi	r21, 0xF8	; 248
    5a92:	f3 cf       	rjmp	.-26     	; 0x5a7a <__addsf3x+0x38>
    5a94:	46 95       	lsr	r20
    5a96:	37 95       	ror	r19
    5a98:	27 95       	ror	r18
    5a9a:	a7 95       	ror	r26
    5a9c:	f0 40       	sbci	r31, 0x00	; 0
    5a9e:	53 95       	inc	r21
    5aa0:	c9 f7       	brne	.-14     	; 0x5a94 <__addsf3x+0x52>
    5aa2:	7e f4       	brtc	.+30     	; 0x5ac2 <__addsf3x+0x80>
    5aa4:	1f 16       	cp	r1, r31
    5aa6:	ba 0b       	sbc	r27, r26
    5aa8:	62 0b       	sbc	r22, r18
    5aaa:	73 0b       	sbc	r23, r19
    5aac:	84 0b       	sbc	r24, r20
    5aae:	ba f0       	brmi	.+46     	; 0x5ade <__addsf3x+0x9c>
    5ab0:	91 50       	subi	r25, 0x01	; 1
    5ab2:	a1 f0       	breq	.+40     	; 0x5adc <__addsf3x+0x9a>
    5ab4:	ff 0f       	add	r31, r31
    5ab6:	bb 1f       	adc	r27, r27
    5ab8:	66 1f       	adc	r22, r22
    5aba:	77 1f       	adc	r23, r23
    5abc:	88 1f       	adc	r24, r24
    5abe:	c2 f7       	brpl	.-16     	; 0x5ab0 <__addsf3x+0x6e>
    5ac0:	0e c0       	rjmp	.+28     	; 0x5ade <__addsf3x+0x9c>
    5ac2:	ba 0f       	add	r27, r26
    5ac4:	62 1f       	adc	r22, r18
    5ac6:	73 1f       	adc	r23, r19
    5ac8:	84 1f       	adc	r24, r20
    5aca:	48 f4       	brcc	.+18     	; 0x5ade <__addsf3x+0x9c>
    5acc:	87 95       	ror	r24
    5ace:	77 95       	ror	r23
    5ad0:	67 95       	ror	r22
    5ad2:	b7 95       	ror	r27
    5ad4:	f7 95       	ror	r31
    5ad6:	9e 3f       	cpi	r25, 0xFE	; 254
    5ad8:	08 f0       	brcs	.+2      	; 0x5adc <__addsf3x+0x9a>
    5ada:	b0 cf       	rjmp	.-160    	; 0x5a3c <__addsf3+0x28>
    5adc:	93 95       	inc	r25
    5ade:	88 0f       	add	r24, r24
    5ae0:	08 f0       	brcs	.+2      	; 0x5ae4 <__addsf3x+0xa2>
    5ae2:	99 27       	eor	r25, r25
    5ae4:	ee 0f       	add	r30, r30
    5ae6:	97 95       	ror	r25
    5ae8:	87 95       	ror	r24
    5aea:	08 95       	ret

00005aec <__cmpsf2>:
    5aec:	0e 94 60 2e 	call	0x5cc0	; 0x5cc0 <__fp_cmp>
    5af0:	08 f4       	brcc	.+2      	; 0x5af4 <__cmpsf2+0x8>
    5af2:	81 e0       	ldi	r24, 0x01	; 1
    5af4:	08 95       	ret

00005af6 <__divsf3>:
    5af6:	0e 94 8f 2d 	call	0x5b1e	; 0x5b1e <__divsf3x>
    5afa:	0c 94 9b 2e 	jmp	0x5d36	; 0x5d36 <__fp_round>
    5afe:	0e 94 94 2e 	call	0x5d28	; 0x5d28 <__fp_pscB>
    5b02:	58 f0       	brcs	.+22     	; 0x5b1a <__divsf3+0x24>
    5b04:	0e 94 8d 2e 	call	0x5d1a	; 0x5d1a <__fp_pscA>
    5b08:	40 f0       	brcs	.+16     	; 0x5b1a <__divsf3+0x24>
    5b0a:	29 f4       	brne	.+10     	; 0x5b16 <__divsf3+0x20>
    5b0c:	5f 3f       	cpi	r21, 0xFF	; 255
    5b0e:	29 f0       	breq	.+10     	; 0x5b1a <__divsf3+0x24>
    5b10:	0c 94 84 2e 	jmp	0x5d08	; 0x5d08 <__fp_inf>
    5b14:	51 11       	cpse	r21, r1
    5b16:	0c 94 cf 2e 	jmp	0x5d9e	; 0x5d9e <__fp_szero>
    5b1a:	0c 94 8a 2e 	jmp	0x5d14	; 0x5d14 <__fp_nan>

00005b1e <__divsf3x>:
    5b1e:	0e 94 ac 2e 	call	0x5d58	; 0x5d58 <__fp_split3>
    5b22:	68 f3       	brcs	.-38     	; 0x5afe <__divsf3+0x8>

00005b24 <__divsf3_pse>:
    5b24:	99 23       	and	r25, r25
    5b26:	b1 f3       	breq	.-20     	; 0x5b14 <__divsf3+0x1e>
    5b28:	55 23       	and	r21, r21
    5b2a:	91 f3       	breq	.-28     	; 0x5b10 <__divsf3+0x1a>
    5b2c:	95 1b       	sub	r25, r21
    5b2e:	55 0b       	sbc	r21, r21
    5b30:	bb 27       	eor	r27, r27
    5b32:	aa 27       	eor	r26, r26
    5b34:	62 17       	cp	r22, r18
    5b36:	73 07       	cpc	r23, r19
    5b38:	84 07       	cpc	r24, r20
    5b3a:	38 f0       	brcs	.+14     	; 0x5b4a <__divsf3_pse+0x26>
    5b3c:	9f 5f       	subi	r25, 0xFF	; 255
    5b3e:	5f 4f       	sbci	r21, 0xFF	; 255
    5b40:	22 0f       	add	r18, r18
    5b42:	33 1f       	adc	r19, r19
    5b44:	44 1f       	adc	r20, r20
    5b46:	aa 1f       	adc	r26, r26
    5b48:	a9 f3       	breq	.-22     	; 0x5b34 <__divsf3_pse+0x10>
    5b4a:	35 d0       	rcall	.+106    	; 0x5bb6 <__divsf3_pse+0x92>
    5b4c:	0e 2e       	mov	r0, r30
    5b4e:	3a f0       	brmi	.+14     	; 0x5b5e <__divsf3_pse+0x3a>
    5b50:	e0 e8       	ldi	r30, 0x80	; 128
    5b52:	32 d0       	rcall	.+100    	; 0x5bb8 <__divsf3_pse+0x94>
    5b54:	91 50       	subi	r25, 0x01	; 1
    5b56:	50 40       	sbci	r21, 0x00	; 0
    5b58:	e6 95       	lsr	r30
    5b5a:	00 1c       	adc	r0, r0
    5b5c:	ca f7       	brpl	.-14     	; 0x5b50 <__divsf3_pse+0x2c>
    5b5e:	2b d0       	rcall	.+86     	; 0x5bb6 <__divsf3_pse+0x92>
    5b60:	fe 2f       	mov	r31, r30
    5b62:	29 d0       	rcall	.+82     	; 0x5bb6 <__divsf3_pse+0x92>
    5b64:	66 0f       	add	r22, r22
    5b66:	77 1f       	adc	r23, r23
    5b68:	88 1f       	adc	r24, r24
    5b6a:	bb 1f       	adc	r27, r27
    5b6c:	26 17       	cp	r18, r22
    5b6e:	37 07       	cpc	r19, r23
    5b70:	48 07       	cpc	r20, r24
    5b72:	ab 07       	cpc	r26, r27
    5b74:	b0 e8       	ldi	r27, 0x80	; 128
    5b76:	09 f0       	breq	.+2      	; 0x5b7a <__divsf3_pse+0x56>
    5b78:	bb 0b       	sbc	r27, r27
    5b7a:	80 2d       	mov	r24, r0
    5b7c:	bf 01       	movw	r22, r30
    5b7e:	ff 27       	eor	r31, r31
    5b80:	93 58       	subi	r25, 0x83	; 131
    5b82:	5f 4f       	sbci	r21, 0xFF	; 255
    5b84:	3a f0       	brmi	.+14     	; 0x5b94 <__divsf3_pse+0x70>
    5b86:	9e 3f       	cpi	r25, 0xFE	; 254
    5b88:	51 05       	cpc	r21, r1
    5b8a:	78 f0       	brcs	.+30     	; 0x5baa <__divsf3_pse+0x86>
    5b8c:	0c 94 84 2e 	jmp	0x5d08	; 0x5d08 <__fp_inf>
    5b90:	0c 94 cf 2e 	jmp	0x5d9e	; 0x5d9e <__fp_szero>
    5b94:	5f 3f       	cpi	r21, 0xFF	; 255
    5b96:	e4 f3       	brlt	.-8      	; 0x5b90 <__divsf3_pse+0x6c>
    5b98:	98 3e       	cpi	r25, 0xE8	; 232
    5b9a:	d4 f3       	brlt	.-12     	; 0x5b90 <__divsf3_pse+0x6c>
    5b9c:	86 95       	lsr	r24
    5b9e:	77 95       	ror	r23
    5ba0:	67 95       	ror	r22
    5ba2:	b7 95       	ror	r27
    5ba4:	f7 95       	ror	r31
    5ba6:	9f 5f       	subi	r25, 0xFF	; 255
    5ba8:	c9 f7       	brne	.-14     	; 0x5b9c <__divsf3_pse+0x78>
    5baa:	88 0f       	add	r24, r24
    5bac:	91 1d       	adc	r25, r1
    5bae:	96 95       	lsr	r25
    5bb0:	87 95       	ror	r24
    5bb2:	97 f9       	bld	r25, 7
    5bb4:	08 95       	ret
    5bb6:	e1 e0       	ldi	r30, 0x01	; 1
    5bb8:	66 0f       	add	r22, r22
    5bba:	77 1f       	adc	r23, r23
    5bbc:	88 1f       	adc	r24, r24
    5bbe:	bb 1f       	adc	r27, r27
    5bc0:	62 17       	cp	r22, r18
    5bc2:	73 07       	cpc	r23, r19
    5bc4:	84 07       	cpc	r24, r20
    5bc6:	ba 07       	cpc	r27, r26
    5bc8:	20 f0       	brcs	.+8      	; 0x5bd2 <__divsf3_pse+0xae>
    5bca:	62 1b       	sub	r22, r18
    5bcc:	73 0b       	sbc	r23, r19
    5bce:	84 0b       	sbc	r24, r20
    5bd0:	ba 0b       	sbc	r27, r26
    5bd2:	ee 1f       	adc	r30, r30
    5bd4:	88 f7       	brcc	.-30     	; 0x5bb8 <__divsf3_pse+0x94>
    5bd6:	e0 95       	com	r30
    5bd8:	08 95       	ret

00005bda <__fixsfsi>:
    5bda:	0e 94 f4 2d 	call	0x5be8	; 0x5be8 <__fixunssfsi>
    5bde:	68 94       	set
    5be0:	b1 11       	cpse	r27, r1
    5be2:	0c 94 cf 2e 	jmp	0x5d9e	; 0x5d9e <__fp_szero>
    5be6:	08 95       	ret

00005be8 <__fixunssfsi>:
    5be8:	0e 94 b4 2e 	call	0x5d68	; 0x5d68 <__fp_splitA>
    5bec:	88 f0       	brcs	.+34     	; 0x5c10 <__fixunssfsi+0x28>
    5bee:	9f 57       	subi	r25, 0x7F	; 127
    5bf0:	98 f0       	brcs	.+38     	; 0x5c18 <__fixunssfsi+0x30>
    5bf2:	b9 2f       	mov	r27, r25
    5bf4:	99 27       	eor	r25, r25
    5bf6:	b7 51       	subi	r27, 0x17	; 23
    5bf8:	b0 f0       	brcs	.+44     	; 0x5c26 <__fixunssfsi+0x3e>
    5bfa:	e1 f0       	breq	.+56     	; 0x5c34 <__fixunssfsi+0x4c>
    5bfc:	66 0f       	add	r22, r22
    5bfe:	77 1f       	adc	r23, r23
    5c00:	88 1f       	adc	r24, r24
    5c02:	99 1f       	adc	r25, r25
    5c04:	1a f0       	brmi	.+6      	; 0x5c0c <__fixunssfsi+0x24>
    5c06:	ba 95       	dec	r27
    5c08:	c9 f7       	brne	.-14     	; 0x5bfc <__fixunssfsi+0x14>
    5c0a:	14 c0       	rjmp	.+40     	; 0x5c34 <__fixunssfsi+0x4c>
    5c0c:	b1 30       	cpi	r27, 0x01	; 1
    5c0e:	91 f0       	breq	.+36     	; 0x5c34 <__fixunssfsi+0x4c>
    5c10:	0e 94 ce 2e 	call	0x5d9c	; 0x5d9c <__fp_zero>
    5c14:	b1 e0       	ldi	r27, 0x01	; 1
    5c16:	08 95       	ret
    5c18:	0c 94 ce 2e 	jmp	0x5d9c	; 0x5d9c <__fp_zero>
    5c1c:	67 2f       	mov	r22, r23
    5c1e:	78 2f       	mov	r23, r24
    5c20:	88 27       	eor	r24, r24
    5c22:	b8 5f       	subi	r27, 0xF8	; 248
    5c24:	39 f0       	breq	.+14     	; 0x5c34 <__fixunssfsi+0x4c>
    5c26:	b9 3f       	cpi	r27, 0xF9	; 249
    5c28:	cc f3       	brlt	.-14     	; 0x5c1c <__fixunssfsi+0x34>
    5c2a:	86 95       	lsr	r24
    5c2c:	77 95       	ror	r23
    5c2e:	67 95       	ror	r22
    5c30:	b3 95       	inc	r27
    5c32:	d9 f7       	brne	.-10     	; 0x5c2a <__fixunssfsi+0x42>
    5c34:	3e f4       	brtc	.+14     	; 0x5c44 <__fixunssfsi+0x5c>
    5c36:	90 95       	com	r25
    5c38:	80 95       	com	r24
    5c3a:	70 95       	com	r23
    5c3c:	61 95       	neg	r22
    5c3e:	7f 4f       	sbci	r23, 0xFF	; 255
    5c40:	8f 4f       	sbci	r24, 0xFF	; 255
    5c42:	9f 4f       	sbci	r25, 0xFF	; 255
    5c44:	08 95       	ret

00005c46 <__floatunsisf>:
    5c46:	e8 94       	clt
    5c48:	09 c0       	rjmp	.+18     	; 0x5c5c <__floatsisf+0x12>

00005c4a <__floatsisf>:
    5c4a:	97 fb       	bst	r25, 7
    5c4c:	3e f4       	brtc	.+14     	; 0x5c5c <__floatsisf+0x12>
    5c4e:	90 95       	com	r25
    5c50:	80 95       	com	r24
    5c52:	70 95       	com	r23
    5c54:	61 95       	neg	r22
    5c56:	7f 4f       	sbci	r23, 0xFF	; 255
    5c58:	8f 4f       	sbci	r24, 0xFF	; 255
    5c5a:	9f 4f       	sbci	r25, 0xFF	; 255
    5c5c:	99 23       	and	r25, r25
    5c5e:	a9 f0       	breq	.+42     	; 0x5c8a <__floatsisf+0x40>
    5c60:	f9 2f       	mov	r31, r25
    5c62:	96 e9       	ldi	r25, 0x96	; 150
    5c64:	bb 27       	eor	r27, r27
    5c66:	93 95       	inc	r25
    5c68:	f6 95       	lsr	r31
    5c6a:	87 95       	ror	r24
    5c6c:	77 95       	ror	r23
    5c6e:	67 95       	ror	r22
    5c70:	b7 95       	ror	r27
    5c72:	f1 11       	cpse	r31, r1
    5c74:	f8 cf       	rjmp	.-16     	; 0x5c66 <__floatsisf+0x1c>
    5c76:	fa f4       	brpl	.+62     	; 0x5cb6 <__floatsisf+0x6c>
    5c78:	bb 0f       	add	r27, r27
    5c7a:	11 f4       	brne	.+4      	; 0x5c80 <__floatsisf+0x36>
    5c7c:	60 ff       	sbrs	r22, 0
    5c7e:	1b c0       	rjmp	.+54     	; 0x5cb6 <__floatsisf+0x6c>
    5c80:	6f 5f       	subi	r22, 0xFF	; 255
    5c82:	7f 4f       	sbci	r23, 0xFF	; 255
    5c84:	8f 4f       	sbci	r24, 0xFF	; 255
    5c86:	9f 4f       	sbci	r25, 0xFF	; 255
    5c88:	16 c0       	rjmp	.+44     	; 0x5cb6 <__floatsisf+0x6c>
    5c8a:	88 23       	and	r24, r24
    5c8c:	11 f0       	breq	.+4      	; 0x5c92 <__floatsisf+0x48>
    5c8e:	96 e9       	ldi	r25, 0x96	; 150
    5c90:	11 c0       	rjmp	.+34     	; 0x5cb4 <__floatsisf+0x6a>
    5c92:	77 23       	and	r23, r23
    5c94:	21 f0       	breq	.+8      	; 0x5c9e <__floatsisf+0x54>
    5c96:	9e e8       	ldi	r25, 0x8E	; 142
    5c98:	87 2f       	mov	r24, r23
    5c9a:	76 2f       	mov	r23, r22
    5c9c:	05 c0       	rjmp	.+10     	; 0x5ca8 <__floatsisf+0x5e>
    5c9e:	66 23       	and	r22, r22
    5ca0:	71 f0       	breq	.+28     	; 0x5cbe <__floatsisf+0x74>
    5ca2:	96 e8       	ldi	r25, 0x86	; 134
    5ca4:	86 2f       	mov	r24, r22
    5ca6:	70 e0       	ldi	r23, 0x00	; 0
    5ca8:	60 e0       	ldi	r22, 0x00	; 0
    5caa:	2a f0       	brmi	.+10     	; 0x5cb6 <__floatsisf+0x6c>
    5cac:	9a 95       	dec	r25
    5cae:	66 0f       	add	r22, r22
    5cb0:	77 1f       	adc	r23, r23
    5cb2:	88 1f       	adc	r24, r24
    5cb4:	da f7       	brpl	.-10     	; 0x5cac <__floatsisf+0x62>
    5cb6:	88 0f       	add	r24, r24
    5cb8:	96 95       	lsr	r25
    5cba:	87 95       	ror	r24
    5cbc:	97 f9       	bld	r25, 7
    5cbe:	08 95       	ret

00005cc0 <__fp_cmp>:
    5cc0:	99 0f       	add	r25, r25
    5cc2:	00 08       	sbc	r0, r0
    5cc4:	55 0f       	add	r21, r21
    5cc6:	aa 0b       	sbc	r26, r26
    5cc8:	e0 e8       	ldi	r30, 0x80	; 128
    5cca:	fe ef       	ldi	r31, 0xFE	; 254
    5ccc:	16 16       	cp	r1, r22
    5cce:	17 06       	cpc	r1, r23
    5cd0:	e8 07       	cpc	r30, r24
    5cd2:	f9 07       	cpc	r31, r25
    5cd4:	c0 f0       	brcs	.+48     	; 0x5d06 <__fp_cmp+0x46>
    5cd6:	12 16       	cp	r1, r18
    5cd8:	13 06       	cpc	r1, r19
    5cda:	e4 07       	cpc	r30, r20
    5cdc:	f5 07       	cpc	r31, r21
    5cde:	98 f0       	brcs	.+38     	; 0x5d06 <__fp_cmp+0x46>
    5ce0:	62 1b       	sub	r22, r18
    5ce2:	73 0b       	sbc	r23, r19
    5ce4:	84 0b       	sbc	r24, r20
    5ce6:	95 0b       	sbc	r25, r21
    5ce8:	39 f4       	brne	.+14     	; 0x5cf8 <__fp_cmp+0x38>
    5cea:	0a 26       	eor	r0, r26
    5cec:	61 f0       	breq	.+24     	; 0x5d06 <__fp_cmp+0x46>
    5cee:	23 2b       	or	r18, r19
    5cf0:	24 2b       	or	r18, r20
    5cf2:	25 2b       	or	r18, r21
    5cf4:	21 f4       	brne	.+8      	; 0x5cfe <__fp_cmp+0x3e>
    5cf6:	08 95       	ret
    5cf8:	0a 26       	eor	r0, r26
    5cfa:	09 f4       	brne	.+2      	; 0x5cfe <__fp_cmp+0x3e>
    5cfc:	a1 40       	sbci	r26, 0x01	; 1
    5cfe:	a6 95       	lsr	r26
    5d00:	8f ef       	ldi	r24, 0xFF	; 255
    5d02:	81 1d       	adc	r24, r1
    5d04:	81 1d       	adc	r24, r1
    5d06:	08 95       	ret

00005d08 <__fp_inf>:
    5d08:	97 f9       	bld	r25, 7
    5d0a:	9f 67       	ori	r25, 0x7F	; 127
    5d0c:	80 e8       	ldi	r24, 0x80	; 128
    5d0e:	70 e0       	ldi	r23, 0x00	; 0
    5d10:	60 e0       	ldi	r22, 0x00	; 0
    5d12:	08 95       	ret

00005d14 <__fp_nan>:
    5d14:	9f ef       	ldi	r25, 0xFF	; 255
    5d16:	80 ec       	ldi	r24, 0xC0	; 192
    5d18:	08 95       	ret

00005d1a <__fp_pscA>:
    5d1a:	00 24       	eor	r0, r0
    5d1c:	0a 94       	dec	r0
    5d1e:	16 16       	cp	r1, r22
    5d20:	17 06       	cpc	r1, r23
    5d22:	18 06       	cpc	r1, r24
    5d24:	09 06       	cpc	r0, r25
    5d26:	08 95       	ret

00005d28 <__fp_pscB>:
    5d28:	00 24       	eor	r0, r0
    5d2a:	0a 94       	dec	r0
    5d2c:	12 16       	cp	r1, r18
    5d2e:	13 06       	cpc	r1, r19
    5d30:	14 06       	cpc	r1, r20
    5d32:	05 06       	cpc	r0, r21
    5d34:	08 95       	ret

00005d36 <__fp_round>:
    5d36:	09 2e       	mov	r0, r25
    5d38:	03 94       	inc	r0
    5d3a:	00 0c       	add	r0, r0
    5d3c:	11 f4       	brne	.+4      	; 0x5d42 <__fp_round+0xc>
    5d3e:	88 23       	and	r24, r24
    5d40:	52 f0       	brmi	.+20     	; 0x5d56 <__fp_round+0x20>
    5d42:	bb 0f       	add	r27, r27
    5d44:	40 f4       	brcc	.+16     	; 0x5d56 <__fp_round+0x20>
    5d46:	bf 2b       	or	r27, r31
    5d48:	11 f4       	brne	.+4      	; 0x5d4e <__fp_round+0x18>
    5d4a:	60 ff       	sbrs	r22, 0
    5d4c:	04 c0       	rjmp	.+8      	; 0x5d56 <__fp_round+0x20>
    5d4e:	6f 5f       	subi	r22, 0xFF	; 255
    5d50:	7f 4f       	sbci	r23, 0xFF	; 255
    5d52:	8f 4f       	sbci	r24, 0xFF	; 255
    5d54:	9f 4f       	sbci	r25, 0xFF	; 255
    5d56:	08 95       	ret

00005d58 <__fp_split3>:
    5d58:	57 fd       	sbrc	r21, 7
    5d5a:	90 58       	subi	r25, 0x80	; 128
    5d5c:	44 0f       	add	r20, r20
    5d5e:	55 1f       	adc	r21, r21
    5d60:	59 f0       	breq	.+22     	; 0x5d78 <__fp_splitA+0x10>
    5d62:	5f 3f       	cpi	r21, 0xFF	; 255
    5d64:	71 f0       	breq	.+28     	; 0x5d82 <__fp_splitA+0x1a>
    5d66:	47 95       	ror	r20

00005d68 <__fp_splitA>:
    5d68:	88 0f       	add	r24, r24
    5d6a:	97 fb       	bst	r25, 7
    5d6c:	99 1f       	adc	r25, r25
    5d6e:	61 f0       	breq	.+24     	; 0x5d88 <__fp_splitA+0x20>
    5d70:	9f 3f       	cpi	r25, 0xFF	; 255
    5d72:	79 f0       	breq	.+30     	; 0x5d92 <__fp_splitA+0x2a>
    5d74:	87 95       	ror	r24
    5d76:	08 95       	ret
    5d78:	12 16       	cp	r1, r18
    5d7a:	13 06       	cpc	r1, r19
    5d7c:	14 06       	cpc	r1, r20
    5d7e:	55 1f       	adc	r21, r21
    5d80:	f2 cf       	rjmp	.-28     	; 0x5d66 <__fp_split3+0xe>
    5d82:	46 95       	lsr	r20
    5d84:	f1 df       	rcall	.-30     	; 0x5d68 <__fp_splitA>
    5d86:	08 c0       	rjmp	.+16     	; 0x5d98 <__fp_splitA+0x30>
    5d88:	16 16       	cp	r1, r22
    5d8a:	17 06       	cpc	r1, r23
    5d8c:	18 06       	cpc	r1, r24
    5d8e:	99 1f       	adc	r25, r25
    5d90:	f1 cf       	rjmp	.-30     	; 0x5d74 <__fp_splitA+0xc>
    5d92:	86 95       	lsr	r24
    5d94:	71 05       	cpc	r23, r1
    5d96:	61 05       	cpc	r22, r1
    5d98:	08 94       	sec
    5d9a:	08 95       	ret

00005d9c <__fp_zero>:
    5d9c:	e8 94       	clt

00005d9e <__fp_szero>:
    5d9e:	bb 27       	eor	r27, r27
    5da0:	66 27       	eor	r22, r22
    5da2:	77 27       	eor	r23, r23
    5da4:	cb 01       	movw	r24, r22
    5da6:	97 f9       	bld	r25, 7
    5da8:	08 95       	ret

00005daa <__gesf2>:
    5daa:	0e 94 60 2e 	call	0x5cc0	; 0x5cc0 <__fp_cmp>
    5dae:	08 f4       	brcc	.+2      	; 0x5db2 <__gesf2+0x8>
    5db0:	8f ef       	ldi	r24, 0xFF	; 255
    5db2:	08 95       	ret

00005db4 <__mulsf3>:
    5db4:	0e 94 ed 2e 	call	0x5dda	; 0x5dda <__mulsf3x>
    5db8:	0c 94 9b 2e 	jmp	0x5d36	; 0x5d36 <__fp_round>
    5dbc:	0e 94 8d 2e 	call	0x5d1a	; 0x5d1a <__fp_pscA>
    5dc0:	38 f0       	brcs	.+14     	; 0x5dd0 <__mulsf3+0x1c>
    5dc2:	0e 94 94 2e 	call	0x5d28	; 0x5d28 <__fp_pscB>
    5dc6:	20 f0       	brcs	.+8      	; 0x5dd0 <__mulsf3+0x1c>
    5dc8:	95 23       	and	r25, r21
    5dca:	11 f0       	breq	.+4      	; 0x5dd0 <__mulsf3+0x1c>
    5dcc:	0c 94 84 2e 	jmp	0x5d08	; 0x5d08 <__fp_inf>
    5dd0:	0c 94 8a 2e 	jmp	0x5d14	; 0x5d14 <__fp_nan>
    5dd4:	11 24       	eor	r1, r1
    5dd6:	0c 94 cf 2e 	jmp	0x5d9e	; 0x5d9e <__fp_szero>

00005dda <__mulsf3x>:
    5dda:	0e 94 ac 2e 	call	0x5d58	; 0x5d58 <__fp_split3>
    5dde:	70 f3       	brcs	.-36     	; 0x5dbc <__mulsf3+0x8>

00005de0 <__mulsf3_pse>:
    5de0:	95 9f       	mul	r25, r21
    5de2:	c1 f3       	breq	.-16     	; 0x5dd4 <__mulsf3+0x20>
    5de4:	95 0f       	add	r25, r21
    5de6:	50 e0       	ldi	r21, 0x00	; 0
    5de8:	55 1f       	adc	r21, r21
    5dea:	62 9f       	mul	r22, r18
    5dec:	f0 01       	movw	r30, r0
    5dee:	72 9f       	mul	r23, r18
    5df0:	bb 27       	eor	r27, r27
    5df2:	f0 0d       	add	r31, r0
    5df4:	b1 1d       	adc	r27, r1
    5df6:	63 9f       	mul	r22, r19
    5df8:	aa 27       	eor	r26, r26
    5dfa:	f0 0d       	add	r31, r0
    5dfc:	b1 1d       	adc	r27, r1
    5dfe:	aa 1f       	adc	r26, r26
    5e00:	64 9f       	mul	r22, r20
    5e02:	66 27       	eor	r22, r22
    5e04:	b0 0d       	add	r27, r0
    5e06:	a1 1d       	adc	r26, r1
    5e08:	66 1f       	adc	r22, r22
    5e0a:	82 9f       	mul	r24, r18
    5e0c:	22 27       	eor	r18, r18
    5e0e:	b0 0d       	add	r27, r0
    5e10:	a1 1d       	adc	r26, r1
    5e12:	62 1f       	adc	r22, r18
    5e14:	73 9f       	mul	r23, r19
    5e16:	b0 0d       	add	r27, r0
    5e18:	a1 1d       	adc	r26, r1
    5e1a:	62 1f       	adc	r22, r18
    5e1c:	83 9f       	mul	r24, r19
    5e1e:	a0 0d       	add	r26, r0
    5e20:	61 1d       	adc	r22, r1
    5e22:	22 1f       	adc	r18, r18
    5e24:	74 9f       	mul	r23, r20
    5e26:	33 27       	eor	r19, r19
    5e28:	a0 0d       	add	r26, r0
    5e2a:	61 1d       	adc	r22, r1
    5e2c:	23 1f       	adc	r18, r19
    5e2e:	84 9f       	mul	r24, r20
    5e30:	60 0d       	add	r22, r0
    5e32:	21 1d       	adc	r18, r1
    5e34:	82 2f       	mov	r24, r18
    5e36:	76 2f       	mov	r23, r22
    5e38:	6a 2f       	mov	r22, r26
    5e3a:	11 24       	eor	r1, r1
    5e3c:	9f 57       	subi	r25, 0x7F	; 127
    5e3e:	50 40       	sbci	r21, 0x00	; 0
    5e40:	9a f0       	brmi	.+38     	; 0x5e68 <__mulsf3_pse+0x88>
    5e42:	f1 f0       	breq	.+60     	; 0x5e80 <__mulsf3_pse+0xa0>
    5e44:	88 23       	and	r24, r24
    5e46:	4a f0       	brmi	.+18     	; 0x5e5a <__mulsf3_pse+0x7a>
    5e48:	ee 0f       	add	r30, r30
    5e4a:	ff 1f       	adc	r31, r31
    5e4c:	bb 1f       	adc	r27, r27
    5e4e:	66 1f       	adc	r22, r22
    5e50:	77 1f       	adc	r23, r23
    5e52:	88 1f       	adc	r24, r24
    5e54:	91 50       	subi	r25, 0x01	; 1
    5e56:	50 40       	sbci	r21, 0x00	; 0
    5e58:	a9 f7       	brne	.-22     	; 0x5e44 <__mulsf3_pse+0x64>
    5e5a:	9e 3f       	cpi	r25, 0xFE	; 254
    5e5c:	51 05       	cpc	r21, r1
    5e5e:	80 f0       	brcs	.+32     	; 0x5e80 <__mulsf3_pse+0xa0>
    5e60:	0c 94 84 2e 	jmp	0x5d08	; 0x5d08 <__fp_inf>
    5e64:	0c 94 cf 2e 	jmp	0x5d9e	; 0x5d9e <__fp_szero>
    5e68:	5f 3f       	cpi	r21, 0xFF	; 255
    5e6a:	e4 f3       	brlt	.-8      	; 0x5e64 <__mulsf3_pse+0x84>
    5e6c:	98 3e       	cpi	r25, 0xE8	; 232
    5e6e:	d4 f3       	brlt	.-12     	; 0x5e64 <__mulsf3_pse+0x84>
    5e70:	86 95       	lsr	r24
    5e72:	77 95       	ror	r23
    5e74:	67 95       	ror	r22
    5e76:	b7 95       	ror	r27
    5e78:	f7 95       	ror	r31
    5e7a:	e7 95       	ror	r30
    5e7c:	9f 5f       	subi	r25, 0xFF	; 255
    5e7e:	c1 f7       	brne	.-16     	; 0x5e70 <__mulsf3_pse+0x90>
    5e80:	fe 2b       	or	r31, r30
    5e82:	88 0f       	add	r24, r24
    5e84:	91 1d       	adc	r25, r1
    5e86:	96 95       	lsr	r25
    5e88:	87 95       	ror	r24
    5e8a:	97 f9       	bld	r25, 7
    5e8c:	08 95       	ret

00005e8e <vfprintf>:
    5e8e:	a0 e1       	ldi	r26, 0x10	; 16
    5e90:	b0 e0       	ldi	r27, 0x00	; 0
    5e92:	ed e4       	ldi	r30, 0x4D	; 77
    5e94:	ff e2       	ldi	r31, 0x2F	; 47
    5e96:	0c 94 07 33 	jmp	0x660e	; 0x660e <__prologue_saves__>
    5e9a:	7c 01       	movw	r14, r24
    5e9c:	1b 01       	movw	r2, r22
    5e9e:	6a 01       	movw	r12, r20
    5ea0:	fc 01       	movw	r30, r24
    5ea2:	17 82       	std	Z+7, r1	; 0x07
    5ea4:	16 82       	std	Z+6, r1	; 0x06
    5ea6:	83 81       	ldd	r24, Z+3	; 0x03
    5ea8:	81 ff       	sbrs	r24, 1
    5eaa:	44 c3       	rjmp	.+1672   	; 0x6534 <vfprintf+0x6a6>
    5eac:	9e 01       	movw	r18, r28
    5eae:	2f 5f       	subi	r18, 0xFF	; 255
    5eb0:	3f 4f       	sbci	r19, 0xFF	; 255
    5eb2:	39 01       	movw	r6, r18
    5eb4:	f7 01       	movw	r30, r14
    5eb6:	93 81       	ldd	r25, Z+3	; 0x03
    5eb8:	f1 01       	movw	r30, r2
    5eba:	93 fd       	sbrc	r25, 3
    5ebc:	85 91       	lpm	r24, Z+
    5ebe:	93 ff       	sbrs	r25, 3
    5ec0:	81 91       	ld	r24, Z+
    5ec2:	1f 01       	movw	r2, r30
    5ec4:	88 23       	and	r24, r24
    5ec6:	09 f4       	brne	.+2      	; 0x5eca <vfprintf+0x3c>
    5ec8:	31 c3       	rjmp	.+1634   	; 0x652c <vfprintf+0x69e>
    5eca:	85 32       	cpi	r24, 0x25	; 37
    5ecc:	39 f4       	brne	.+14     	; 0x5edc <vfprintf+0x4e>
    5ece:	93 fd       	sbrc	r25, 3
    5ed0:	85 91       	lpm	r24, Z+
    5ed2:	93 ff       	sbrs	r25, 3
    5ed4:	81 91       	ld	r24, Z+
    5ed6:	1f 01       	movw	r2, r30
    5ed8:	85 32       	cpi	r24, 0x25	; 37
    5eda:	39 f4       	brne	.+14     	; 0x5eea <vfprintf+0x5c>
    5edc:	b7 01       	movw	r22, r14
    5ede:	90 e0       	ldi	r25, 0x00	; 0
    5ee0:	0e 94 7a 34 	call	0x68f4	; 0x68f4 <fputc>
    5ee4:	56 01       	movw	r10, r12
    5ee6:	65 01       	movw	r12, r10
    5ee8:	e5 cf       	rjmp	.-54     	; 0x5eb4 <vfprintf+0x26>
    5eea:	10 e0       	ldi	r17, 0x00	; 0
    5eec:	51 2c       	mov	r5, r1
    5eee:	91 2c       	mov	r9, r1
    5ef0:	ff e1       	ldi	r31, 0x1F	; 31
    5ef2:	f9 15       	cp	r31, r9
    5ef4:	d8 f0       	brcs	.+54     	; 0x5f2c <vfprintf+0x9e>
    5ef6:	8b 32       	cpi	r24, 0x2B	; 43
    5ef8:	79 f0       	breq	.+30     	; 0x5f18 <vfprintf+0x8a>
    5efa:	38 f4       	brcc	.+14     	; 0x5f0a <vfprintf+0x7c>
    5efc:	80 32       	cpi	r24, 0x20	; 32
    5efe:	79 f0       	breq	.+30     	; 0x5f1e <vfprintf+0x90>
    5f00:	83 32       	cpi	r24, 0x23	; 35
    5f02:	a1 f4       	brne	.+40     	; 0x5f2c <vfprintf+0x9e>
    5f04:	f9 2d       	mov	r31, r9
    5f06:	f0 61       	ori	r31, 0x10	; 16
    5f08:	2e c0       	rjmp	.+92     	; 0x5f66 <vfprintf+0xd8>
    5f0a:	8d 32       	cpi	r24, 0x2D	; 45
    5f0c:	61 f0       	breq	.+24     	; 0x5f26 <vfprintf+0x98>
    5f0e:	80 33       	cpi	r24, 0x30	; 48
    5f10:	69 f4       	brne	.+26     	; 0x5f2c <vfprintf+0x9e>
    5f12:	29 2d       	mov	r18, r9
    5f14:	21 60       	ori	r18, 0x01	; 1
    5f16:	2d c0       	rjmp	.+90     	; 0x5f72 <vfprintf+0xe4>
    5f18:	39 2d       	mov	r19, r9
    5f1a:	32 60       	ori	r19, 0x02	; 2
    5f1c:	93 2e       	mov	r9, r19
    5f1e:	89 2d       	mov	r24, r9
    5f20:	84 60       	ori	r24, 0x04	; 4
    5f22:	98 2e       	mov	r9, r24
    5f24:	2a c0       	rjmp	.+84     	; 0x5f7a <vfprintf+0xec>
    5f26:	e9 2d       	mov	r30, r9
    5f28:	e8 60       	ori	r30, 0x08	; 8
    5f2a:	15 c0       	rjmp	.+42     	; 0x5f56 <vfprintf+0xc8>
    5f2c:	97 fc       	sbrc	r9, 7
    5f2e:	2d c0       	rjmp	.+90     	; 0x5f8a <vfprintf+0xfc>
    5f30:	20 ed       	ldi	r18, 0xD0	; 208
    5f32:	28 0f       	add	r18, r24
    5f34:	2a 30       	cpi	r18, 0x0A	; 10
    5f36:	88 f4       	brcc	.+34     	; 0x5f5a <vfprintf+0xcc>
    5f38:	96 fe       	sbrs	r9, 6
    5f3a:	06 c0       	rjmp	.+12     	; 0x5f48 <vfprintf+0xba>
    5f3c:	3a e0       	ldi	r19, 0x0A	; 10
    5f3e:	13 9f       	mul	r17, r19
    5f40:	20 0d       	add	r18, r0
    5f42:	11 24       	eor	r1, r1
    5f44:	12 2f       	mov	r17, r18
    5f46:	19 c0       	rjmp	.+50     	; 0x5f7a <vfprintf+0xec>
    5f48:	8a e0       	ldi	r24, 0x0A	; 10
    5f4a:	58 9e       	mul	r5, r24
    5f4c:	20 0d       	add	r18, r0
    5f4e:	11 24       	eor	r1, r1
    5f50:	52 2e       	mov	r5, r18
    5f52:	e9 2d       	mov	r30, r9
    5f54:	e0 62       	ori	r30, 0x20	; 32
    5f56:	9e 2e       	mov	r9, r30
    5f58:	10 c0       	rjmp	.+32     	; 0x5f7a <vfprintf+0xec>
    5f5a:	8e 32       	cpi	r24, 0x2E	; 46
    5f5c:	31 f4       	brne	.+12     	; 0x5f6a <vfprintf+0xdc>
    5f5e:	96 fc       	sbrc	r9, 6
    5f60:	e5 c2       	rjmp	.+1482   	; 0x652c <vfprintf+0x69e>
    5f62:	f9 2d       	mov	r31, r9
    5f64:	f0 64       	ori	r31, 0x40	; 64
    5f66:	9f 2e       	mov	r9, r31
    5f68:	08 c0       	rjmp	.+16     	; 0x5f7a <vfprintf+0xec>
    5f6a:	8c 36       	cpi	r24, 0x6C	; 108
    5f6c:	21 f4       	brne	.+8      	; 0x5f76 <vfprintf+0xe8>
    5f6e:	29 2d       	mov	r18, r9
    5f70:	20 68       	ori	r18, 0x80	; 128
    5f72:	92 2e       	mov	r9, r18
    5f74:	02 c0       	rjmp	.+4      	; 0x5f7a <vfprintf+0xec>
    5f76:	88 36       	cpi	r24, 0x68	; 104
    5f78:	41 f4       	brne	.+16     	; 0x5f8a <vfprintf+0xfc>
    5f7a:	f1 01       	movw	r30, r2
    5f7c:	93 fd       	sbrc	r25, 3
    5f7e:	85 91       	lpm	r24, Z+
    5f80:	93 ff       	sbrs	r25, 3
    5f82:	81 91       	ld	r24, Z+
    5f84:	1f 01       	movw	r2, r30
    5f86:	81 11       	cpse	r24, r1
    5f88:	b3 cf       	rjmp	.-154    	; 0x5ef0 <vfprintf+0x62>
    5f8a:	9b eb       	ldi	r25, 0xBB	; 187
    5f8c:	98 0f       	add	r25, r24
    5f8e:	93 30       	cpi	r25, 0x03	; 3
    5f90:	20 f4       	brcc	.+8      	; 0x5f9a <vfprintf+0x10c>
    5f92:	99 2d       	mov	r25, r9
    5f94:	90 61       	ori	r25, 0x10	; 16
    5f96:	80 5e       	subi	r24, 0xE0	; 224
    5f98:	07 c0       	rjmp	.+14     	; 0x5fa8 <vfprintf+0x11a>
    5f9a:	9b e9       	ldi	r25, 0x9B	; 155
    5f9c:	98 0f       	add	r25, r24
    5f9e:	93 30       	cpi	r25, 0x03	; 3
    5fa0:	08 f0       	brcs	.+2      	; 0x5fa4 <vfprintf+0x116>
    5fa2:	66 c1       	rjmp	.+716    	; 0x6270 <vfprintf+0x3e2>
    5fa4:	99 2d       	mov	r25, r9
    5fa6:	9f 7e       	andi	r25, 0xEF	; 239
    5fa8:	96 ff       	sbrs	r25, 6
    5faa:	16 e0       	ldi	r17, 0x06	; 6
    5fac:	9f 73       	andi	r25, 0x3F	; 63
    5fae:	99 2e       	mov	r9, r25
    5fb0:	85 36       	cpi	r24, 0x65	; 101
    5fb2:	19 f4       	brne	.+6      	; 0x5fba <vfprintf+0x12c>
    5fb4:	90 64       	ori	r25, 0x40	; 64
    5fb6:	99 2e       	mov	r9, r25
    5fb8:	08 c0       	rjmp	.+16     	; 0x5fca <vfprintf+0x13c>
    5fba:	86 36       	cpi	r24, 0x66	; 102
    5fbc:	21 f4       	brne	.+8      	; 0x5fc6 <vfprintf+0x138>
    5fbe:	39 2f       	mov	r19, r25
    5fc0:	30 68       	ori	r19, 0x80	; 128
    5fc2:	93 2e       	mov	r9, r19
    5fc4:	02 c0       	rjmp	.+4      	; 0x5fca <vfprintf+0x13c>
    5fc6:	11 11       	cpse	r17, r1
    5fc8:	11 50       	subi	r17, 0x01	; 1
    5fca:	97 fe       	sbrs	r9, 7
    5fcc:	07 c0       	rjmp	.+14     	; 0x5fdc <vfprintf+0x14e>
    5fce:	1c 33       	cpi	r17, 0x3C	; 60
    5fd0:	50 f4       	brcc	.+20     	; 0x5fe6 <vfprintf+0x158>
    5fd2:	44 24       	eor	r4, r4
    5fd4:	43 94       	inc	r4
    5fd6:	41 0e       	add	r4, r17
    5fd8:	27 e0       	ldi	r18, 0x07	; 7
    5fda:	0b c0       	rjmp	.+22     	; 0x5ff2 <vfprintf+0x164>
    5fdc:	18 30       	cpi	r17, 0x08	; 8
    5fde:	38 f0       	brcs	.+14     	; 0x5fee <vfprintf+0x160>
    5fe0:	27 e0       	ldi	r18, 0x07	; 7
    5fe2:	17 e0       	ldi	r17, 0x07	; 7
    5fe4:	05 c0       	rjmp	.+10     	; 0x5ff0 <vfprintf+0x162>
    5fe6:	27 e0       	ldi	r18, 0x07	; 7
    5fe8:	9c e3       	ldi	r25, 0x3C	; 60
    5fea:	49 2e       	mov	r4, r25
    5fec:	02 c0       	rjmp	.+4      	; 0x5ff2 <vfprintf+0x164>
    5fee:	21 2f       	mov	r18, r17
    5ff0:	41 2c       	mov	r4, r1
    5ff2:	56 01       	movw	r10, r12
    5ff4:	84 e0       	ldi	r24, 0x04	; 4
    5ff6:	a8 0e       	add	r10, r24
    5ff8:	b1 1c       	adc	r11, r1
    5ffa:	f6 01       	movw	r30, r12
    5ffc:	60 81       	ld	r22, Z
    5ffe:	71 81       	ldd	r23, Z+1	; 0x01
    6000:	82 81       	ldd	r24, Z+2	; 0x02
    6002:	93 81       	ldd	r25, Z+3	; 0x03
    6004:	04 2d       	mov	r16, r4
    6006:	a3 01       	movw	r20, r6
    6008:	0e 94 6b 33 	call	0x66d6	; 0x66d6 <__ftoa_engine>
    600c:	6c 01       	movw	r12, r24
    600e:	f9 81       	ldd	r31, Y+1	; 0x01
    6010:	fc 87       	std	Y+12, r31	; 0x0c
    6012:	f0 ff       	sbrs	r31, 0
    6014:	02 c0       	rjmp	.+4      	; 0x601a <vfprintf+0x18c>
    6016:	f3 ff       	sbrs	r31, 3
    6018:	06 c0       	rjmp	.+12     	; 0x6026 <vfprintf+0x198>
    601a:	91 fc       	sbrc	r9, 1
    601c:	06 c0       	rjmp	.+12     	; 0x602a <vfprintf+0x19c>
    601e:	92 fe       	sbrs	r9, 2
    6020:	06 c0       	rjmp	.+12     	; 0x602e <vfprintf+0x1a0>
    6022:	00 e2       	ldi	r16, 0x20	; 32
    6024:	05 c0       	rjmp	.+10     	; 0x6030 <vfprintf+0x1a2>
    6026:	0d e2       	ldi	r16, 0x2D	; 45
    6028:	03 c0       	rjmp	.+6      	; 0x6030 <vfprintf+0x1a2>
    602a:	0b e2       	ldi	r16, 0x2B	; 43
    602c:	01 c0       	rjmp	.+2      	; 0x6030 <vfprintf+0x1a2>
    602e:	00 e0       	ldi	r16, 0x00	; 0
    6030:	8c 85       	ldd	r24, Y+12	; 0x0c
    6032:	8c 70       	andi	r24, 0x0C	; 12
    6034:	19 f0       	breq	.+6      	; 0x603c <vfprintf+0x1ae>
    6036:	01 11       	cpse	r16, r1
    6038:	5a c2       	rjmp	.+1204   	; 0x64ee <vfprintf+0x660>
    603a:	9b c2       	rjmp	.+1334   	; 0x6572 <vfprintf+0x6e4>
    603c:	97 fe       	sbrs	r9, 7
    603e:	10 c0       	rjmp	.+32     	; 0x6060 <vfprintf+0x1d2>
    6040:	4c 0c       	add	r4, r12
    6042:	fc 85       	ldd	r31, Y+12	; 0x0c
    6044:	f4 ff       	sbrs	r31, 4
    6046:	04 c0       	rjmp	.+8      	; 0x6050 <vfprintf+0x1c2>
    6048:	8a 81       	ldd	r24, Y+2	; 0x02
    604a:	81 33       	cpi	r24, 0x31	; 49
    604c:	09 f4       	brne	.+2      	; 0x6050 <vfprintf+0x1c2>
    604e:	4a 94       	dec	r4
    6050:	14 14       	cp	r1, r4
    6052:	74 f5       	brge	.+92     	; 0x60b0 <vfprintf+0x222>
    6054:	28 e0       	ldi	r18, 0x08	; 8
    6056:	24 15       	cp	r18, r4
    6058:	78 f5       	brcc	.+94     	; 0x60b8 <vfprintf+0x22a>
    605a:	88 e0       	ldi	r24, 0x08	; 8
    605c:	48 2e       	mov	r4, r24
    605e:	2c c0       	rjmp	.+88     	; 0x60b8 <vfprintf+0x22a>
    6060:	96 fc       	sbrc	r9, 6
    6062:	2a c0       	rjmp	.+84     	; 0x60b8 <vfprintf+0x22a>
    6064:	81 2f       	mov	r24, r17
    6066:	90 e0       	ldi	r25, 0x00	; 0
    6068:	8c 15       	cp	r24, r12
    606a:	9d 05       	cpc	r25, r13
    606c:	9c f0       	brlt	.+38     	; 0x6094 <vfprintf+0x206>
    606e:	3c ef       	ldi	r19, 0xFC	; 252
    6070:	c3 16       	cp	r12, r19
    6072:	3f ef       	ldi	r19, 0xFF	; 255
    6074:	d3 06       	cpc	r13, r19
    6076:	74 f0       	brlt	.+28     	; 0x6094 <vfprintf+0x206>
    6078:	89 2d       	mov	r24, r9
    607a:	80 68       	ori	r24, 0x80	; 128
    607c:	98 2e       	mov	r9, r24
    607e:	0a c0       	rjmp	.+20     	; 0x6094 <vfprintf+0x206>
    6080:	e2 e0       	ldi	r30, 0x02	; 2
    6082:	f0 e0       	ldi	r31, 0x00	; 0
    6084:	ec 0f       	add	r30, r28
    6086:	fd 1f       	adc	r31, r29
    6088:	e1 0f       	add	r30, r17
    608a:	f1 1d       	adc	r31, r1
    608c:	80 81       	ld	r24, Z
    608e:	80 33       	cpi	r24, 0x30	; 48
    6090:	19 f4       	brne	.+6      	; 0x6098 <vfprintf+0x20a>
    6092:	11 50       	subi	r17, 0x01	; 1
    6094:	11 11       	cpse	r17, r1
    6096:	f4 cf       	rjmp	.-24     	; 0x6080 <vfprintf+0x1f2>
    6098:	97 fe       	sbrs	r9, 7
    609a:	0e c0       	rjmp	.+28     	; 0x60b8 <vfprintf+0x22a>
    609c:	44 24       	eor	r4, r4
    609e:	43 94       	inc	r4
    60a0:	41 0e       	add	r4, r17
    60a2:	81 2f       	mov	r24, r17
    60a4:	90 e0       	ldi	r25, 0x00	; 0
    60a6:	c8 16       	cp	r12, r24
    60a8:	d9 06       	cpc	r13, r25
    60aa:	2c f4       	brge	.+10     	; 0x60b6 <vfprintf+0x228>
    60ac:	1c 19       	sub	r17, r12
    60ae:	04 c0       	rjmp	.+8      	; 0x60b8 <vfprintf+0x22a>
    60b0:	44 24       	eor	r4, r4
    60b2:	43 94       	inc	r4
    60b4:	01 c0       	rjmp	.+2      	; 0x60b8 <vfprintf+0x22a>
    60b6:	10 e0       	ldi	r17, 0x00	; 0
    60b8:	97 fe       	sbrs	r9, 7
    60ba:	06 c0       	rjmp	.+12     	; 0x60c8 <vfprintf+0x23a>
    60bc:	1c 14       	cp	r1, r12
    60be:	1d 04       	cpc	r1, r13
    60c0:	34 f4       	brge	.+12     	; 0x60ce <vfprintf+0x240>
    60c2:	c6 01       	movw	r24, r12
    60c4:	01 96       	adiw	r24, 0x01	; 1
    60c6:	05 c0       	rjmp	.+10     	; 0x60d2 <vfprintf+0x244>
    60c8:	85 e0       	ldi	r24, 0x05	; 5
    60ca:	90 e0       	ldi	r25, 0x00	; 0
    60cc:	02 c0       	rjmp	.+4      	; 0x60d2 <vfprintf+0x244>
    60ce:	81 e0       	ldi	r24, 0x01	; 1
    60d0:	90 e0       	ldi	r25, 0x00	; 0
    60d2:	01 11       	cpse	r16, r1
    60d4:	01 96       	adiw	r24, 0x01	; 1
    60d6:	11 23       	and	r17, r17
    60d8:	31 f0       	breq	.+12     	; 0x60e6 <vfprintf+0x258>
    60da:	21 2f       	mov	r18, r17
    60dc:	30 e0       	ldi	r19, 0x00	; 0
    60de:	2f 5f       	subi	r18, 0xFF	; 255
    60e0:	3f 4f       	sbci	r19, 0xFF	; 255
    60e2:	82 0f       	add	r24, r18
    60e4:	93 1f       	adc	r25, r19
    60e6:	25 2d       	mov	r18, r5
    60e8:	30 e0       	ldi	r19, 0x00	; 0
    60ea:	82 17       	cp	r24, r18
    60ec:	93 07       	cpc	r25, r19
    60ee:	14 f4       	brge	.+4      	; 0x60f4 <vfprintf+0x266>
    60f0:	58 1a       	sub	r5, r24
    60f2:	01 c0       	rjmp	.+2      	; 0x60f6 <vfprintf+0x268>
    60f4:	51 2c       	mov	r5, r1
    60f6:	89 2d       	mov	r24, r9
    60f8:	89 70       	andi	r24, 0x09	; 9
    60fa:	49 f4       	brne	.+18     	; 0x610e <vfprintf+0x280>
    60fc:	55 20       	and	r5, r5
    60fe:	39 f0       	breq	.+14     	; 0x610e <vfprintf+0x280>
    6100:	b7 01       	movw	r22, r14
    6102:	80 e2       	ldi	r24, 0x20	; 32
    6104:	90 e0       	ldi	r25, 0x00	; 0
    6106:	0e 94 7a 34 	call	0x68f4	; 0x68f4 <fputc>
    610a:	5a 94       	dec	r5
    610c:	f7 cf       	rjmp	.-18     	; 0x60fc <vfprintf+0x26e>
    610e:	00 23       	and	r16, r16
    6110:	29 f0       	breq	.+10     	; 0x611c <vfprintf+0x28e>
    6112:	b7 01       	movw	r22, r14
    6114:	80 2f       	mov	r24, r16
    6116:	90 e0       	ldi	r25, 0x00	; 0
    6118:	0e 94 7a 34 	call	0x68f4	; 0x68f4 <fputc>
    611c:	93 fc       	sbrc	r9, 3
    611e:	09 c0       	rjmp	.+18     	; 0x6132 <vfprintf+0x2a4>
    6120:	55 20       	and	r5, r5
    6122:	39 f0       	breq	.+14     	; 0x6132 <vfprintf+0x2a4>
    6124:	b7 01       	movw	r22, r14
    6126:	80 e3       	ldi	r24, 0x30	; 48
    6128:	90 e0       	ldi	r25, 0x00	; 0
    612a:	0e 94 7a 34 	call	0x68f4	; 0x68f4 <fputc>
    612e:	5a 94       	dec	r5
    6130:	f7 cf       	rjmp	.-18     	; 0x6120 <vfprintf+0x292>
    6132:	97 fe       	sbrs	r9, 7
    6134:	4c c0       	rjmp	.+152    	; 0x61ce <vfprintf+0x340>
    6136:	46 01       	movw	r8, r12
    6138:	d7 fe       	sbrs	r13, 7
    613a:	02 c0       	rjmp	.+4      	; 0x6140 <vfprintf+0x2b2>
    613c:	81 2c       	mov	r8, r1
    613e:	91 2c       	mov	r9, r1
    6140:	c6 01       	movw	r24, r12
    6142:	88 19       	sub	r24, r8
    6144:	99 09       	sbc	r25, r9
    6146:	f3 01       	movw	r30, r6
    6148:	e8 0f       	add	r30, r24
    614a:	f9 1f       	adc	r31, r25
    614c:	fe 87       	std	Y+14, r31	; 0x0e
    614e:	ed 87       	std	Y+13, r30	; 0x0d
    6150:	96 01       	movw	r18, r12
    6152:	24 19       	sub	r18, r4
    6154:	31 09       	sbc	r19, r1
    6156:	38 8b       	std	Y+16, r19	; 0x10
    6158:	2f 87       	std	Y+15, r18	; 0x0f
    615a:	01 2f       	mov	r16, r17
    615c:	10 e0       	ldi	r17, 0x00	; 0
    615e:	11 95       	neg	r17
    6160:	01 95       	neg	r16
    6162:	11 09       	sbc	r17, r1
    6164:	3f ef       	ldi	r19, 0xFF	; 255
    6166:	83 16       	cp	r8, r19
    6168:	93 06       	cpc	r9, r19
    616a:	29 f4       	brne	.+10     	; 0x6176 <vfprintf+0x2e8>
    616c:	b7 01       	movw	r22, r14
    616e:	8e e2       	ldi	r24, 0x2E	; 46
    6170:	90 e0       	ldi	r25, 0x00	; 0
    6172:	0e 94 7a 34 	call	0x68f4	; 0x68f4 <fputc>
    6176:	c8 14       	cp	r12, r8
    6178:	d9 04       	cpc	r13, r9
    617a:	4c f0       	brlt	.+18     	; 0x618e <vfprintf+0x300>
    617c:	8f 85       	ldd	r24, Y+15	; 0x0f
    617e:	98 89       	ldd	r25, Y+16	; 0x10
    6180:	88 15       	cp	r24, r8
    6182:	99 05       	cpc	r25, r9
    6184:	24 f4       	brge	.+8      	; 0x618e <vfprintf+0x300>
    6186:	ed 85       	ldd	r30, Y+13	; 0x0d
    6188:	fe 85       	ldd	r31, Y+14	; 0x0e
    618a:	81 81       	ldd	r24, Z+1	; 0x01
    618c:	01 c0       	rjmp	.+2      	; 0x6190 <vfprintf+0x302>
    618e:	80 e3       	ldi	r24, 0x30	; 48
    6190:	f1 e0       	ldi	r31, 0x01	; 1
    6192:	8f 1a       	sub	r8, r31
    6194:	91 08       	sbc	r9, r1
    6196:	2d 85       	ldd	r18, Y+13	; 0x0d
    6198:	3e 85       	ldd	r19, Y+14	; 0x0e
    619a:	2f 5f       	subi	r18, 0xFF	; 255
    619c:	3f 4f       	sbci	r19, 0xFF	; 255
    619e:	3e 87       	std	Y+14, r19	; 0x0e
    61a0:	2d 87       	std	Y+13, r18	; 0x0d
    61a2:	80 16       	cp	r8, r16
    61a4:	91 06       	cpc	r9, r17
    61a6:	2c f0       	brlt	.+10     	; 0x61b2 <vfprintf+0x324>
    61a8:	b7 01       	movw	r22, r14
    61aa:	90 e0       	ldi	r25, 0x00	; 0
    61ac:	0e 94 7a 34 	call	0x68f4	; 0x68f4 <fputc>
    61b0:	d9 cf       	rjmp	.-78     	; 0x6164 <vfprintf+0x2d6>
    61b2:	c8 14       	cp	r12, r8
    61b4:	d9 04       	cpc	r13, r9
    61b6:	41 f4       	brne	.+16     	; 0x61c8 <vfprintf+0x33a>
    61b8:	9a 81       	ldd	r25, Y+2	; 0x02
    61ba:	96 33       	cpi	r25, 0x36	; 54
    61bc:	20 f4       	brcc	.+8      	; 0x61c6 <vfprintf+0x338>
    61be:	95 33       	cpi	r25, 0x35	; 53
    61c0:	19 f4       	brne	.+6      	; 0x61c8 <vfprintf+0x33a>
    61c2:	3c 85       	ldd	r19, Y+12	; 0x0c
    61c4:	34 ff       	sbrs	r19, 4
    61c6:	81 e3       	ldi	r24, 0x31	; 49
    61c8:	b7 01       	movw	r22, r14
    61ca:	90 e0       	ldi	r25, 0x00	; 0
    61cc:	4e c0       	rjmp	.+156    	; 0x626a <vfprintf+0x3dc>
    61ce:	8a 81       	ldd	r24, Y+2	; 0x02
    61d0:	81 33       	cpi	r24, 0x31	; 49
    61d2:	19 f0       	breq	.+6      	; 0x61da <vfprintf+0x34c>
    61d4:	9c 85       	ldd	r25, Y+12	; 0x0c
    61d6:	9f 7e       	andi	r25, 0xEF	; 239
    61d8:	9c 87       	std	Y+12, r25	; 0x0c
    61da:	b7 01       	movw	r22, r14
    61dc:	90 e0       	ldi	r25, 0x00	; 0
    61de:	0e 94 7a 34 	call	0x68f4	; 0x68f4 <fputc>
    61e2:	11 11       	cpse	r17, r1
    61e4:	05 c0       	rjmp	.+10     	; 0x61f0 <vfprintf+0x362>
    61e6:	94 fc       	sbrc	r9, 4
    61e8:	18 c0       	rjmp	.+48     	; 0x621a <vfprintf+0x38c>
    61ea:	85 e6       	ldi	r24, 0x65	; 101
    61ec:	90 e0       	ldi	r25, 0x00	; 0
    61ee:	17 c0       	rjmp	.+46     	; 0x621e <vfprintf+0x390>
    61f0:	b7 01       	movw	r22, r14
    61f2:	8e e2       	ldi	r24, 0x2E	; 46
    61f4:	90 e0       	ldi	r25, 0x00	; 0
    61f6:	0e 94 7a 34 	call	0x68f4	; 0x68f4 <fputc>
    61fa:	1e 5f       	subi	r17, 0xFE	; 254
    61fc:	82 e0       	ldi	r24, 0x02	; 2
    61fe:	01 e0       	ldi	r16, 0x01	; 1
    6200:	08 0f       	add	r16, r24
    6202:	f3 01       	movw	r30, r6
    6204:	e8 0f       	add	r30, r24
    6206:	f1 1d       	adc	r31, r1
    6208:	80 81       	ld	r24, Z
    620a:	b7 01       	movw	r22, r14
    620c:	90 e0       	ldi	r25, 0x00	; 0
    620e:	0e 94 7a 34 	call	0x68f4	; 0x68f4 <fputc>
    6212:	80 2f       	mov	r24, r16
    6214:	01 13       	cpse	r16, r17
    6216:	f3 cf       	rjmp	.-26     	; 0x61fe <vfprintf+0x370>
    6218:	e6 cf       	rjmp	.-52     	; 0x61e6 <vfprintf+0x358>
    621a:	85 e4       	ldi	r24, 0x45	; 69
    621c:	90 e0       	ldi	r25, 0x00	; 0
    621e:	b7 01       	movw	r22, r14
    6220:	0e 94 7a 34 	call	0x68f4	; 0x68f4 <fputc>
    6224:	d7 fc       	sbrc	r13, 7
    6226:	06 c0       	rjmp	.+12     	; 0x6234 <vfprintf+0x3a6>
    6228:	c1 14       	cp	r12, r1
    622a:	d1 04       	cpc	r13, r1
    622c:	41 f4       	brne	.+16     	; 0x623e <vfprintf+0x3b0>
    622e:	ec 85       	ldd	r30, Y+12	; 0x0c
    6230:	e4 ff       	sbrs	r30, 4
    6232:	05 c0       	rjmp	.+10     	; 0x623e <vfprintf+0x3b0>
    6234:	d1 94       	neg	r13
    6236:	c1 94       	neg	r12
    6238:	d1 08       	sbc	r13, r1
    623a:	8d e2       	ldi	r24, 0x2D	; 45
    623c:	01 c0       	rjmp	.+2      	; 0x6240 <vfprintf+0x3b2>
    623e:	8b e2       	ldi	r24, 0x2B	; 43
    6240:	b7 01       	movw	r22, r14
    6242:	90 e0       	ldi	r25, 0x00	; 0
    6244:	0e 94 7a 34 	call	0x68f4	; 0x68f4 <fputc>
    6248:	80 e3       	ldi	r24, 0x30	; 48
    624a:	2a e0       	ldi	r18, 0x0A	; 10
    624c:	c2 16       	cp	r12, r18
    624e:	d1 04       	cpc	r13, r1
    6250:	2c f0       	brlt	.+10     	; 0x625c <vfprintf+0x3ce>
    6252:	8f 5f       	subi	r24, 0xFF	; 255
    6254:	fa e0       	ldi	r31, 0x0A	; 10
    6256:	cf 1a       	sub	r12, r31
    6258:	d1 08       	sbc	r13, r1
    625a:	f7 cf       	rjmp	.-18     	; 0x624a <vfprintf+0x3bc>
    625c:	b7 01       	movw	r22, r14
    625e:	90 e0       	ldi	r25, 0x00	; 0
    6260:	0e 94 7a 34 	call	0x68f4	; 0x68f4 <fputc>
    6264:	b7 01       	movw	r22, r14
    6266:	c6 01       	movw	r24, r12
    6268:	c0 96       	adiw	r24, 0x30	; 48
    626a:	0e 94 7a 34 	call	0x68f4	; 0x68f4 <fputc>
    626e:	54 c1       	rjmp	.+680    	; 0x6518 <vfprintf+0x68a>
    6270:	83 36       	cpi	r24, 0x63	; 99
    6272:	31 f0       	breq	.+12     	; 0x6280 <vfprintf+0x3f2>
    6274:	83 37       	cpi	r24, 0x73	; 115
    6276:	79 f0       	breq	.+30     	; 0x6296 <vfprintf+0x408>
    6278:	83 35       	cpi	r24, 0x53	; 83
    627a:	09 f0       	breq	.+2      	; 0x627e <vfprintf+0x3f0>
    627c:	56 c0       	rjmp	.+172    	; 0x632a <vfprintf+0x49c>
    627e:	20 c0       	rjmp	.+64     	; 0x62c0 <vfprintf+0x432>
    6280:	56 01       	movw	r10, r12
    6282:	32 e0       	ldi	r19, 0x02	; 2
    6284:	a3 0e       	add	r10, r19
    6286:	b1 1c       	adc	r11, r1
    6288:	f6 01       	movw	r30, r12
    628a:	80 81       	ld	r24, Z
    628c:	89 83       	std	Y+1, r24	; 0x01
    628e:	01 e0       	ldi	r16, 0x01	; 1
    6290:	10 e0       	ldi	r17, 0x00	; 0
    6292:	63 01       	movw	r12, r6
    6294:	12 c0       	rjmp	.+36     	; 0x62ba <vfprintf+0x42c>
    6296:	56 01       	movw	r10, r12
    6298:	f2 e0       	ldi	r31, 0x02	; 2
    629a:	af 0e       	add	r10, r31
    629c:	b1 1c       	adc	r11, r1
    629e:	f6 01       	movw	r30, r12
    62a0:	c0 80       	ld	r12, Z
    62a2:	d1 80       	ldd	r13, Z+1	; 0x01
    62a4:	96 fe       	sbrs	r9, 6
    62a6:	03 c0       	rjmp	.+6      	; 0x62ae <vfprintf+0x420>
    62a8:	61 2f       	mov	r22, r17
    62aa:	70 e0       	ldi	r23, 0x00	; 0
    62ac:	02 c0       	rjmp	.+4      	; 0x62b2 <vfprintf+0x424>
    62ae:	6f ef       	ldi	r22, 0xFF	; 255
    62b0:	7f ef       	ldi	r23, 0xFF	; 255
    62b2:	c6 01       	movw	r24, r12
    62b4:	0e 94 67 34 	call	0x68ce	; 0x68ce <strnlen>
    62b8:	8c 01       	movw	r16, r24
    62ba:	f9 2d       	mov	r31, r9
    62bc:	ff 77       	andi	r31, 0x7F	; 127
    62be:	14 c0       	rjmp	.+40     	; 0x62e8 <vfprintf+0x45a>
    62c0:	56 01       	movw	r10, r12
    62c2:	22 e0       	ldi	r18, 0x02	; 2
    62c4:	a2 0e       	add	r10, r18
    62c6:	b1 1c       	adc	r11, r1
    62c8:	f6 01       	movw	r30, r12
    62ca:	c0 80       	ld	r12, Z
    62cc:	d1 80       	ldd	r13, Z+1	; 0x01
    62ce:	96 fe       	sbrs	r9, 6
    62d0:	03 c0       	rjmp	.+6      	; 0x62d8 <vfprintf+0x44a>
    62d2:	61 2f       	mov	r22, r17
    62d4:	70 e0       	ldi	r23, 0x00	; 0
    62d6:	02 c0       	rjmp	.+4      	; 0x62dc <vfprintf+0x44e>
    62d8:	6f ef       	ldi	r22, 0xFF	; 255
    62da:	7f ef       	ldi	r23, 0xFF	; 255
    62dc:	c6 01       	movw	r24, r12
    62de:	0e 94 43 34 	call	0x6886	; 0x6886 <strnlen_P>
    62e2:	8c 01       	movw	r16, r24
    62e4:	f9 2d       	mov	r31, r9
    62e6:	f0 68       	ori	r31, 0x80	; 128
    62e8:	9f 2e       	mov	r9, r31
    62ea:	f3 fd       	sbrc	r31, 3
    62ec:	1a c0       	rjmp	.+52     	; 0x6322 <vfprintf+0x494>
    62ee:	85 2d       	mov	r24, r5
    62f0:	90 e0       	ldi	r25, 0x00	; 0
    62f2:	08 17       	cp	r16, r24
    62f4:	19 07       	cpc	r17, r25
    62f6:	a8 f4       	brcc	.+42     	; 0x6322 <vfprintf+0x494>
    62f8:	b7 01       	movw	r22, r14
    62fa:	80 e2       	ldi	r24, 0x20	; 32
    62fc:	90 e0       	ldi	r25, 0x00	; 0
    62fe:	0e 94 7a 34 	call	0x68f4	; 0x68f4 <fputc>
    6302:	5a 94       	dec	r5
    6304:	f4 cf       	rjmp	.-24     	; 0x62ee <vfprintf+0x460>
    6306:	f6 01       	movw	r30, r12
    6308:	97 fc       	sbrc	r9, 7
    630a:	85 91       	lpm	r24, Z+
    630c:	97 fe       	sbrs	r9, 7
    630e:	81 91       	ld	r24, Z+
    6310:	6f 01       	movw	r12, r30
    6312:	b7 01       	movw	r22, r14
    6314:	90 e0       	ldi	r25, 0x00	; 0
    6316:	0e 94 7a 34 	call	0x68f4	; 0x68f4 <fputc>
    631a:	51 10       	cpse	r5, r1
    631c:	5a 94       	dec	r5
    631e:	01 50       	subi	r16, 0x01	; 1
    6320:	11 09       	sbc	r17, r1
    6322:	01 15       	cp	r16, r1
    6324:	11 05       	cpc	r17, r1
    6326:	79 f7       	brne	.-34     	; 0x6306 <vfprintf+0x478>
    6328:	f7 c0       	rjmp	.+494    	; 0x6518 <vfprintf+0x68a>
    632a:	84 36       	cpi	r24, 0x64	; 100
    632c:	11 f0       	breq	.+4      	; 0x6332 <vfprintf+0x4a4>
    632e:	89 36       	cpi	r24, 0x69	; 105
    6330:	61 f5       	brne	.+88     	; 0x638a <vfprintf+0x4fc>
    6332:	56 01       	movw	r10, r12
    6334:	97 fe       	sbrs	r9, 7
    6336:	09 c0       	rjmp	.+18     	; 0x634a <vfprintf+0x4bc>
    6338:	24 e0       	ldi	r18, 0x04	; 4
    633a:	a2 0e       	add	r10, r18
    633c:	b1 1c       	adc	r11, r1
    633e:	f6 01       	movw	r30, r12
    6340:	60 81       	ld	r22, Z
    6342:	71 81       	ldd	r23, Z+1	; 0x01
    6344:	82 81       	ldd	r24, Z+2	; 0x02
    6346:	93 81       	ldd	r25, Z+3	; 0x03
    6348:	0a c0       	rjmp	.+20     	; 0x635e <vfprintf+0x4d0>
    634a:	f2 e0       	ldi	r31, 0x02	; 2
    634c:	af 0e       	add	r10, r31
    634e:	b1 1c       	adc	r11, r1
    6350:	f6 01       	movw	r30, r12
    6352:	60 81       	ld	r22, Z
    6354:	71 81       	ldd	r23, Z+1	; 0x01
    6356:	07 2e       	mov	r0, r23
    6358:	00 0c       	add	r0, r0
    635a:	88 0b       	sbc	r24, r24
    635c:	99 0b       	sbc	r25, r25
    635e:	f9 2d       	mov	r31, r9
    6360:	ff 76       	andi	r31, 0x6F	; 111
    6362:	9f 2e       	mov	r9, r31
    6364:	97 ff       	sbrs	r25, 7
    6366:	09 c0       	rjmp	.+18     	; 0x637a <vfprintf+0x4ec>
    6368:	90 95       	com	r25
    636a:	80 95       	com	r24
    636c:	70 95       	com	r23
    636e:	61 95       	neg	r22
    6370:	7f 4f       	sbci	r23, 0xFF	; 255
    6372:	8f 4f       	sbci	r24, 0xFF	; 255
    6374:	9f 4f       	sbci	r25, 0xFF	; 255
    6376:	f0 68       	ori	r31, 0x80	; 128
    6378:	9f 2e       	mov	r9, r31
    637a:	2a e0       	ldi	r18, 0x0A	; 10
    637c:	30 e0       	ldi	r19, 0x00	; 0
    637e:	a3 01       	movw	r20, r6
    6380:	0e 94 d8 34 	call	0x69b0	; 0x69b0 <__ultoa_invert>
    6384:	c8 2e       	mov	r12, r24
    6386:	c6 18       	sub	r12, r6
    6388:	3f c0       	rjmp	.+126    	; 0x6408 <vfprintf+0x57a>
    638a:	09 2d       	mov	r16, r9
    638c:	85 37       	cpi	r24, 0x75	; 117
    638e:	21 f4       	brne	.+8      	; 0x6398 <vfprintf+0x50a>
    6390:	0f 7e       	andi	r16, 0xEF	; 239
    6392:	2a e0       	ldi	r18, 0x0A	; 10
    6394:	30 e0       	ldi	r19, 0x00	; 0
    6396:	1d c0       	rjmp	.+58     	; 0x63d2 <vfprintf+0x544>
    6398:	09 7f       	andi	r16, 0xF9	; 249
    639a:	8f 36       	cpi	r24, 0x6F	; 111
    639c:	91 f0       	breq	.+36     	; 0x63c2 <vfprintf+0x534>
    639e:	18 f4       	brcc	.+6      	; 0x63a6 <vfprintf+0x518>
    63a0:	88 35       	cpi	r24, 0x58	; 88
    63a2:	59 f0       	breq	.+22     	; 0x63ba <vfprintf+0x52c>
    63a4:	c3 c0       	rjmp	.+390    	; 0x652c <vfprintf+0x69e>
    63a6:	80 37       	cpi	r24, 0x70	; 112
    63a8:	19 f0       	breq	.+6      	; 0x63b0 <vfprintf+0x522>
    63aa:	88 37       	cpi	r24, 0x78	; 120
    63ac:	11 f0       	breq	.+4      	; 0x63b2 <vfprintf+0x524>
    63ae:	be c0       	rjmp	.+380    	; 0x652c <vfprintf+0x69e>
    63b0:	00 61       	ori	r16, 0x10	; 16
    63b2:	04 ff       	sbrs	r16, 4
    63b4:	09 c0       	rjmp	.+18     	; 0x63c8 <vfprintf+0x53a>
    63b6:	04 60       	ori	r16, 0x04	; 4
    63b8:	07 c0       	rjmp	.+14     	; 0x63c8 <vfprintf+0x53a>
    63ba:	94 fe       	sbrs	r9, 4
    63bc:	08 c0       	rjmp	.+16     	; 0x63ce <vfprintf+0x540>
    63be:	06 60       	ori	r16, 0x06	; 6
    63c0:	06 c0       	rjmp	.+12     	; 0x63ce <vfprintf+0x540>
    63c2:	28 e0       	ldi	r18, 0x08	; 8
    63c4:	30 e0       	ldi	r19, 0x00	; 0
    63c6:	05 c0       	rjmp	.+10     	; 0x63d2 <vfprintf+0x544>
    63c8:	20 e1       	ldi	r18, 0x10	; 16
    63ca:	30 e0       	ldi	r19, 0x00	; 0
    63cc:	02 c0       	rjmp	.+4      	; 0x63d2 <vfprintf+0x544>
    63ce:	20 e1       	ldi	r18, 0x10	; 16
    63d0:	32 e0       	ldi	r19, 0x02	; 2
    63d2:	56 01       	movw	r10, r12
    63d4:	07 ff       	sbrs	r16, 7
    63d6:	09 c0       	rjmp	.+18     	; 0x63ea <vfprintf+0x55c>
    63d8:	84 e0       	ldi	r24, 0x04	; 4
    63da:	a8 0e       	add	r10, r24
    63dc:	b1 1c       	adc	r11, r1
    63de:	f6 01       	movw	r30, r12
    63e0:	60 81       	ld	r22, Z
    63e2:	71 81       	ldd	r23, Z+1	; 0x01
    63e4:	82 81       	ldd	r24, Z+2	; 0x02
    63e6:	93 81       	ldd	r25, Z+3	; 0x03
    63e8:	08 c0       	rjmp	.+16     	; 0x63fa <vfprintf+0x56c>
    63ea:	f2 e0       	ldi	r31, 0x02	; 2
    63ec:	af 0e       	add	r10, r31
    63ee:	b1 1c       	adc	r11, r1
    63f0:	f6 01       	movw	r30, r12
    63f2:	60 81       	ld	r22, Z
    63f4:	71 81       	ldd	r23, Z+1	; 0x01
    63f6:	80 e0       	ldi	r24, 0x00	; 0
    63f8:	90 e0       	ldi	r25, 0x00	; 0
    63fa:	a3 01       	movw	r20, r6
    63fc:	0e 94 d8 34 	call	0x69b0	; 0x69b0 <__ultoa_invert>
    6400:	c8 2e       	mov	r12, r24
    6402:	c6 18       	sub	r12, r6
    6404:	0f 77       	andi	r16, 0x7F	; 127
    6406:	90 2e       	mov	r9, r16
    6408:	96 fe       	sbrs	r9, 6
    640a:	0b c0       	rjmp	.+22     	; 0x6422 <vfprintf+0x594>
    640c:	09 2d       	mov	r16, r9
    640e:	0e 7f       	andi	r16, 0xFE	; 254
    6410:	c1 16       	cp	r12, r17
    6412:	50 f4       	brcc	.+20     	; 0x6428 <vfprintf+0x59a>
    6414:	94 fe       	sbrs	r9, 4
    6416:	0a c0       	rjmp	.+20     	; 0x642c <vfprintf+0x59e>
    6418:	92 fc       	sbrc	r9, 2
    641a:	08 c0       	rjmp	.+16     	; 0x642c <vfprintf+0x59e>
    641c:	09 2d       	mov	r16, r9
    641e:	0e 7e       	andi	r16, 0xEE	; 238
    6420:	05 c0       	rjmp	.+10     	; 0x642c <vfprintf+0x59e>
    6422:	dc 2c       	mov	r13, r12
    6424:	09 2d       	mov	r16, r9
    6426:	03 c0       	rjmp	.+6      	; 0x642e <vfprintf+0x5a0>
    6428:	dc 2c       	mov	r13, r12
    642a:	01 c0       	rjmp	.+2      	; 0x642e <vfprintf+0x5a0>
    642c:	d1 2e       	mov	r13, r17
    642e:	04 ff       	sbrs	r16, 4
    6430:	0d c0       	rjmp	.+26     	; 0x644c <vfprintf+0x5be>
    6432:	fe 01       	movw	r30, r28
    6434:	ec 0d       	add	r30, r12
    6436:	f1 1d       	adc	r31, r1
    6438:	80 81       	ld	r24, Z
    643a:	80 33       	cpi	r24, 0x30	; 48
    643c:	11 f4       	brne	.+4      	; 0x6442 <vfprintf+0x5b4>
    643e:	09 7e       	andi	r16, 0xE9	; 233
    6440:	09 c0       	rjmp	.+18     	; 0x6454 <vfprintf+0x5c6>
    6442:	02 ff       	sbrs	r16, 2
    6444:	06 c0       	rjmp	.+12     	; 0x6452 <vfprintf+0x5c4>
    6446:	d3 94       	inc	r13
    6448:	d3 94       	inc	r13
    644a:	04 c0       	rjmp	.+8      	; 0x6454 <vfprintf+0x5c6>
    644c:	80 2f       	mov	r24, r16
    644e:	86 78       	andi	r24, 0x86	; 134
    6450:	09 f0       	breq	.+2      	; 0x6454 <vfprintf+0x5c6>
    6452:	d3 94       	inc	r13
    6454:	03 fd       	sbrc	r16, 3
    6456:	11 c0       	rjmp	.+34     	; 0x647a <vfprintf+0x5ec>
    6458:	00 ff       	sbrs	r16, 0
    645a:	06 c0       	rjmp	.+12     	; 0x6468 <vfprintf+0x5da>
    645c:	1c 2d       	mov	r17, r12
    645e:	d5 14       	cp	r13, r5
    6460:	80 f4       	brcc	.+32     	; 0x6482 <vfprintf+0x5f4>
    6462:	15 0d       	add	r17, r5
    6464:	1d 19       	sub	r17, r13
    6466:	0d c0       	rjmp	.+26     	; 0x6482 <vfprintf+0x5f4>
    6468:	d5 14       	cp	r13, r5
    646a:	58 f4       	brcc	.+22     	; 0x6482 <vfprintf+0x5f4>
    646c:	b7 01       	movw	r22, r14
    646e:	80 e2       	ldi	r24, 0x20	; 32
    6470:	90 e0       	ldi	r25, 0x00	; 0
    6472:	0e 94 7a 34 	call	0x68f4	; 0x68f4 <fputc>
    6476:	d3 94       	inc	r13
    6478:	f7 cf       	rjmp	.-18     	; 0x6468 <vfprintf+0x5da>
    647a:	d5 14       	cp	r13, r5
    647c:	10 f4       	brcc	.+4      	; 0x6482 <vfprintf+0x5f4>
    647e:	5d 18       	sub	r5, r13
    6480:	01 c0       	rjmp	.+2      	; 0x6484 <vfprintf+0x5f6>
    6482:	51 2c       	mov	r5, r1
    6484:	04 ff       	sbrs	r16, 4
    6486:	10 c0       	rjmp	.+32     	; 0x64a8 <vfprintf+0x61a>
    6488:	b7 01       	movw	r22, r14
    648a:	80 e3       	ldi	r24, 0x30	; 48
    648c:	90 e0       	ldi	r25, 0x00	; 0
    648e:	0e 94 7a 34 	call	0x68f4	; 0x68f4 <fputc>
    6492:	02 ff       	sbrs	r16, 2
    6494:	17 c0       	rjmp	.+46     	; 0x64c4 <vfprintf+0x636>
    6496:	01 fd       	sbrc	r16, 1
    6498:	03 c0       	rjmp	.+6      	; 0x64a0 <vfprintf+0x612>
    649a:	88 e7       	ldi	r24, 0x78	; 120
    649c:	90 e0       	ldi	r25, 0x00	; 0
    649e:	02 c0       	rjmp	.+4      	; 0x64a4 <vfprintf+0x616>
    64a0:	88 e5       	ldi	r24, 0x58	; 88
    64a2:	90 e0       	ldi	r25, 0x00	; 0
    64a4:	b7 01       	movw	r22, r14
    64a6:	0c c0       	rjmp	.+24     	; 0x64c0 <vfprintf+0x632>
    64a8:	80 2f       	mov	r24, r16
    64aa:	86 78       	andi	r24, 0x86	; 134
    64ac:	59 f0       	breq	.+22     	; 0x64c4 <vfprintf+0x636>
    64ae:	01 ff       	sbrs	r16, 1
    64b0:	02 c0       	rjmp	.+4      	; 0x64b6 <vfprintf+0x628>
    64b2:	8b e2       	ldi	r24, 0x2B	; 43
    64b4:	01 c0       	rjmp	.+2      	; 0x64b8 <vfprintf+0x62a>
    64b6:	80 e2       	ldi	r24, 0x20	; 32
    64b8:	07 fd       	sbrc	r16, 7
    64ba:	8d e2       	ldi	r24, 0x2D	; 45
    64bc:	b7 01       	movw	r22, r14
    64be:	90 e0       	ldi	r25, 0x00	; 0
    64c0:	0e 94 7a 34 	call	0x68f4	; 0x68f4 <fputc>
    64c4:	c1 16       	cp	r12, r17
    64c6:	38 f4       	brcc	.+14     	; 0x64d6 <vfprintf+0x648>
    64c8:	b7 01       	movw	r22, r14
    64ca:	80 e3       	ldi	r24, 0x30	; 48
    64cc:	90 e0       	ldi	r25, 0x00	; 0
    64ce:	0e 94 7a 34 	call	0x68f4	; 0x68f4 <fputc>
    64d2:	11 50       	subi	r17, 0x01	; 1
    64d4:	f7 cf       	rjmp	.-18     	; 0x64c4 <vfprintf+0x636>
    64d6:	ca 94       	dec	r12
    64d8:	f3 01       	movw	r30, r6
    64da:	ec 0d       	add	r30, r12
    64dc:	f1 1d       	adc	r31, r1
    64de:	80 81       	ld	r24, Z
    64e0:	b7 01       	movw	r22, r14
    64e2:	90 e0       	ldi	r25, 0x00	; 0
    64e4:	0e 94 7a 34 	call	0x68f4	; 0x68f4 <fputc>
    64e8:	c1 10       	cpse	r12, r1
    64ea:	f5 cf       	rjmp	.-22     	; 0x64d6 <vfprintf+0x648>
    64ec:	15 c0       	rjmp	.+42     	; 0x6518 <vfprintf+0x68a>
    64ee:	f4 e0       	ldi	r31, 0x04	; 4
    64f0:	f5 15       	cp	r31, r5
    64f2:	60 f5       	brcc	.+88     	; 0x654c <vfprintf+0x6be>
    64f4:	84 e0       	ldi	r24, 0x04	; 4
    64f6:	58 1a       	sub	r5, r24
    64f8:	93 fe       	sbrs	r9, 3
    64fa:	1f c0       	rjmp	.+62     	; 0x653a <vfprintf+0x6ac>
    64fc:	01 11       	cpse	r16, r1
    64fe:	27 c0       	rjmp	.+78     	; 0x654e <vfprintf+0x6c0>
    6500:	2c 85       	ldd	r18, Y+12	; 0x0c
    6502:	23 ff       	sbrs	r18, 3
    6504:	2a c0       	rjmp	.+84     	; 0x655a <vfprintf+0x6cc>
    6506:	06 e2       	ldi	r16, 0x26	; 38
    6508:	13 e0       	ldi	r17, 0x03	; 3
    650a:	39 2d       	mov	r19, r9
    650c:	30 71       	andi	r19, 0x10	; 16
    650e:	93 2e       	mov	r9, r19
    6510:	f8 01       	movw	r30, r16
    6512:	84 91       	lpm	r24, Z
    6514:	81 11       	cpse	r24, r1
    6516:	24 c0       	rjmp	.+72     	; 0x6560 <vfprintf+0x6d2>
    6518:	55 20       	and	r5, r5
    651a:	09 f4       	brne	.+2      	; 0x651e <vfprintf+0x690>
    651c:	e4 cc       	rjmp	.-1592   	; 0x5ee6 <vfprintf+0x58>
    651e:	b7 01       	movw	r22, r14
    6520:	80 e2       	ldi	r24, 0x20	; 32
    6522:	90 e0       	ldi	r25, 0x00	; 0
    6524:	0e 94 7a 34 	call	0x68f4	; 0x68f4 <fputc>
    6528:	5a 94       	dec	r5
    652a:	f6 cf       	rjmp	.-20     	; 0x6518 <vfprintf+0x68a>
    652c:	f7 01       	movw	r30, r14
    652e:	86 81       	ldd	r24, Z+6	; 0x06
    6530:	97 81       	ldd	r25, Z+7	; 0x07
    6532:	26 c0       	rjmp	.+76     	; 0x6580 <vfprintf+0x6f2>
    6534:	8f ef       	ldi	r24, 0xFF	; 255
    6536:	9f ef       	ldi	r25, 0xFF	; 255
    6538:	23 c0       	rjmp	.+70     	; 0x6580 <vfprintf+0x6f2>
    653a:	b7 01       	movw	r22, r14
    653c:	80 e2       	ldi	r24, 0x20	; 32
    653e:	90 e0       	ldi	r25, 0x00	; 0
    6540:	0e 94 7a 34 	call	0x68f4	; 0x68f4 <fputc>
    6544:	5a 94       	dec	r5
    6546:	51 10       	cpse	r5, r1
    6548:	f8 cf       	rjmp	.-16     	; 0x653a <vfprintf+0x6ac>
    654a:	d8 cf       	rjmp	.-80     	; 0x64fc <vfprintf+0x66e>
    654c:	51 2c       	mov	r5, r1
    654e:	b7 01       	movw	r22, r14
    6550:	80 2f       	mov	r24, r16
    6552:	90 e0       	ldi	r25, 0x00	; 0
    6554:	0e 94 7a 34 	call	0x68f4	; 0x68f4 <fputc>
    6558:	d3 cf       	rjmp	.-90     	; 0x6500 <vfprintf+0x672>
    655a:	0a e2       	ldi	r16, 0x2A	; 42
    655c:	13 e0       	ldi	r17, 0x03	; 3
    655e:	d5 cf       	rjmp	.-86     	; 0x650a <vfprintf+0x67c>
    6560:	91 10       	cpse	r9, r1
    6562:	80 52       	subi	r24, 0x20	; 32
    6564:	b7 01       	movw	r22, r14
    6566:	90 e0       	ldi	r25, 0x00	; 0
    6568:	0e 94 7a 34 	call	0x68f4	; 0x68f4 <fputc>
    656c:	0f 5f       	subi	r16, 0xFF	; 255
    656e:	1f 4f       	sbci	r17, 0xFF	; 255
    6570:	cf cf       	rjmp	.-98     	; 0x6510 <vfprintf+0x682>
    6572:	23 e0       	ldi	r18, 0x03	; 3
    6574:	25 15       	cp	r18, r5
    6576:	10 f4       	brcc	.+4      	; 0x657c <vfprintf+0x6ee>
    6578:	83 e0       	ldi	r24, 0x03	; 3
    657a:	bd cf       	rjmp	.-134    	; 0x64f6 <vfprintf+0x668>
    657c:	51 2c       	mov	r5, r1
    657e:	c0 cf       	rjmp	.-128    	; 0x6500 <vfprintf+0x672>
    6580:	60 96       	adiw	r28, 0x10	; 16
    6582:	e2 e1       	ldi	r30, 0x12	; 18
    6584:	0c 94 23 33 	jmp	0x6646	; 0x6646 <__epilogue_restores__>

00006588 <__mulsi3>:
    6588:	db 01       	movw	r26, r22
    658a:	8f 93       	push	r24
    658c:	9f 93       	push	r25
    658e:	0e 94 fc 32 	call	0x65f8	; 0x65f8 <__muluhisi3>
    6592:	bf 91       	pop	r27
    6594:	af 91       	pop	r26
    6596:	a2 9f       	mul	r26, r18
    6598:	80 0d       	add	r24, r0
    659a:	91 1d       	adc	r25, r1
    659c:	a3 9f       	mul	r26, r19
    659e:	90 0d       	add	r25, r0
    65a0:	b2 9f       	mul	r27, r18
    65a2:	90 0d       	add	r25, r0
    65a4:	11 24       	eor	r1, r1
    65a6:	08 95       	ret

000065a8 <__udivmodsi4>:
    65a8:	a1 e2       	ldi	r26, 0x21	; 33
    65aa:	1a 2e       	mov	r1, r26
    65ac:	aa 1b       	sub	r26, r26
    65ae:	bb 1b       	sub	r27, r27
    65b0:	fd 01       	movw	r30, r26
    65b2:	0d c0       	rjmp	.+26     	; 0x65ce <__udivmodsi4_ep>

000065b4 <__udivmodsi4_loop>:
    65b4:	aa 1f       	adc	r26, r26
    65b6:	bb 1f       	adc	r27, r27
    65b8:	ee 1f       	adc	r30, r30
    65ba:	ff 1f       	adc	r31, r31
    65bc:	a2 17       	cp	r26, r18
    65be:	b3 07       	cpc	r27, r19
    65c0:	e4 07       	cpc	r30, r20
    65c2:	f5 07       	cpc	r31, r21
    65c4:	20 f0       	brcs	.+8      	; 0x65ce <__udivmodsi4_ep>
    65c6:	a2 1b       	sub	r26, r18
    65c8:	b3 0b       	sbc	r27, r19
    65ca:	e4 0b       	sbc	r30, r20
    65cc:	f5 0b       	sbc	r31, r21

000065ce <__udivmodsi4_ep>:
    65ce:	66 1f       	adc	r22, r22
    65d0:	77 1f       	adc	r23, r23
    65d2:	88 1f       	adc	r24, r24
    65d4:	99 1f       	adc	r25, r25
    65d6:	1a 94       	dec	r1
    65d8:	69 f7       	brne	.-38     	; 0x65b4 <__udivmodsi4_loop>
    65da:	60 95       	com	r22
    65dc:	70 95       	com	r23
    65de:	80 95       	com	r24
    65e0:	90 95       	com	r25
    65e2:	9b 01       	movw	r18, r22
    65e4:	ac 01       	movw	r20, r24
    65e6:	bd 01       	movw	r22, r26
    65e8:	cf 01       	movw	r24, r30
    65ea:	08 95       	ret

000065ec <__tablejump2__>:
    65ec:	ee 0f       	add	r30, r30
    65ee:	ff 1f       	adc	r31, r31
    65f0:	05 90       	lpm	r0, Z+
    65f2:	f4 91       	lpm	r31, Z
    65f4:	e0 2d       	mov	r30, r0
    65f6:	09 94       	ijmp

000065f8 <__muluhisi3>:
    65f8:	0e 94 3e 33 	call	0x667c	; 0x667c <__umulhisi3>
    65fc:	a5 9f       	mul	r26, r21
    65fe:	90 0d       	add	r25, r0
    6600:	b4 9f       	mul	r27, r20
    6602:	90 0d       	add	r25, r0
    6604:	a4 9f       	mul	r26, r20
    6606:	80 0d       	add	r24, r0
    6608:	91 1d       	adc	r25, r1
    660a:	11 24       	eor	r1, r1
    660c:	08 95       	ret

0000660e <__prologue_saves__>:
    660e:	2f 92       	push	r2
    6610:	3f 92       	push	r3
    6612:	4f 92       	push	r4
    6614:	5f 92       	push	r5
    6616:	6f 92       	push	r6
    6618:	7f 92       	push	r7
    661a:	8f 92       	push	r8
    661c:	9f 92       	push	r9
    661e:	af 92       	push	r10
    6620:	bf 92       	push	r11
    6622:	cf 92       	push	r12
    6624:	df 92       	push	r13
    6626:	ef 92       	push	r14
    6628:	ff 92       	push	r15
    662a:	0f 93       	push	r16
    662c:	1f 93       	push	r17
    662e:	cf 93       	push	r28
    6630:	df 93       	push	r29
    6632:	cd b7       	in	r28, 0x3d	; 61
    6634:	de b7       	in	r29, 0x3e	; 62
    6636:	ca 1b       	sub	r28, r26
    6638:	db 0b       	sbc	r29, r27
    663a:	0f b6       	in	r0, 0x3f	; 63
    663c:	f8 94       	cli
    663e:	de bf       	out	0x3e, r29	; 62
    6640:	0f be       	out	0x3f, r0	; 63
    6642:	cd bf       	out	0x3d, r28	; 61
    6644:	09 94       	ijmp

00006646 <__epilogue_restores__>:
    6646:	2a 88       	ldd	r2, Y+18	; 0x12
    6648:	39 88       	ldd	r3, Y+17	; 0x11
    664a:	48 88       	ldd	r4, Y+16	; 0x10
    664c:	5f 84       	ldd	r5, Y+15	; 0x0f
    664e:	6e 84       	ldd	r6, Y+14	; 0x0e
    6650:	7d 84       	ldd	r7, Y+13	; 0x0d
    6652:	8c 84       	ldd	r8, Y+12	; 0x0c
    6654:	9b 84       	ldd	r9, Y+11	; 0x0b
    6656:	aa 84       	ldd	r10, Y+10	; 0x0a
    6658:	b9 84       	ldd	r11, Y+9	; 0x09
    665a:	c8 84       	ldd	r12, Y+8	; 0x08
    665c:	df 80       	ldd	r13, Y+7	; 0x07
    665e:	ee 80       	ldd	r14, Y+6	; 0x06
    6660:	fd 80       	ldd	r15, Y+5	; 0x05
    6662:	0c 81       	ldd	r16, Y+4	; 0x04
    6664:	1b 81       	ldd	r17, Y+3	; 0x03
    6666:	aa 81       	ldd	r26, Y+2	; 0x02
    6668:	b9 81       	ldd	r27, Y+1	; 0x01
    666a:	ce 0f       	add	r28, r30
    666c:	d1 1d       	adc	r29, r1
    666e:	0f b6       	in	r0, 0x3f	; 63
    6670:	f8 94       	cli
    6672:	de bf       	out	0x3e, r29	; 62
    6674:	0f be       	out	0x3f, r0	; 63
    6676:	cd bf       	out	0x3d, r28	; 61
    6678:	ed 01       	movw	r28, r26
    667a:	08 95       	ret

0000667c <__umulhisi3>:
    667c:	a2 9f       	mul	r26, r18
    667e:	b0 01       	movw	r22, r0
    6680:	b3 9f       	mul	r27, r19
    6682:	c0 01       	movw	r24, r0
    6684:	a3 9f       	mul	r26, r19
    6686:	70 0d       	add	r23, r0
    6688:	81 1d       	adc	r24, r1
    668a:	11 24       	eor	r1, r1
    668c:	91 1d       	adc	r25, r1
    668e:	b2 9f       	mul	r27, r18
    6690:	70 0d       	add	r23, r0
    6692:	81 1d       	adc	r24, r1
    6694:	11 24       	eor	r1, r1
    6696:	91 1d       	adc	r25, r1
    6698:	08 95       	ret

0000669a <atoi>:
    669a:	fc 01       	movw	r30, r24
    669c:	88 27       	eor	r24, r24
    669e:	99 27       	eor	r25, r25
    66a0:	e8 94       	clt
    66a2:	21 91       	ld	r18, Z+
    66a4:	20 32       	cpi	r18, 0x20	; 32
    66a6:	e9 f3       	breq	.-6      	; 0x66a2 <atoi+0x8>
    66a8:	29 30       	cpi	r18, 0x09	; 9
    66aa:	10 f0       	brcs	.+4      	; 0x66b0 <atoi+0x16>
    66ac:	2e 30       	cpi	r18, 0x0E	; 14
    66ae:	c8 f3       	brcs	.-14     	; 0x66a2 <atoi+0x8>
    66b0:	2b 32       	cpi	r18, 0x2B	; 43
    66b2:	41 f0       	breq	.+16     	; 0x66c4 <atoi+0x2a>
    66b4:	2d 32       	cpi	r18, 0x2D	; 45
    66b6:	39 f4       	brne	.+14     	; 0x66c6 <atoi+0x2c>
    66b8:	68 94       	set
    66ba:	04 c0       	rjmp	.+8      	; 0x66c4 <atoi+0x2a>
    66bc:	0e 94 72 34 	call	0x68e4	; 0x68e4 <__mulhi_const_10>
    66c0:	82 0f       	add	r24, r18
    66c2:	91 1d       	adc	r25, r1
    66c4:	21 91       	ld	r18, Z+
    66c6:	20 53       	subi	r18, 0x30	; 48
    66c8:	2a 30       	cpi	r18, 0x0A	; 10
    66ca:	c0 f3       	brcs	.-16     	; 0x66bc <atoi+0x22>
    66cc:	1e f4       	brtc	.+6      	; 0x66d4 <atoi+0x3a>
    66ce:	90 95       	com	r25
    66d0:	81 95       	neg	r24
    66d2:	9f 4f       	sbci	r25, 0xFF	; 255
    66d4:	08 95       	ret

000066d6 <__ftoa_engine>:
    66d6:	28 30       	cpi	r18, 0x08	; 8
    66d8:	08 f0       	brcs	.+2      	; 0x66dc <__ftoa_engine+0x6>
    66da:	27 e0       	ldi	r18, 0x07	; 7
    66dc:	33 27       	eor	r19, r19
    66de:	da 01       	movw	r26, r20
    66e0:	99 0f       	add	r25, r25
    66e2:	31 1d       	adc	r19, r1
    66e4:	87 fd       	sbrc	r24, 7
    66e6:	91 60       	ori	r25, 0x01	; 1
    66e8:	00 96       	adiw	r24, 0x00	; 0
    66ea:	61 05       	cpc	r22, r1
    66ec:	71 05       	cpc	r23, r1
    66ee:	39 f4       	brne	.+14     	; 0x66fe <__ftoa_engine+0x28>
    66f0:	32 60       	ori	r19, 0x02	; 2
    66f2:	2e 5f       	subi	r18, 0xFE	; 254
    66f4:	3d 93       	st	X+, r19
    66f6:	30 e3       	ldi	r19, 0x30	; 48
    66f8:	2a 95       	dec	r18
    66fa:	e1 f7       	brne	.-8      	; 0x66f4 <__ftoa_engine+0x1e>
    66fc:	08 95       	ret
    66fe:	9f 3f       	cpi	r25, 0xFF	; 255
    6700:	30 f0       	brcs	.+12     	; 0x670e <__ftoa_engine+0x38>
    6702:	80 38       	cpi	r24, 0x80	; 128
    6704:	71 05       	cpc	r23, r1
    6706:	61 05       	cpc	r22, r1
    6708:	09 f0       	breq	.+2      	; 0x670c <__ftoa_engine+0x36>
    670a:	3c 5f       	subi	r19, 0xFC	; 252
    670c:	3c 5f       	subi	r19, 0xFC	; 252
    670e:	3d 93       	st	X+, r19
    6710:	91 30       	cpi	r25, 0x01	; 1
    6712:	08 f0       	brcs	.+2      	; 0x6716 <__ftoa_engine+0x40>
    6714:	80 68       	ori	r24, 0x80	; 128
    6716:	91 1d       	adc	r25, r1
    6718:	df 93       	push	r29
    671a:	cf 93       	push	r28
    671c:	1f 93       	push	r17
    671e:	0f 93       	push	r16
    6720:	ff 92       	push	r15
    6722:	ef 92       	push	r14
    6724:	19 2f       	mov	r17, r25
    6726:	98 7f       	andi	r25, 0xF8	; 248
    6728:	96 95       	lsr	r25
    672a:	e9 2f       	mov	r30, r25
    672c:	96 95       	lsr	r25
    672e:	96 95       	lsr	r25
    6730:	e9 0f       	add	r30, r25
    6732:	ff 27       	eor	r31, r31
    6734:	e8 57       	subi	r30, 0x78	; 120
    6736:	fc 4f       	sbci	r31, 0xFC	; 252
    6738:	99 27       	eor	r25, r25
    673a:	33 27       	eor	r19, r19
    673c:	ee 24       	eor	r14, r14
    673e:	ff 24       	eor	r15, r15
    6740:	a7 01       	movw	r20, r14
    6742:	e7 01       	movw	r28, r14
    6744:	05 90       	lpm	r0, Z+
    6746:	08 94       	sec
    6748:	07 94       	ror	r0
    674a:	28 f4       	brcc	.+10     	; 0x6756 <__ftoa_engine+0x80>
    674c:	36 0f       	add	r19, r22
    674e:	e7 1e       	adc	r14, r23
    6750:	f8 1e       	adc	r15, r24
    6752:	49 1f       	adc	r20, r25
    6754:	51 1d       	adc	r21, r1
    6756:	66 0f       	add	r22, r22
    6758:	77 1f       	adc	r23, r23
    675a:	88 1f       	adc	r24, r24
    675c:	99 1f       	adc	r25, r25
    675e:	06 94       	lsr	r0
    6760:	a1 f7       	brne	.-24     	; 0x674a <__ftoa_engine+0x74>
    6762:	05 90       	lpm	r0, Z+
    6764:	07 94       	ror	r0
    6766:	28 f4       	brcc	.+10     	; 0x6772 <__ftoa_engine+0x9c>
    6768:	e7 0e       	add	r14, r23
    676a:	f8 1e       	adc	r15, r24
    676c:	49 1f       	adc	r20, r25
    676e:	56 1f       	adc	r21, r22
    6770:	c1 1d       	adc	r28, r1
    6772:	77 0f       	add	r23, r23
    6774:	88 1f       	adc	r24, r24
    6776:	99 1f       	adc	r25, r25
    6778:	66 1f       	adc	r22, r22
    677a:	06 94       	lsr	r0
    677c:	a1 f7       	brne	.-24     	; 0x6766 <__ftoa_engine+0x90>
    677e:	05 90       	lpm	r0, Z+
    6780:	07 94       	ror	r0
    6782:	28 f4       	brcc	.+10     	; 0x678e <__ftoa_engine+0xb8>
    6784:	f8 0e       	add	r15, r24
    6786:	49 1f       	adc	r20, r25
    6788:	56 1f       	adc	r21, r22
    678a:	c7 1f       	adc	r28, r23
    678c:	d1 1d       	adc	r29, r1
    678e:	88 0f       	add	r24, r24
    6790:	99 1f       	adc	r25, r25
    6792:	66 1f       	adc	r22, r22
    6794:	77 1f       	adc	r23, r23
    6796:	06 94       	lsr	r0
    6798:	a1 f7       	brne	.-24     	; 0x6782 <__ftoa_engine+0xac>
    679a:	05 90       	lpm	r0, Z+
    679c:	07 94       	ror	r0
    679e:	20 f4       	brcc	.+8      	; 0x67a8 <__ftoa_engine+0xd2>
    67a0:	49 0f       	add	r20, r25
    67a2:	56 1f       	adc	r21, r22
    67a4:	c7 1f       	adc	r28, r23
    67a6:	d8 1f       	adc	r29, r24
    67a8:	99 0f       	add	r25, r25
    67aa:	66 1f       	adc	r22, r22
    67ac:	77 1f       	adc	r23, r23
    67ae:	88 1f       	adc	r24, r24
    67b0:	06 94       	lsr	r0
    67b2:	a9 f7       	brne	.-22     	; 0x679e <__ftoa_engine+0xc8>
    67b4:	84 91       	lpm	r24, Z
    67b6:	10 95       	com	r17
    67b8:	17 70       	andi	r17, 0x07	; 7
    67ba:	41 f0       	breq	.+16     	; 0x67cc <__ftoa_engine+0xf6>
    67bc:	d6 95       	lsr	r29
    67be:	c7 95       	ror	r28
    67c0:	57 95       	ror	r21
    67c2:	47 95       	ror	r20
    67c4:	f7 94       	ror	r15
    67c6:	e7 94       	ror	r14
    67c8:	1a 95       	dec	r17
    67ca:	c1 f7       	brne	.-16     	; 0x67bc <__ftoa_engine+0xe6>
    67cc:	ee e2       	ldi	r30, 0x2E	; 46
    67ce:	f3 e0       	ldi	r31, 0x03	; 3
    67d0:	68 94       	set
    67d2:	15 90       	lpm	r1, Z+
    67d4:	15 91       	lpm	r17, Z+
    67d6:	35 91       	lpm	r19, Z+
    67d8:	65 91       	lpm	r22, Z+
    67da:	95 91       	lpm	r25, Z+
    67dc:	05 90       	lpm	r0, Z+
    67de:	7f e2       	ldi	r23, 0x2F	; 47
    67e0:	73 95       	inc	r23
    67e2:	e1 18       	sub	r14, r1
    67e4:	f1 0a       	sbc	r15, r17
    67e6:	43 0b       	sbc	r20, r19
    67e8:	56 0b       	sbc	r21, r22
    67ea:	c9 0b       	sbc	r28, r25
    67ec:	d0 09       	sbc	r29, r0
    67ee:	c0 f7       	brcc	.-16     	; 0x67e0 <__ftoa_engine+0x10a>
    67f0:	e1 0c       	add	r14, r1
    67f2:	f1 1e       	adc	r15, r17
    67f4:	43 1f       	adc	r20, r19
    67f6:	56 1f       	adc	r21, r22
    67f8:	c9 1f       	adc	r28, r25
    67fa:	d0 1d       	adc	r29, r0
    67fc:	7e f4       	brtc	.+30     	; 0x681c <__ftoa_engine+0x146>
    67fe:	70 33       	cpi	r23, 0x30	; 48
    6800:	11 f4       	brne	.+4      	; 0x6806 <__ftoa_engine+0x130>
    6802:	8a 95       	dec	r24
    6804:	e6 cf       	rjmp	.-52     	; 0x67d2 <__ftoa_engine+0xfc>
    6806:	e8 94       	clt
    6808:	01 50       	subi	r16, 0x01	; 1
    680a:	30 f0       	brcs	.+12     	; 0x6818 <__ftoa_engine+0x142>
    680c:	08 0f       	add	r16, r24
    680e:	0a f4       	brpl	.+2      	; 0x6812 <__ftoa_engine+0x13c>
    6810:	00 27       	eor	r16, r16
    6812:	02 17       	cp	r16, r18
    6814:	08 f4       	brcc	.+2      	; 0x6818 <__ftoa_engine+0x142>
    6816:	20 2f       	mov	r18, r16
    6818:	23 95       	inc	r18
    681a:	02 2f       	mov	r16, r18
    681c:	7a 33       	cpi	r23, 0x3A	; 58
    681e:	28 f0       	brcs	.+10     	; 0x682a <__ftoa_engine+0x154>
    6820:	79 e3       	ldi	r23, 0x39	; 57
    6822:	7d 93       	st	X+, r23
    6824:	2a 95       	dec	r18
    6826:	e9 f7       	brne	.-6      	; 0x6822 <__ftoa_engine+0x14c>
    6828:	10 c0       	rjmp	.+32     	; 0x684a <__ftoa_engine+0x174>
    682a:	7d 93       	st	X+, r23
    682c:	2a 95       	dec	r18
    682e:	89 f6       	brne	.-94     	; 0x67d2 <__ftoa_engine+0xfc>
    6830:	06 94       	lsr	r0
    6832:	97 95       	ror	r25
    6834:	67 95       	ror	r22
    6836:	37 95       	ror	r19
    6838:	17 95       	ror	r17
    683a:	17 94       	ror	r1
    683c:	e1 18       	sub	r14, r1
    683e:	f1 0a       	sbc	r15, r17
    6840:	43 0b       	sbc	r20, r19
    6842:	56 0b       	sbc	r21, r22
    6844:	c9 0b       	sbc	r28, r25
    6846:	d0 09       	sbc	r29, r0
    6848:	98 f0       	brcs	.+38     	; 0x6870 <__ftoa_engine+0x19a>
    684a:	23 95       	inc	r18
    684c:	7e 91       	ld	r23, -X
    684e:	73 95       	inc	r23
    6850:	7a 33       	cpi	r23, 0x3A	; 58
    6852:	08 f0       	brcs	.+2      	; 0x6856 <__ftoa_engine+0x180>
    6854:	70 e3       	ldi	r23, 0x30	; 48
    6856:	7c 93       	st	X, r23
    6858:	20 13       	cpse	r18, r16
    685a:	b8 f7       	brcc	.-18     	; 0x684a <__ftoa_engine+0x174>
    685c:	7e 91       	ld	r23, -X
    685e:	70 61       	ori	r23, 0x10	; 16
    6860:	7d 93       	st	X+, r23
    6862:	30 f0       	brcs	.+12     	; 0x6870 <__ftoa_engine+0x19a>
    6864:	83 95       	inc	r24
    6866:	71 e3       	ldi	r23, 0x31	; 49
    6868:	7d 93       	st	X+, r23
    686a:	70 e3       	ldi	r23, 0x30	; 48
    686c:	2a 95       	dec	r18
    686e:	e1 f7       	brne	.-8      	; 0x6868 <__ftoa_engine+0x192>
    6870:	11 24       	eor	r1, r1
    6872:	ef 90       	pop	r14
    6874:	ff 90       	pop	r15
    6876:	0f 91       	pop	r16
    6878:	1f 91       	pop	r17
    687a:	cf 91       	pop	r28
    687c:	df 91       	pop	r29
    687e:	99 27       	eor	r25, r25
    6880:	87 fd       	sbrc	r24, 7
    6882:	90 95       	com	r25
    6884:	08 95       	ret

00006886 <strnlen_P>:
    6886:	fc 01       	movw	r30, r24
    6888:	05 90       	lpm	r0, Z+
    688a:	61 50       	subi	r22, 0x01	; 1
    688c:	70 40       	sbci	r23, 0x00	; 0
    688e:	01 10       	cpse	r0, r1
    6890:	d8 f7       	brcc	.-10     	; 0x6888 <strnlen_P+0x2>
    6892:	80 95       	com	r24
    6894:	90 95       	com	r25
    6896:	8e 0f       	add	r24, r30
    6898:	9f 1f       	adc	r25, r31
    689a:	08 95       	ret

0000689c <memset>:
    689c:	dc 01       	movw	r26, r24
    689e:	01 c0       	rjmp	.+2      	; 0x68a2 <memset+0x6>
    68a0:	6d 93       	st	X+, r22
    68a2:	41 50       	subi	r20, 0x01	; 1
    68a4:	50 40       	sbci	r21, 0x00	; 0
    68a6:	e0 f7       	brcc	.-8      	; 0x68a0 <memset+0x4>
    68a8:	08 95       	ret

000068aa <strcmp>:
    68aa:	fb 01       	movw	r30, r22
    68ac:	dc 01       	movw	r26, r24
    68ae:	8d 91       	ld	r24, X+
    68b0:	01 90       	ld	r0, Z+
    68b2:	80 19       	sub	r24, r0
    68b4:	01 10       	cpse	r0, r1
    68b6:	d9 f3       	breq	.-10     	; 0x68ae <strcmp+0x4>
    68b8:	99 0b       	sbc	r25, r25
    68ba:	08 95       	ret

000068bc <strlen>:
    68bc:	fc 01       	movw	r30, r24
    68be:	01 90       	ld	r0, Z+
    68c0:	00 20       	and	r0, r0
    68c2:	e9 f7       	brne	.-6      	; 0x68be <strlen+0x2>
    68c4:	80 95       	com	r24
    68c6:	90 95       	com	r25
    68c8:	8e 0f       	add	r24, r30
    68ca:	9f 1f       	adc	r25, r31
    68cc:	08 95       	ret

000068ce <strnlen>:
    68ce:	fc 01       	movw	r30, r24
    68d0:	61 50       	subi	r22, 0x01	; 1
    68d2:	70 40       	sbci	r23, 0x00	; 0
    68d4:	01 90       	ld	r0, Z+
    68d6:	01 10       	cpse	r0, r1
    68d8:	d8 f7       	brcc	.-10     	; 0x68d0 <strnlen+0x2>
    68da:	80 95       	com	r24
    68dc:	90 95       	com	r25
    68de:	8e 0f       	add	r24, r30
    68e0:	9f 1f       	adc	r25, r31
    68e2:	08 95       	ret

000068e4 <__mulhi_const_10>:
    68e4:	7a e0       	ldi	r23, 0x0A	; 10
    68e6:	97 9f       	mul	r25, r23
    68e8:	90 2d       	mov	r25, r0
    68ea:	87 9f       	mul	r24, r23
    68ec:	80 2d       	mov	r24, r0
    68ee:	91 0d       	add	r25, r1
    68f0:	11 24       	eor	r1, r1
    68f2:	08 95       	ret

000068f4 <fputc>:
    68f4:	0f 93       	push	r16
    68f6:	1f 93       	push	r17
    68f8:	cf 93       	push	r28
    68fa:	df 93       	push	r29
    68fc:	fb 01       	movw	r30, r22
    68fe:	23 81       	ldd	r18, Z+3	; 0x03
    6900:	21 fd       	sbrc	r18, 1
    6902:	03 c0       	rjmp	.+6      	; 0x690a <fputc+0x16>
    6904:	8f ef       	ldi	r24, 0xFF	; 255
    6906:	9f ef       	ldi	r25, 0xFF	; 255
    6908:	2c c0       	rjmp	.+88     	; 0x6962 <fputc+0x6e>
    690a:	22 ff       	sbrs	r18, 2
    690c:	16 c0       	rjmp	.+44     	; 0x693a <fputc+0x46>
    690e:	46 81       	ldd	r20, Z+6	; 0x06
    6910:	57 81       	ldd	r21, Z+7	; 0x07
    6912:	24 81       	ldd	r18, Z+4	; 0x04
    6914:	35 81       	ldd	r19, Z+5	; 0x05
    6916:	42 17       	cp	r20, r18
    6918:	53 07       	cpc	r21, r19
    691a:	44 f4       	brge	.+16     	; 0x692c <fputc+0x38>
    691c:	a0 81       	ld	r26, Z
    691e:	b1 81       	ldd	r27, Z+1	; 0x01
    6920:	9d 01       	movw	r18, r26
    6922:	2f 5f       	subi	r18, 0xFF	; 255
    6924:	3f 4f       	sbci	r19, 0xFF	; 255
    6926:	31 83       	std	Z+1, r19	; 0x01
    6928:	20 83       	st	Z, r18
    692a:	8c 93       	st	X, r24
    692c:	26 81       	ldd	r18, Z+6	; 0x06
    692e:	37 81       	ldd	r19, Z+7	; 0x07
    6930:	2f 5f       	subi	r18, 0xFF	; 255
    6932:	3f 4f       	sbci	r19, 0xFF	; 255
    6934:	37 83       	std	Z+7, r19	; 0x07
    6936:	26 83       	std	Z+6, r18	; 0x06
    6938:	14 c0       	rjmp	.+40     	; 0x6962 <fputc+0x6e>
    693a:	8b 01       	movw	r16, r22
    693c:	ec 01       	movw	r28, r24
    693e:	fb 01       	movw	r30, r22
    6940:	00 84       	ldd	r0, Z+8	; 0x08
    6942:	f1 85       	ldd	r31, Z+9	; 0x09
    6944:	e0 2d       	mov	r30, r0
    6946:	09 95       	icall
    6948:	89 2b       	or	r24, r25
    694a:	e1 f6       	brne	.-72     	; 0x6904 <fputc+0x10>
    694c:	d8 01       	movw	r26, r16
    694e:	16 96       	adiw	r26, 0x06	; 6
    6950:	8d 91       	ld	r24, X+
    6952:	9c 91       	ld	r25, X
    6954:	17 97       	sbiw	r26, 0x07	; 7
    6956:	01 96       	adiw	r24, 0x01	; 1
    6958:	17 96       	adiw	r26, 0x07	; 7
    695a:	9c 93       	st	X, r25
    695c:	8e 93       	st	-X, r24
    695e:	16 97       	sbiw	r26, 0x06	; 6
    6960:	ce 01       	movw	r24, r28
    6962:	df 91       	pop	r29
    6964:	cf 91       	pop	r28
    6966:	1f 91       	pop	r17
    6968:	0f 91       	pop	r16
    696a:	08 95       	ret

0000696c <sprintf>:
    696c:	ae e0       	ldi	r26, 0x0E	; 14
    696e:	b0 e0       	ldi	r27, 0x00	; 0
    6970:	ec eb       	ldi	r30, 0xBC	; 188
    6972:	f4 e3       	ldi	r31, 0x34	; 52
    6974:	0c 94 15 33 	jmp	0x662a	; 0x662a <__prologue_saves__+0x1c>
    6978:	0d 89       	ldd	r16, Y+21	; 0x15
    697a:	1e 89       	ldd	r17, Y+22	; 0x16
    697c:	86 e0       	ldi	r24, 0x06	; 6
    697e:	8c 83       	std	Y+4, r24	; 0x04
    6980:	1a 83       	std	Y+2, r17	; 0x02
    6982:	09 83       	std	Y+1, r16	; 0x01
    6984:	8f ef       	ldi	r24, 0xFF	; 255
    6986:	9f e7       	ldi	r25, 0x7F	; 127
    6988:	9e 83       	std	Y+6, r25	; 0x06
    698a:	8d 83       	std	Y+5, r24	; 0x05
    698c:	ae 01       	movw	r20, r28
    698e:	47 5e       	subi	r20, 0xE7	; 231
    6990:	5f 4f       	sbci	r21, 0xFF	; 255
    6992:	6f 89       	ldd	r22, Y+23	; 0x17
    6994:	78 8d       	ldd	r23, Y+24	; 0x18
    6996:	ce 01       	movw	r24, r28
    6998:	01 96       	adiw	r24, 0x01	; 1
    699a:	0e 94 47 2f 	call	0x5e8e	; 0x5e8e <vfprintf>
    699e:	ef 81       	ldd	r30, Y+7	; 0x07
    69a0:	f8 85       	ldd	r31, Y+8	; 0x08
    69a2:	e0 0f       	add	r30, r16
    69a4:	f1 1f       	adc	r31, r17
    69a6:	10 82       	st	Z, r1
    69a8:	2e 96       	adiw	r28, 0x0e	; 14
    69aa:	e4 e0       	ldi	r30, 0x04	; 4
    69ac:	0c 94 31 33 	jmp	0x6662	; 0x6662 <__epilogue_restores__+0x1c>

000069b0 <__ultoa_invert>:
    69b0:	fa 01       	movw	r30, r20
    69b2:	aa 27       	eor	r26, r26
    69b4:	28 30       	cpi	r18, 0x08	; 8
    69b6:	51 f1       	breq	.+84     	; 0x6a0c <__ultoa_invert+0x5c>
    69b8:	20 31       	cpi	r18, 0x10	; 16
    69ba:	81 f1       	breq	.+96     	; 0x6a1c <__ultoa_invert+0x6c>
    69bc:	e8 94       	clt
    69be:	6f 93       	push	r22
    69c0:	6e 7f       	andi	r22, 0xFE	; 254
    69c2:	6e 5f       	subi	r22, 0xFE	; 254
    69c4:	7f 4f       	sbci	r23, 0xFF	; 255
    69c6:	8f 4f       	sbci	r24, 0xFF	; 255
    69c8:	9f 4f       	sbci	r25, 0xFF	; 255
    69ca:	af 4f       	sbci	r26, 0xFF	; 255
    69cc:	b1 e0       	ldi	r27, 0x01	; 1
    69ce:	3e d0       	rcall	.+124    	; 0x6a4c <__ultoa_invert+0x9c>
    69d0:	b4 e0       	ldi	r27, 0x04	; 4
    69d2:	3c d0       	rcall	.+120    	; 0x6a4c <__ultoa_invert+0x9c>
    69d4:	67 0f       	add	r22, r23
    69d6:	78 1f       	adc	r23, r24
    69d8:	89 1f       	adc	r24, r25
    69da:	9a 1f       	adc	r25, r26
    69dc:	a1 1d       	adc	r26, r1
    69de:	68 0f       	add	r22, r24
    69e0:	79 1f       	adc	r23, r25
    69e2:	8a 1f       	adc	r24, r26
    69e4:	91 1d       	adc	r25, r1
    69e6:	a1 1d       	adc	r26, r1
    69e8:	6a 0f       	add	r22, r26
    69ea:	71 1d       	adc	r23, r1
    69ec:	81 1d       	adc	r24, r1
    69ee:	91 1d       	adc	r25, r1
    69f0:	a1 1d       	adc	r26, r1
    69f2:	20 d0       	rcall	.+64     	; 0x6a34 <__ultoa_invert+0x84>
    69f4:	09 f4       	brne	.+2      	; 0x69f8 <__ultoa_invert+0x48>
    69f6:	68 94       	set
    69f8:	3f 91       	pop	r19
    69fa:	2a e0       	ldi	r18, 0x0A	; 10
    69fc:	26 9f       	mul	r18, r22
    69fe:	11 24       	eor	r1, r1
    6a00:	30 19       	sub	r19, r0
    6a02:	30 5d       	subi	r19, 0xD0	; 208
    6a04:	31 93       	st	Z+, r19
    6a06:	de f6       	brtc	.-74     	; 0x69be <__ultoa_invert+0xe>
    6a08:	cf 01       	movw	r24, r30
    6a0a:	08 95       	ret
    6a0c:	46 2f       	mov	r20, r22
    6a0e:	47 70       	andi	r20, 0x07	; 7
    6a10:	40 5d       	subi	r20, 0xD0	; 208
    6a12:	41 93       	st	Z+, r20
    6a14:	b3 e0       	ldi	r27, 0x03	; 3
    6a16:	0f d0       	rcall	.+30     	; 0x6a36 <__ultoa_invert+0x86>
    6a18:	c9 f7       	brne	.-14     	; 0x6a0c <__ultoa_invert+0x5c>
    6a1a:	f6 cf       	rjmp	.-20     	; 0x6a08 <__ultoa_invert+0x58>
    6a1c:	46 2f       	mov	r20, r22
    6a1e:	4f 70       	andi	r20, 0x0F	; 15
    6a20:	40 5d       	subi	r20, 0xD0	; 208
    6a22:	4a 33       	cpi	r20, 0x3A	; 58
    6a24:	18 f0       	brcs	.+6      	; 0x6a2c <__ultoa_invert+0x7c>
    6a26:	49 5d       	subi	r20, 0xD9	; 217
    6a28:	31 fd       	sbrc	r19, 1
    6a2a:	40 52       	subi	r20, 0x20	; 32
    6a2c:	41 93       	st	Z+, r20
    6a2e:	02 d0       	rcall	.+4      	; 0x6a34 <__ultoa_invert+0x84>
    6a30:	a9 f7       	brne	.-22     	; 0x6a1c <__ultoa_invert+0x6c>
    6a32:	ea cf       	rjmp	.-44     	; 0x6a08 <__ultoa_invert+0x58>
    6a34:	b4 e0       	ldi	r27, 0x04	; 4
    6a36:	a6 95       	lsr	r26
    6a38:	97 95       	ror	r25
    6a3a:	87 95       	ror	r24
    6a3c:	77 95       	ror	r23
    6a3e:	67 95       	ror	r22
    6a40:	ba 95       	dec	r27
    6a42:	c9 f7       	brne	.-14     	; 0x6a36 <__ultoa_invert+0x86>
    6a44:	00 97       	sbiw	r24, 0x00	; 0
    6a46:	61 05       	cpc	r22, r1
    6a48:	71 05       	cpc	r23, r1
    6a4a:	08 95       	ret
    6a4c:	9b 01       	movw	r18, r22
    6a4e:	ac 01       	movw	r20, r24
    6a50:	0a 2e       	mov	r0, r26
    6a52:	06 94       	lsr	r0
    6a54:	57 95       	ror	r21
    6a56:	47 95       	ror	r20
    6a58:	37 95       	ror	r19
    6a5a:	27 95       	ror	r18
    6a5c:	ba 95       	dec	r27
    6a5e:	c9 f7       	brne	.-14     	; 0x6a52 <__ultoa_invert+0xa2>
    6a60:	62 0f       	add	r22, r18
    6a62:	73 1f       	adc	r23, r19
    6a64:	84 1f       	adc	r24, r20
    6a66:	95 1f       	adc	r25, r21
    6a68:	a0 1d       	adc	r26, r0
    6a6a:	08 95       	ret

00006a6c <_exit>:
    6a6c:	f8 94       	cli

00006a6e <__stop_program>:
    6a6e:	ff cf       	rjmp	.-2      	; 0x6a6e <__stop_program>
